(lp0
F-0.3794824481010437
aF-10.871329307556152
aF-9.870115280151367
aF-9.850004196166992
aF-9.810952186584473
aF-9.771515846252441
aF-9.771428108215332
aF-9.771493911743164
aF-9.812104225158691
aF-9.850968360900879
aF-9.795099258422852
aF-9.659090995788574
aF-9.488700866699219
aF-9.24620246887207
aF-9.00059700012207
aF-8.694500923156738
aF-8.368070602416992
aF-8.002843856811523
aF-7.606858730316162
aF-7.242015838623047
aF-6.855361461639404
aF-6.491207599639893
aF-6.14459753036499
aF-5.831287860870361
aF-5.5775346755981445
aF-5.321725845336914
aF-5.133444786071777
aF-4.988321781158447
aF-4.911531448364258
aF-4.881765365600586
aF-4.8806939125061035
aF-4.938171863555908
aF-5.0386505126953125
aF-5.185069561004639
aF-5.377658843994141
aF-5.638187408447266
aF-5.949511528015137
aF-6.2976508140563965
aF-6.7299885749816895
aF-7.246097564697266
aF-7.782784938812256
aF-8.52910327911377
aF-9.254768371582031
aF-9.960465431213379
aF-9.133960723876953
aF-8.27729320526123
aF-7.403197288513184
aF-6.599383354187012
aF-5.881058216094971
aF-5.206873893737793
aF-4.617642879486084
aF-4.132844924926758
aF-3.728604316711426
aF-3.407151460647583
aF-3.1644489765167236
aF-2.9863789081573486
aF-2.877236843109131
aF-2.8403093814849854
aF-2.8932225704193115
aF-3.00947904586792
aF-3.199275255203247
aF-3.471831798553467
aF-3.8312220573425293
aF-4.234398365020752
aF-4.757432460784912
aF-5.2709221839904785
aF-5.990447998046875
aF-6.739943504333496
aF-7.516801834106445
aF-8.418238639831543
aF-9.34312915802002
aF-9.833046913146973
aF-8.812202453613281
aF-7.866156578063965
aF-6.933668613433838
aF-6.0343804359436035
aF-5.266287803649902
aF-4.5608954429626465
aF-3.9451487064361572
aF-3.4531781673431396
aF-3.0388994216918945
aF-2.7227466106414795
aF-2.4647376537323
aF-2.2881948947906494
aF-2.1757588386535645
aF-2.1129493713378906
aF-2.1101691722869873
aF-2.1681647300720215
aF-2.2908213138580322
aF-2.4803943634033203
aF-2.7452075481414795
aF-3.0595991611480713
aF-3.474121332168579
aF-3.990813732147217
aF-4.560487747192383
aF-5.210412979125977
aF-5.9727559089660645
aF-6.852119445800781
aF-7.917616844177246
aF-8.9634428024292
aF-10.149859428405762
aF-9.097867012023926
aF-7.976860046386719
aF-6.940234661102295
aF-6.021268367767334
aF-5.083204746246338
aF-4.313042640686035
aF-3.692009925842285
aF-3.180819511413574
aF-2.727754592895508
aF-2.3897464275360107
aF-2.1208627223968506
aF-1.9247443675994873
aF-1.7987070083618164
aF-1.7248252630233765
aF-1.7033568620681763
aF-1.7468100786209106
aF-1.8379497528076172
aF-1.9788169860839844
aF-2.1733226776123047
aF-2.430030345916748
aF-2.753661632537842
aF-3.1721713542938232
aF-3.692690134048462
aF-4.309239387512207
aF-5.019150257110596
aF-5.768624305725098
aF-6.717003345489502
aF-7.700168132781982
aF-8.889819145202637
aF-9.9214448928833
aF-9.292675018310547
aF-8.19327163696289
aF-7.179275989532471
aF-6.262266159057617
aF-5.400285243988037
aF-4.6397881507873535
aF-3.9845643043518066
aF-3.4054155349731445
aF-2.9382388591766357
aF-2.566194534301758
aF-2.2684555053710938
aF-2.0456759929656982
aF-1.8843145370483398
aF-1.7809218168258667
aF-1.7307195663452148
aF-1.7453577518463135
aF-1.7969355583190918
aF-1.8989481925964355
aF-2.064471960067749
aF-2.2973556518554688
aF-2.5917534828186035
aF-2.9588711261749268
aF-3.426561117172241
aF-3.9442381858825684
aF-4.623714447021484
aF-5.410303115844727
aF-6.258382797241211
aF-7.229836463928223
aF-8.296711921691895
aF-9.356134414672852
aF-9.848814964294434
aF-8.627748489379883
aF-7.437602519989014
aF-6.445001125335693
aF-5.514187335968018
aF-4.680963039398193
aF-3.936014413833618
aF-3.31268572807312
aF-2.8318469524383545
aF-2.4320781230926514
aF-2.1158390045166016
aF-1.876829981803894
aF-1.7068157196044922
aF-1.596184492111206
aF-1.5264005661010742
aF-1.5129635334014893
aF-1.5453522205352783
aF-1.6216357946395874
aF-1.7355293035507202
aF-1.8886948823928833
aF-2.112846612930298
aF-2.410886287689209
aF-2.7937839031219482
aF-3.200443983078003
aF-3.8162240982055664
aF-4.420566558837891
aF-5.1296257972717285
aF-6.011559963226318
aF-6.820163726806641
aF-8.025983810424805
aF-9.197731018066406
aF-10.057770729064941
aF-9.050172805786133
aF-7.88596248626709
aF-6.8906569480896
aF-5.959396839141846
aF-5.086277008056641
aF-4.364187717437744
aF-3.744037628173828
aF-2.790341377258301
aF-10.831923484802246
aF-9.830512046813965
aF-9.810556411743164
aF-9.771624565124512
aF-9.713383674621582
aF-9.692832946777344
aF-9.6927490234375
aF-9.733202934265137
aF-9.771590232849121
aF-9.81186294555664
aF-9.871257781982422
aF-9.774554252624512
aF-9.622196197509766
aF-9.450756072998047
aF-9.240889549255371
aF-8.967257499694824
aF-8.68836784362793
aF-8.337644577026367
aF-7.980994701385498
aF-7.657715320587158
aF-7.309602737426758
aF-6.94527006149292
aF-6.624525547027588
aF-6.321545600891113
aF-6.038021087646484
aF-5.7759599685668945
aF-5.557070255279541
aF-5.377802848815918
aF-5.2290167808532715
aF-5.150184631347656
aF-5.1058807373046875
aF-5.1040825843811035
aF-5.16286563873291
aF-5.265297889709473
aF-5.465246677398682
aF-5.674344539642334
aF-5.976894855499268
aF-6.329292297363281
aF-6.7625274658203125
aF-7.279864311218262
aF-7.840867519378662
aF-8.435385704040527
aF-9.249834060668945
aF-10.01689624786377
aF-9.187336921691895
aF-8.390334129333496
aF-7.57279634475708
aF-6.759181022644043
aF-6.024685382843018
aF-5.351597309112549
aF-4.754151344299316
aF-4.252566337585449
aF-3.8483383655548096
aF-3.5181937217712402
aF-3.2691147327423096
aF-3.0782456398010254
aF-2.9736435413360596
aF-2.9463374614715576
aF-2.9682390689849854
aF-3.060844659805298
aF-3.2131099700927734
aF-3.4633235931396484
aF-3.714916229248047
aF-4.091037273406982
aF-4.545078277587891
aF-5.11524772644043
aF-5.742410182952881
aF-6.453281402587891
aF-7.2306647300720215
aF-8.088552474975586
aF-9.00442886352539
aF-9.989513397216797
aF-9.239978790283203
aF-8.222101211547852
aF-7.24379825592041
aF-6.400671482086182
aF-5.608484745025635
aF-4.899153232574463
aF-4.206084728240967
aF-3.697148561477661
aF-3.2493255138397217
aF-2.883709192276001
aF-2.597252130508423
aF-2.3933897018432617
aF-2.25482439994812
aF-2.179365396499634
aF-2.1638362407684326
aF-2.204211950302124
aF-2.305701971054077
aF-2.4618983268737793
aF-2.705756902694702
aF-2.9965155124664307
aF-3.3991172313690186
aF-3.8229382038116455
aF-4.417269229888916
aF-5.035007953643799
aF-5.817551612854004
aF-6.599763870239258
aF-7.59421968460083
aF-8.594655990600586
aF-9.689112663269043
aF-9.481193542480469
aF-8.33053970336914
aF-7.293847560882568
aF-6.303530216217041
aF-5.4247307777404785
aF-4.649039268493652
aF-3.9789798259735107
aF-3.3822855949401855
aF-2.9138283729553223
aF-2.5320022106170654
aF-2.2185821533203125
aF-1.9890660047531128
aF-1.8344699144363403
aF-1.7440561056137085
aF-1.7041200399398804
aF-1.7204152345657349
aF-1.7827563285827637
aF-1.882453203201294
aF-2.046588897705078
aF-2.265324115753174
aF-2.5468342304229736
aF-2.9165031909942627
aF-3.3636419773101807
aF-3.9238686561584473
aF-4.651895523071289
aF-5.22545862197876
aF-6.1369781494140625
aF-6.863076686859131
aF-7.99771785736084
aF-9.126029968261719
aF-10.13016128540039
aF-8.999516487121582
aF-7.9487690925598145
aF-6.9392008781433105
aF-6.0115227699279785
aF-5.163489818572998
aF-4.45382833480835
aF-3.816364288330078
aF-3.2853658199310303
aF-2.853480577468872
aF-2.5173027515411377
aF-2.230752468109131
aF-2.035142660140991
aF-1.9038084745407104
aF-1.817797064781189
aF-1.7954559326171875
aF-1.8208668231964111
aF-1.8945380449295044
aF-2.029240131378174
aF-2.2297310829162598
aF-2.4742040634155273
aF-2.7896616458892822
aF-3.198585271835327
aF-3.7473647594451904
aF-4.156530380249023
aF-4.913593769073486
aF-5.665050983428955
aF-6.476777076721191
aF-7.442188739776611
aF-9.201776504516602
aF-9.59817123413086
aF-9.443384170532227
aF-8.256268501281738
aF-7.167203903198242
aF-6.192226886749268
aF-5.291642189025879
aF-4.450655937194824
aF-3.7894985675811768
aF-3.2129464149475098
aF-2.74538254737854
aF-2.36893630027771
aF-2.081277847290039
aF-1.8721301555633545
aF-1.7226489782333374
aF-1.6315526962280273
aF-1.5924901962280273
aF-1.6066036224365234
aF-1.666347622871399
aF-1.7745612859725952
aF-1.9441163539886475
aF-2.1538143157958984
aF-2.4446141719818115
aF-2.8018112182617188
aF-3.2404258251190186
aF-3.752228021621704
aF-4.50492525100708
aF-5.2179951667785645
aF-5.9864959716796875
aF-7.0224714279174805
aF-7.882606506347656
aF-9.040496826171875
aF-10.200417518615723
aF-9.046969413757324
aF-7.9712629318237305
aF-6.950489521026611
aF-6.033951759338379
aF-5.148153305053711
aF-4.396443843841553
aF-3.2114737033843994
aF-10.851617813110352
aF-9.849884033203125
aF-9.830269813537598
aF-9.771968841552734
aF-9.713125228881836
aF-9.654810905456543
aF-9.615056037902832
aF-9.576083183288574
aF-9.537269592285156
aF-9.479583740234375
aF-9.45979118347168
aF-9.44063663482666
aF-9.45961856842041
aF-9.498885154724121
aF-9.599198341369629
aF-9.717232704162598
aF-9.87682056427002
aF-9.64806079864502
aF-9.366082191467285
aF-9.0493803024292
aF-8.716509819030762
aF-8.357537269592285
aF-7.970867156982422
aF-7.573409557342529
aF-7.157092571258545
aF-6.769431114196777
aF-6.365014553070068
aF-6.017369747161865
aF-5.665806770324707
aF-5.390379905700684
aF-5.169107913970947
aF-4.9923095703125
aF-4.872489929199219
aF-4.813488960266113
aF-4.798788070678711
aF-4.838627815246582
aF-4.941336631774902
aF-5.069977283477783
aF-5.278656482696533
aF-5.51706075668335
aF-5.847415447235107
aF-6.188521385192871
aF-6.616922855377197
aF-7.173461437225342
aF-7.673099994659424
aF-8.394954681396484
aF-9.070711135864258
aF-9.859665870666504
aF-9.27727222442627
aF-8.42639446258545
aF-7.614408493041992
aF-6.8484787940979
aF-6.1095805168151855
aF-5.380854606628418
aF-4.781193256378174
aF-4.258482456207275
aF-3.822760820388794
aF-3.4641923904418945
aF-3.1945836544036865
aF-3.008402109146118
aF-2.8891940116882324
aF-2.831188201904297
aF-2.8489651679992676
aF-2.9522736072540283
aF-3.102003574371338
aF-3.3640975952148438
aF-3.705484628677368
aF-4.107301712036133
aF-4.644282341003418
aF-5.122763633728027
aF-5.8637285232543945
aF-6.547874927520752
aF-7.330979347229004
aF-8.221477508544922
aF-9.163288116455078
aF-10.057846069335938
aF-9.026368141174316
aF-8.025182723999023
aF-7.093143939971924
aF-6.2564311027526855
aF-5.503284454345703
aF-4.772296905517578
aF-4.133978843688965
aF-3.6108264923095703
aF-3.1757304668426514
aF-2.846769332885742
aF-2.587963819503784
aF-2.386624336242676
aF-2.253262519836426
aF-2.195744752883911
aF-2.192941427230835
aF-2.242230176925659
aF-2.355640172958374
aF-2.51039981842041
aF-2.7720158100128174
aF-3.0302278995513916
aF-3.4450442790985107
aF-3.927022695541382
aF-4.446674346923828
aF-5.112515449523926
aF-5.796902179718018
aF-6.666271686553955
aF-7.756365776062012
aF-8.693568229675293
aF-9.92604923248291
aF-9.330182075500488
aF-8.209579467773438
aF-7.139687538146973
aF-6.176949501037598
aF-5.3090949058532715
aF-4.557918071746826
aF-3.8755314350128174
aF-3.3437488079071045
aF-2.892702579498291
aF-2.5158352851867676
aF-2.2348077297210693
aF-2.033031940460205
aF-1.8948537111282349
aF-1.8321495056152344
aF-1.8205000162124634
aF-1.865262508392334
aF-1.9574371576309204
aF-2.090928316116333
aF-2.3082728385925293
aF-2.5816965103149414
aF-2.910170078277588
aF-3.3752360343933105
aF-3.9157943725585938
aF-4.5413923263549805
aF-5.2928996086120605
aF-6.076996803283691
aF-6.959261894226074
aF-7.828401565551758
aF-9.153665542602539
aF-10.158488273620605
aF-9.045024871826172
aF-8.034952163696289
aF-7.043242454528809
aF-6.069423198699951
aF-5.224531173706055
aF-4.477017879486084
aF-3.878633737564087
aF-3.3290131092071533
aF-2.8962488174438477
aF-2.530269145965576
aF-2.244617462158203
aF-2.0437419414520264
aF-1.9065488576889038
aF-1.8327302932739258
aF-1.8123130798339844
aF-1.836680293083191
aF-1.9117543697357178
aF-2.035712480545044
aF-2.226196527481079
aF-2.488720178604126
aF-2.7993171215057373
aF-3.2094273567199707
aF-3.7988851070404053
aF-4.253468990325928
aF-5.0182294845581055
aF-5.792169094085693
aF-6.628310680389404
aF-7.705077648162842
aF-8.871929168701172
aF-9.813004493713379
aF-9.330377578735352
aF-8.145322799682617
aF-7.047878265380859
aF-6.051119327545166
aF-5.120484828948975
aF-4.370810031890869
aF-3.7051150798797607
aF-3.125945568084717
aF-2.6680493354797363
aF-2.30755352973938
aF-2.031306743621826
aF-1.8387043476104736
aF-1.6923145055770874
aF-1.5935561656951904
aF-1.5603514909744263
aF-1.575465440750122
aF-1.6430888175964355
aF-1.7603117227554321
aF-1.950719952583313
aF-2.1668336391448975
aF-2.468865394592285
aF-2.8560922145843506
aF-3.3402419090270996
aF-3.8755078315734863
aF-4.577165603637695
aF-5.316483020782471
aF-6.2186079025268555
aF-7.110109806060791
aF-8.190329551696777
aF-9.126516342163086
aF-10.035120964050293
aF-8.830611228942871
aF-7.714330673217773
aF-6.720634460449219
aF-4.944232940673828
aF-10.851618766784668
aF-9.850159645080566
aF-9.8503999710083
aF-9.791718482971191
aF-9.752068519592285
aF-9.751742362976074
aF-9.751704216003418
aF-9.772067070007324
aF-9.810988426208496
aF-9.852484703063965
aF-9.736042976379395
aF-9.618692398071289
aF-9.450581550598145
aF-9.22568416595459
aF-8.99813461303711
aF-8.724411010742188
aF-8.404009819030762
aF-8.037687301635742
aF-7.696260929107666
aF-7.341923713684082
aF-7.003606796264648
aF-6.664102554321289
aF-6.3532538414001465
aF-6.080776214599609
aF-5.820684909820557
aF-5.603054523468018
aF-5.409305572509766
aF-5.270689487457275
aF-5.17982292175293
aF-5.1336774826049805
aF-5.133612632751465
aF-5.17743444442749
aF-5.265964508056641
aF-5.415915489196777
aF-5.612355709075928
aF-5.825235366821289
aF-6.112270832061768
aF-6.471752166748047
aF-6.888655662536621
aF-7.348790645599365
aF-7.92887020111084
aF-8.502389907836914
aF-9.299531936645508
aF-9.945165634155273
aF-9.145289421081543
aF-8.382429122924805
aF-7.596401691436768
aF-6.7928290367126465
aF-6.040229797363281
aF-5.386915683746338
aF-4.840612411499023
aF-4.349098205566406
aF-3.9085464477539062
aF-3.559347152709961
aF-3.288336753845215
aF-3.1140453815460205
aF-2.988623857498169
aF-2.936964273452759
aF-2.9460456371307373
aF-3.0247199535369873
aF-3.166579484939575
aF-3.3730456829071045
aF-3.663815975189209
aF-4.063812732696533
aF-4.505836486816406
aF-5.073338031768799
aF-5.6980743408203125
aF-6.3590168952941895
aF-7.14761209487915
aF-8.000483512878418
aF-8.883893013000488
aF-9.872156143188477
aF-9.334306716918945
aF-8.367328643798828
aF-7.428564548492432
aF-6.521309852600098
aF-5.717240333557129
aF-5.012549877166748
aF-4.390924453735352
aF-3.827547311782837
aF-3.345794677734375
aF-2.968543291091919
aF-2.678102970123291
aF-2.457993268966675
aF-2.3115196228027344
aF-2.2269551753997803
aF-2.20314884185791
aF-2.241661787033081
aF-2.3324835300445557
aF-2.4789581298828125
aF-2.684197425842285
aF-2.9851958751678467
aF-3.33670711517334
aF-3.7747557163238525
aF-4.324625015258789
aF-4.974343776702881
aF-5.7198333740234375
aF-6.455544948577881
aF-7.3784589767456055
aF-8.453388214111328
aF-9.486956596374512
aF-9.737127304077148
aF-8.600805282592773
aF-7.471210956573486
aF-6.480274200439453
aF-5.5715250968933105
aF-4.7757158279418945
aF-4.059016227722168
aF-3.493220567703247
aF-2.9735143184661865
aF-2.5844666957855225
aF-2.279005289077759
aF-2.0514514446258545
aF-1.8838030099868774
aF-1.7790181636810303
aF-1.7234755754470825
aF-1.7202128171920776
aF-1.7638816833496094
aF-1.8447250127792358
aF-1.9754042625427246
aF-2.1614866256713867
aF-2.4065864086151123
aF-2.717862844467163
aF-3.174128293991089
aF-3.6049437522888184
aF-4.204017639160156
aF-4.878399848937988
aF-5.636800289154053
aF-6.496923446655273
aF-7.5801825523376465
aF-8.465714454650879
aF-9.603357315063477
aF-9.591150283813477
aF-8.462979316711426
aF-7.437831878662109
aF-6.46823787689209
aF-5.6010661125183105
aF-4.80814266204834
aF-4.108626842498779
aF-3.5467753410339355
aF-3.0483124256134033
aF-2.6631336212158203
aF-2.367790699005127
aF-2.131277561187744
aF-1.9626874923706055
aF-1.856020450592041
aF-1.7983561754226685
aF-1.803602695465088
aF-1.8577016592025757
aF-1.9603091478347778
aF-2.115039587020874
aF-2.3406033515930176
aF-2.626206874847412
aF-3.001399517059326
aF-3.417912483215332
aF-3.9366447925567627
aF-4.558317184448242
aF-5.34393835067749
aF-6.171810150146484
aF-7.120452880859375
aF-8.16215705871582
aF-9.343576431274414
aF-9.941266059875488
aF-8.769721031188965
aF-7.574361324310303
aF-6.507108688354492
aF-5.571238040924072
aF-4.741395473480225
aF-4.020631313323975
aF-3.387296438217163
aF-2.899501323699951
aF-2.503619432449341
aF-2.1776154041290283
aF-1.9362574815750122
aF-1.7629071474075317
aF-1.6502712965011597
aF-1.594302773475647
aF-1.5737477540969849
aF-1.607054591178894
aF-1.686644434928894
aF-1.8351516723632812
aF-2.0336859226226807
aF-2.3060574531555176
aF-2.6124508380889893
aF-3.0374555587768555
aF-3.502976417541504
aF-4.038333415985107
aF-4.925249099731445
aF-5.665850639343262
aF-6.574727535247803
aF-7.38535737991333
aF-8.6763916015625
aF-9.820795059204102
aF-9.460206985473633
aF-8.363738059997559
aF-7.32214879989624
aF-6.371945858001709
aF-5.475677013397217
aF-4.711880683898926
aF-3.435321092605591
aF-10.851618766784668
aF-9.85027027130127
aF-9.849858283996582
aF-9.791616439819336
aF-9.751901626586914
aF-9.732357025146484
aF-9.732766151428223
aF-9.731902122497559
aF-9.771965980529785
aF-9.851783752441406
aF-9.793978691101074
aF-9.677159309387207
aF-9.542681694030762
aF-9.355274200439453
aF-9.14669132232666
aF-8.907086372375488
aF-8.63297176361084
aF-8.342924118041992
aF-7.998269081115723
aF-7.648559093475342
aF-7.305886745452881
aF-6.984064102172852
aF-6.647328853607178
aF-6.325244426727295
aF-6.014155864715576
aF-5.745487689971924
aF-5.515804290771484
aF-5.320632457733154
aF-5.184197902679443
aF-5.081472873687744
aF-5.036291599273682
aF-5.062448978424072
aF-5.1363701820373535
aF-5.252040863037109
aF-5.400641918182373
aF-5.615508079528809
aF-5.878675937652588
aF-6.235101699829102
aF-6.6444878578186035
aF-7.096532344818115
aF-7.690138816833496
aF-8.296540260314941
aF-9.021327018737793
aF-9.82773494720459
aF-9.39920711517334
aF-8.57616901397705
aF-7.750843524932861
aF-6.961850643157959
aF-6.230375289916992
aF-5.55385160446167
aF-4.963998317718506
aF-4.45267391204834
aF-3.995042324066162
aF-3.629377603530884
aF-3.3548378944396973
aF-3.1531872749328613
aF-3.0299363136291504
aF-2.990264892578125
aF-3.0345852375030518
aF-3.1525402069091797
aF-3.3049020767211914
aF-3.571688652038574
aF-3.890300750732422
aF-4.292660236358643
aF-4.7655792236328125
aF-5.363043785095215
aF-5.974813938140869
aF-6.659245014190674
aF-7.5171637535095215
aF-8.346511840820312
aF-9.286270141601562
aF-9.941285133361816
aF-8.942227363586426
aF-7.962796211242676
aF-7.057211399078369
aF-6.222507476806641
aF-5.455881595611572
aF-4.767486572265625
aF-4.176168918609619
aF-3.662144422531128
aF-3.2258830070495605
aF-2.8890187740325928
aF-2.622206211090088
aF-2.427572250366211
aF-2.307908296585083
aF-2.251218795776367
aF-2.268850803375244
aF-2.328836441040039
aF-2.454927921295166
aF-2.6508445739746094
aF-2.893146276473999
aF-3.2082016468048096
aF-3.691572427749634
aF-4.031749248504639
aF-4.730627059936523
aF-5.553549766540527
aF-6.119001865386963
aF-7.0897216796875
aF-8.077593803405762
aF-9.13875675201416
aF-10.080060958862305
aF-8.924118041992188
aF-7.847049713134766
aF-6.850066184997559
aF-5.889402866363525
aF-5.065054893493652
aF-4.317797660827637
aF-3.6651949882507324
aF-3.1417763233184814
aF-2.687718391418457
aF-2.3835251331329346
aF-2.125063896179199
aF-1.9425392150878906
aF-1.830152153968811
aF-1.7655823230743408
aF-1.7700458765029907
aF-1.8236720561981201
aF-1.936497688293457
aF-2.100261926651001
aF-2.321600914001465
aF-2.62142014503479
aF-2.9422593116760254
aF-3.483566999435425
aF-3.9817302227020264
aF-4.577319145202637
aF-5.325765132904053
aF-6.122509002685547
aF-7.0080461502075195
aF-7.989842891693115
aF-9.10385799407959
aF-10.156990051269531
aF-9.039105415344238
aF-7.985941410064697
aF-6.983346462249756
aF-6.019748210906982
aF-5.179195404052734
aF-4.44105339050293
aF-3.798156976699829
aF-3.2693991661071777
aF-2.85817813873291
aF-2.5093910694122314
aF-2.2448410987854004
aF-2.04703950881958
aF-1.8988583087921143
aF-1.8246612548828125
aF-1.8034706115722656
aF-1.847519040107727
aF-1.930788278579712
aF-2.0758931636810303
aF-2.302046298980713
aF-2.5571937561035156
aF-2.8889012336730957
aF-3.3339881896972656
aF-3.8789730072021484
aF-4.501548767089844
aF-5.2263078689575195
aF-6.040623664855957
aF-6.989837169647217
aF-7.965697288513184
aF-9.247371673583984
aF-10.035024642944336
aF-8.830223083496094
aF-7.696286201477051
aF-6.659558296203613
aF-5.701294422149658
aF-4.861567974090576
aF-4.132885932922363
aF-3.5008158683776855
aF-2.9879167079925537
aF-2.5455329418182373
aF-2.2187271118164062
aF-1.9706575870513916
aF-1.784079909324646
aF-1.6547917127609253
aF-1.5939353704452515
aF-1.5829371213912964
aF-1.6329444646835327
aF-1.731179118156433
aF-1.8766191005706787
aF-2.07818603515625
aF-2.3244709968566895
aF-2.7221364974975586
aF-3.1420788764953613
aF-3.7243239879608154
aF-4.267338752746582
aF-5.061462879180908
aF-5.881791591644287
aF-6.770270824432373
aF-7.824734210968018
aF-8.911128044128418
aF-10.071113586425781
aF-9.196263313293457
aF-8.150553703308105
aF-7.1319780349731445
aF-6.1346025466918945
aF-5.2944183349609375
aF-4.501695156097412
aF-3.807893753051758
aF-3.2850258350372314
a.