(lp0
F-0.010117510333657265
aF-10.812700271606445
aF-9.810463905334473
aF-9.830340385437012
aF-9.851707458496094
aF-9.773147583007812
aF-9.695199966430664
aF-9.579940795898438
aF-9.427837371826172
aF-9.240524291992188
aF-9.032999038696289
aF-8.779327392578125
aF-8.535645484924316
aF-8.253363609313965
aF-7.910745143890381
aF-7.575857639312744
aF-7.238123893737793
aF-6.917267322540283
aF-6.5821380615234375
aF-6.261087417602539
aF-5.976234436035156
aF-5.740001201629639
aF-5.541390419006348
aF-5.38847541809082
aF-5.281772136688232
aF-5.208288669586182
aF-5.190895080566406
aF-5.202113628387451
aF-5.260953426361084
aF-5.397329807281494
aF-5.596607685089111
aF-5.937332630157471
aF-6.3416361808776855
aF-6.959419250488281
aF-7.642548561096191
aF-8.509759902954102
aF-9.310685157775879
aF-9.884779930114746
aF-8.941088676452637
aF-8.030322074890137
aF-7.136424541473389
aF-6.23189115524292
aF-5.438537120819092
aF-4.813023567199707
aF-4.231759548187256
aF-3.750728130340576
aF-3.365187883377075
aF-3.044325828552246
aF-2.8021671772003174
aF-2.63189697265625
aF-2.528332471847534
aF-2.4822936058044434
aF-2.5006606578826904
aF-2.5863986015319824
aF-2.715318441390991
aF-2.9073917865753174
aF-3.135354995727539
aF-3.5032958984375
aF-3.919888973236084
aF-4.452304363250732
aF-5.037510395050049
aF-5.846746921539307
aF-6.707775115966797
aF-7.652127742767334
aF-8.72531509399414
aF-9.89594554901123
aF-9.349517822265625
aF-8.195165634155273
aF-7.013173580169678
aF-5.9334397315979
aF-5.051204681396484
aF-4.254830360412598
aF-3.593536853790283
aF-3.0342657566070557
aF-2.552748441696167
aF-2.1939568519592285
aF-1.8732421398162842
aF-1.638839602470398
aF-1.4645495414733887
aF-1.338653564453125
aF-1.2568782567977905
aF-1.2202719449996948
aF-1.2196474075317383
aF-1.2566897869110107
aF-1.3251540660858154
aF-1.4384441375732422
aF-1.5779017210006714
aF-1.8226420879364014
aF-2.07364559173584
aF-2.4207069873809814
aF-2.8241164684295654
aF-3.341064929962158
aF-4.018162250518799
aF-4.791287422180176
aF-5.4853034019470215
aF-6.644662380218506
aF-7.569035053253174
aF-8.876938819885254
aF-10.34853458404541
aF-8.990949630737305
aF-7.71840763092041
aF-6.5376434326171875
aF-5.47722053527832
aF-4.605534553527832
aF-3.7187931537628174
aF-3.050408124923706
aF-2.507681369781494
aF-2.088888168334961
aF-1.6880099773406982
aF-1.3894898891448975
aF-1.1723768711090088
aF-0.9833841919898987
aF-0.8367434144020081
aF-0.7247207164764404
aF-0.6338553428649902
aF-0.5608149170875549
aF-0.5106573104858398
aF-0.4806179404258728
aF-0.45487043261528015
aF-0.44998934864997864
aF-0.4545430839061737
aF-0.4742341935634613
aF-0.5059555768966675
aF-0.558073103427887
aF-0.6191843748092651
aF-0.7018796801567078
aF-0.8071290254592896
aF-0.918927013874054
aF-1.0855549573898315
aF-1.2673914432525635
aF-1.5023705959320068
aF-1.8060243129730225
aF-2.1354987621307373
aF-2.597446918487549
aF-3.2016539573669434
aF-3.898094892501831
aF-4.68038272857666
aF-5.449737071990967
aF-6.808470726013184
aF-7.428965091705322
aF-8.897542953491211
aF-10.395675659179688
aF-8.95789623260498
aF-7.625116348266602
aF-6.313924789428711
aF-5.1203179359436035
aF-4.229651927947998
aF-3.4713077545166016
aF-2.776965379714966
aF-2.3002328872680664
aF-1.8540676832199097
aF-1.5061566829681396
aF-1.222322702407837
aF-1.0097566843032837
aF-0.8438247442245483
aF-0.711550235748291
aF-0.600048303604126
aF-0.5168405175209045
aF-0.4523860216140747
aF-0.410082072019577
aF-0.3731152415275574
aF-0.3421899080276489
aF-0.3188945949077606
aF-0.299197793006897
aF-0.2820827066898346
aF-0.26849067211151123
aF-0.25150755047798157
aF-0.23820243775844574
aF-0.22509373724460602
aF-0.2138877660036087
aF-0.20236578583717346
aF-0.19780629873275757
aF-0.1923191398382187
aF-0.18933285772800446
aF-0.18104948103427887
aF-0.17684665322303772
aF-0.16968987882137299
aF-0.16071704030036926
aF-0.15777936577796936
aF-0.15137776732444763
aF-0.14596222341060638
aF-0.13718096911907196
aF-0.1306297481060028
aF-0.11869299411773682
aF-0.10683798044919968
aF-0.09212299436330795
aF-0.08006357401609421
aF-0.0698474869132042
aF-0.058023594319820404
aF-0.04880888760089874
aF-0.039821796119213104
aF-0.03232787176966667
aF-0.023936385288834572
aF-0.01591760665178299
aF-0.011002164334058762
aF-0.00808896403759718
aF-0.005022664554417133
aF-0.0033173130359500647
aF-0.003471214324235916
aF-0.0037918442394584417
aF-0.005740727763622999
aF-10.852238655090332
aF-9.849863052368164
aF-9.830239295959473
aF-9.771954536437988
aF-9.694190979003906
aF-9.63532543182373
aF-9.577385902404785
aF-9.518527030944824
aF-9.460811614990234
aF-9.366353988647461
aF-9.270109176635742
aF-9.15661334991455
aF-9.008874893188477
aF-8.841798782348633
aF-8.690483093261719
aF-8.511483192443848
aF-8.296282768249512
aF-8.113100051879883
aF-7.887694358825684
aF-7.661288261413574
aF-7.436883449554443
aF-7.2156147956848145
aF-6.998852729797363
aF-6.8128662109375
aF-6.634155750274658
aF-6.485379219055176
aF-6.35677433013916
aF-6.259895324707031
aF-6.194858074188232
aF-6.178866863250732
aF-6.177326202392578
aF-6.206842422485352
aF-6.254344940185547
aF-6.3514204025268555
aF-6.516515731811523
aF-6.828522682189941
aF-7.2504987716674805
aF-7.683150768280029
aF-8.309465408325195
aF-8.93930435180664
aF-9.715670585632324
aF-9.462132453918457
aF-8.594100952148438
aF-7.796566486358643
aF-6.991854667663574
aF-6.214292049407959
aF-5.523969650268555
aF-4.8646464347839355
aF-4.311698913574219
aF-3.858529567718506
aF-3.4922008514404297
aF-3.1879189014434814
aF-2.964529275894165
aF-2.8193159103393555
aF-2.747845411300659
aF-2.754760503768921
aF-2.8201565742492676
aF-2.972069263458252
aF-3.183983564376831
aF-3.417872190475464
aF-3.8357248306274414
aF-4.278165817260742
aF-4.782212257385254
aF-5.383072853088379
aF-6.034461975097656
aF-6.9044508934021
aF-7.86519193649292
aF-8.992528915405273
aF-10.223475456237793
aF-9.016767501831055
aF-7.908358097076416
aF-6.8909010887146
aF-5.959686279296875
aF-5.0760498046875
aF-4.320655822753906
aF-3.6685407161712646
aF-3.1247713565826416
aF-2.661231517791748
aF-2.3043081760406494
aF-2.0119504928588867
aF-1.7913861274719238
aF-1.6331017017364502
aF-1.524918556213379
aF-1.4624650478363037
aF-1.4518505334854126
aF-1.4818328619003296
aF-1.568598747253418
aF-1.6979964971542358
aF-1.870101809501648
aF-2.1403534412384033
aF-2.4511208534240723
aF-2.824331045150757
aF-3.4016880989074707
aF-3.919374465942383
aF-4.704613208770752
aF-5.366344928741455
aF-6.320139408111572
aF-7.458710193634033
aF-8.788464546203613
aF-10.145437240600586
aF-9.146119117736816
aF-7.863414287567139
aF-6.728860855102539
aF-5.574444770812988
aF-4.682497501373291
aF-3.7769596576690674
aF-3.1122348308563232
aF-2.5126845836639404
aF-2.019415855407715
aF-1.633018970489502
aF-1.338724970817566
aF-1.1219956874847412
aF-0.952089250087738
aF-0.8248528838157654
aF-0.7249464988708496
aF-0.6497811079025269
aF-0.5901485085487366
aF-0.544468879699707
aF-0.5158323645591736
aF-0.4958430528640747
aF-0.48497137427330017
aF-0.4847780168056488
aF-0.4945860803127289
aF-0.514019787311554
aF-0.5373526811599731
aF-0.5845766067504883
aF-0.6281899213790894
aF-0.6868804693222046
aF-0.7755425572395325
aF-0.877485990524292
aF-0.987960159778595
aF-1.1525907516479492
aF-1.380725622177124
aF-1.60955011844635
aF-1.952799677848816
aF-2.296380043029785
aF-2.878654718399048
aF-3.3943138122558594
aF-4.0960001945495605
aF-4.892611980438232
aF-5.849087715148926
aF-6.971038341522217
aF-8.096938133239746
aF-9.615793228149414
aF-9.733912467956543
aF-8.36928939819336
aF-7.04186487197876
aF-5.8323893547058105
aF-4.9040303230285645
aF-3.988024950027466
aF-3.2735424041748047
aF-2.628131866455078
aF-2.131528854370117
aF-1.7355971336364746
aF-1.3851927518844604
aF-1.1315544843673706
aF-0.9144315719604492
aF-0.7563759684562683
aF-0.6193690299987793
aF-0.5205621719360352
aF-0.4395747184753418
aF-0.3675993084907532
aF-0.3188351094722748
aF-0.2835576832294464
aF-0.2630922198295593
aF-0.2512000799179077
aF-0.24170993268489838
aF-0.2328425943851471
aF-0.2223583608865738
aF-0.21166303753852844
aF-0.20100226998329163
aF-0.1892109364271164
aF-0.17581360042095184
aF-0.16715343296527863
aF-0.15320473909378052
aF-0.14186610281467438
aF-0.13002830743789673
aF-0.11839649081230164
aF-0.11009988188743591
aF-0.10374413430690765
aF-0.09774109721183777
aF-0.09017568826675415
aF-0.0831582248210907
aF-0.07481763511896133
aF-0.06587020307779312
aF-0.059100814163684845
aF-0.052027441561222076
aF-0.046607453376054764
aF-0.04188550263643265
aF-0.03963812068104744
aF-0.040699124336242676
aF-0.04300019145011902
aF-0.04696650803089142
aF-0.04702388495206833
aF-0.05099695175886154
aF-0.045713409781455994
aF-0.04249120503664017
aF-0.037626031786203384
aF-0.03198092803359032
aF-0.020807631313800812
aF-10.871864318847656
aF-9.869725227355957
aF-9.86965274810791
aF-9.811448097229004
aF-9.71491527557373
aF-9.617626190185547
aF-9.50212287902832
aF-9.387425422668457
aF-9.236015319824219
aF-9.08430290222168
aF-8.866867065429688
aF-8.658833503723145
aF-8.4117431640625
aF-8.15815544128418
aF-7.894885063171387
aF-7.603877544403076
aF-7.311922073364258
aF-7.000699520111084
aF-6.701883316040039
aF-6.425930500030518
aF-6.145698070526123
aF-5.91889762878418
aF-5.7067766189575195
aF-5.523937225341797
aF-5.399789333343506
aF-5.309179782867432
aF-5.278284549713135
aF-5.2779221534729
aF-5.3031840324401855
aF-5.377678394317627
aF-5.514659404754639
aF-5.768969535827637
aF-6.106369495391846
aF-6.599710941314697
aF-7.231464862823486
aF-7.9205732345581055
aF-8.802677154541016
aF-9.617681503295898
aF-9.564179420471191
aF-8.666402816772461
aF-7.812011241912842
aF-6.966414928436279
aF-6.171263694763184
aF-5.463516712188721
aF-4.808256149291992
aF-4.224237442016602
aF-3.740534543991089
aF-3.3428874015808105
aF-3.022732734680176
aF-2.76816987991333
aF-2.5905869007110596
aF-2.4804601669311523
aF-2.4335265159606934
aF-2.4516725540161133
aF-2.5252699851989746
aF-2.654082775115967
aF-2.871605634689331
aF-3.1207478046417236
aF-3.44665265083313
aF-3.9082136154174805
aF-4.406692028045654
aF-5.083299160003662
aF-5.72037410736084
aF-6.527328968048096
aF-7.366820335388184
aF-8.500377655029297
aF-9.614808082580566
aF-9.607575416564941
aF-8.419124603271484
aF-7.230485439300537
aF-6.203622817993164
aF-5.286426544189453
aF-4.3921027183532715
aF-3.644803524017334
aF-3.0945186614990234
aF-2.5818355083465576
aF-2.1952829360961914
aF-1.8812757730484009
aF-1.6476837396621704
aF-1.4716908931732178
aF-1.3452202081680298
aF-1.2637302875518799
aF-1.222208857536316
aF-1.2189233303070068
aF-1.257097840309143
aF-1.3262174129486084
aF-1.4394409656524658
aF-1.587949514389038
aF-1.792938470840454
aF-2.0281968116760254
aF-2.3516948223114014
aF-2.779820680618286
aF-3.247760057449341
aF-3.933364152908325
aF-4.586851119995117
aF-5.41085147857666
aF-6.30475378036499
aF-7.2192063331604
aF-8.50290298461914
aF-9.796399116516113
aF-9.461260795593262
aF-8.173059463500977
aF-6.994571208953857
aF-5.953160285949707
aF-5.0375189781188965
aF-4.23129940032959
aF-3.494657278060913
aF-2.9002575874328613
aF-2.4206910133361816
aF-2.0003137588500977
aF-1.6873784065246582
aF-1.4380170106887817
aF-1.238816738128662
aF-1.0856177806854248
aF-0.9756686687469482
aF-0.9055355191230774
aF-0.8613982796669006
aF-0.8342339396476746
aF-0.8284084796905518
aF-0.8382554650306702
aF-0.8772983551025391
aF-0.9432618021965027
aF-1.0298484563827515
aF-1.160905361175537
aF-1.3159699440002441
aF-1.5278289318084717
aF-1.757858157157898
aF-2.0956380367279053
aF-2.516270399093628
aF-2.9648940563201904
aF-3.492206335067749
aF-4.2093095779418945
aF-5.101930141448975
aF-5.963144779205322
aF-7.1615753173828125
aF-8.381235122680664
aF-9.624388694763184
aF-9.580048561096191
aF-8.138877868652344
aF-6.898324966430664
aF-5.787491321563721
aF-4.7630486488342285
aF-3.9394943714141846
aF-3.208432197570801
aF-2.579421043395996
aF-2.1053476333618164
aF-1.703376293182373
aF-1.3666367530822754
aF-1.1375539302825928
aF-0.9400521516799927
aF-0.7886031866073608
aF-0.6674844622612
aF-0.577649712562561
aF-0.5050032734870911
aF-0.45437002182006836
aF-0.41180405020713806
aF-0.3761296570301056
aF-0.34802383184432983
aF-0.3270373046398163
aF-0.3085218667984009
aF-0.2935040593147278
aF-0.27931684255599976
aF-0.2680186331272125
aF-0.26064544916152954
aF-0.25158950686454773
aF-0.25047484040260315
aF-0.2465704083442688
aF-0.2472754567861557
aF-0.2472754567861557
aF-0.2472754567861557
aF-0.2472754567861557
aF-0.24359215795993805
aF-0.2384297400712967
aF-0.23512761294841766
aF-0.22799529135227203
aF-0.21894042193889618
aF-0.21035273373126984
aF-0.20293870568275452
aF-0.19780629873275757
aF-0.19192390143871307
aF-0.18955010175704956
aF-0.1860547512769699
aF-0.18252085149288177
aF-0.18387307226657867
aF-0.18197038769721985
aF-0.18387307226657867
aF-0.1803087592124939
aF-0.1760997772216797
aF-0.17115838825702667
aF-0.16469179093837738
aF-0.1547473669052124
aF-0.147572323679924
aF-0.13455910980701447
aF-0.1200033500790596
aF-0.10666032880544662
aF-0.09172133356332779
aF-0.0778108537197113
aF-0.06311152130365372
aF-0.04912933334708214
a.