(lp0
F-3.9473798274993896
aF-10.851153373718262
aF-9.850083351135254
aF-9.830830574035645
aF-9.792016983032227
aF-9.714890480041504
aF-9.599206924438477
aF-9.447660446166992
aF-9.276339530944824
aF-9.071134567260742
aF-8.816640853881836
aF-8.526732444763184
aF-8.205194473266602
aF-7.871133327484131
aF-7.527307033538818
aF-7.174035549163818
aF-6.812692642211914
aF-6.483750343322754
aF-6.168712615966797
aF-5.884842872619629
aF-5.650302886962891
aF-5.452146530151367
aF-5.27532958984375
aF-5.154658794403076
aF-5.093459129333496
aF-5.076481819152832
aF-5.102553844451904
aF-5.190964698791504
aF-5.324640274047852
aF-5.5572404861450195
aF-5.949567794799805
aF-6.445565700531006
aF-7.064968109130859
aF-7.771127700805664
aF-8.745562553405762
aF-9.68777084350586
aF-9.544817924499512
aF-8.531079292297363
aF-7.562142372131348
aF-6.753687381744385
aF-5.943051815032959
aF-5.1733856201171875
aF-4.538161277770996
aF-4.001686096191406
aF-3.55082368850708
aF-3.1871402263641357
aF-2.899170160293579
aF-2.6886744499206543
aF-2.561152219772339
aF-2.5019595623016357
aF-2.509875774383545
aF-2.5855979919433594
aF-2.7156600952148438
aF-2.950050115585327
aF-3.2283763885498047
aF-3.5853707790374756
aF-4.025325298309326
aF-4.555091381072998
aF-5.192852020263672
aF-5.948318958282471
aF-6.759219646453857
aF-7.848217487335205
aF-9.128504753112793
aF-10.119388580322266
aF-8.857991218566895
aF-7.7591423988342285
aF-6.68846321105957
aF-5.676280498504639
aF-4.848400115966797
aF-4.116467475891113
aF-3.456944704055786
aF-2.922553062438965
aF-2.498940944671631
aF-2.148393392562866
aF-1.8829128742218018
aF-1.6704390048980713
aF-1.5102312564849854
aF-1.4102890491485596
aF-1.358048439025879
aF-1.340050220489502
aF-1.3703505992889404
aF-1.4346638917922974
aF-1.5436644554138184
aF-1.7001230716705322
aF-1.8858696222305298
aF-2.191772937774658
aF-2.505019187927246
aF-2.962644338607788
aF-3.4189364910125732
aF-4.084611415863037
aF-4.768580436706543
aF-5.636676788330078
aF-6.671974182128906
aF-7.721990585327148
aF-9.005559921264648
aF-10.276381492614746
aF-8.900053977966309
aF-7.544435024261475
aF-6.421331882476807
aF-5.393368721008301
aF-4.465346813201904
aF-3.7520639896392822
aF-3.0383782386779785
aF-2.474644660949707
aF-2.027188301086426
aF-1.7145321369171143
aF-1.450927734375
aF-1.254332184791565
aF-1.1073554754257202
aF-1.0151028633117676
aF-0.9628048539161682
aF-0.9346662759780884
aF-0.9338256120681763
aF-0.9595347046852112
aF-1.0125242471694946
aF-1.105934977531433
aF-1.2224479913711548
aF-1.3876378536224365
aF-1.5925253629684448
aF-1.8736578226089478
aF-2.1875457763671875
aF-2.5895097255706787
aF-3.135451555252075
aF-3.7033591270446777
aF-4.48025369644165
aF-5.365773677825928
aF-6.276301860809326
aF-7.26270866394043
aF-8.502835273742676
aF-10.056347846984863
aF-9.288954734802246
aF-7.9526047706604
aF-6.770449638366699
aF-5.777770042419434
aF-4.803719997406006
aF-3.98915958404541
aF-3.295013666152954
aF-2.7182765007019043
aF-2.2569079399108887
aF-1.8760946989059448
aF-1.5849281549453735
aF-1.3474689722061157
aF-1.1742019653320312
aF-1.0497515201568604
aF-0.9689522981643677
aF-0.925263524055481
aF-0.9082221388816833
aF-0.9161983132362366
aF-0.9480376839637756
aF-1.0163905620574951
aF-1.098098874092102
aF-1.224956750869751
aF-1.3983932733535767
aF-1.6380702257156372
aF-1.8935174942016602
aF-2.277740716934204
aF-2.641373634338379
aF-3.2192108631134033
aF-3.8916497230529785
aF-4.611635684967041
aF-5.4212727546691895
aF-6.492175579071045
aF-7.617227554321289
aF-8.809985160827637
aF-10.289095878601074
aF-9.050965309143066
aF-7.775262355804443
aF-6.557531833648682
aF-5.508594036102295
aF-4.580173969268799
aF-3.7671570777893066
aF-3.122793436050415
aF-2.5130035877227783
aF-2.0732128620147705
aF-1.7281811237335205
aF-1.4483630657196045
aF-1.2384659051895142
aF-1.0846083164215088
aF-0.9807116389274597
aF-0.9132090210914612
aF-0.8753181099891663
aF-0.8684551119804382
aF-0.8806025385856628
aF-0.9265592694282532
aF-0.9923728704452515
aF-1.090057134628296
aF-1.2117294073104858
aF-1.3515938520431519
aF-1.5862020254135132
aF-1.8431828022003174
aF-2.1762757301330566
aF-2.5528268814086914
aF-3.0464255809783936
aF-3.6957550048828125
aF-4.396049499511719
aF-5.172095775604248
aF-6.231273174285889
aF-7.109051704406738
aF-8.451436996459961
aF-9.73177433013916
a.