(lp0
F-0.11794567853212357
aF-10.812165260314941
aF-9.81045913696289
aF-9.830239295959473
aF-9.869949340820312
aF-9.792351722717285
aF-9.732743263244629
aF-9.673998832702637
aF-9.615461349487305
aF-9.576083183288574
aF-9.537238121032715
aF-9.498467445373535
aF-9.498309135437012
aF-9.517760276794434
aF-9.537242889404297
aF-9.59705924987793
aF-9.674761772155762
aF-9.795685768127441
aF-9.797446250915527
aF-9.60744857788086
aF-9.378813743591309
aF-9.099237442016602
aF-8.787727355957031
aF-8.428657531738281
aF-8.055794715881348
aF-7.633420467376709
aF-7.2331438064575195
aF-6.838695049285889
aF-6.46315336227417
aF-6.091054916381836
aF-5.770968437194824
aF-5.4965362548828125
aF-5.257692813873291
aF-5.064896583557129
aF-4.9182515144348145
aF-4.829547882080078
aF-4.784449577331543
aF-4.7840118408203125
aF-4.82310676574707
aF-4.939104080200195
aF-5.131710529327393
aF-5.404775619506836
aF-5.882389545440674
aF-6.415232181549072
aF-7.13295841217041
aF-7.9835309982299805
aF-8.776223182678223
aF-9.94000244140625
aF-9.288140296936035
aF-8.271417617797852
aF-7.31790828704834
aF-6.405581474304199
aF-5.5606279373168945
aF-4.8436279296875
aF-4.221185684204102
aF-3.683037519454956
aF-3.2410354614257812
aF-2.878100633621216
aF-2.6132256984710693
aF-2.405670166015625
aF-2.2565205097198486
aF-2.179354667663574
aF-2.163994073867798
aF-2.2032525539398193
aF-2.339838981628418
aF-2.4793007373809814
aF-2.7665960788726807
aF-3.046816110610962
aF-3.543220281600952
aF-4.138161659240723
aF-4.830628395080566
aF-5.878538131713867
aF-7.0032124519348145
aF-8.40792179107666
aF-9.791925430297852
aF-9.478254318237305
aF-7.925189018249512
aF-6.674935340881348
aF-5.579232215881348
aF-4.430089473724365
aF-3.6607391834259033
aF-2.966984748840332
aF-2.3949787616729736
aF-1.8954941034317017
aF-1.5131968259811401
aF-1.2269558906555176
aF-0.9887077212333679
aF-0.7981194853782654
aF-0.6609135270118713
aF-0.5554953813552856
aF-0.47789308428764343
aF-0.42392873764038086
aF-0.3892780542373657
aF-0.3762674629688263
aF-0.3709051012992859
aF-0.37965357303619385
aF-0.38669028878211975
aF-0.40360474586486816
aF-0.41935300827026367
aF-0.43647828698158264
aF-0.46340957283973694
aF-0.500605046749115
aF-0.5484073758125305
aF-0.5951778292655945
aF-0.658820629119873
aF-0.743126630783081
aF-0.8344638347625732
aF-0.9740514755249023
aF-1.1267412900924683
aF-1.3522002696990967
aF-1.5531530380249023
aF-1.8724230527877808
aF-2.2720794677734375
aF-2.730510711669922
aF-3.360745429992676
aF-4.0414581298828125
aF-4.9483489990234375
aF-6.179235458374023
aF-7.525486946105957
aF-9.0638427734375
aF-10.35080337524414
aF-8.681265830993652
aF-7.199247360229492
aF-5.934312343597412
aF-4.742130756378174
aF-3.7610480785369873
aF-2.9090449810028076
aF-2.2639195919036865
aF-1.7389713525772095
aF-1.3139433860778809
aF-0.9852724671363831
aF-0.7230290770530701
aF-0.5317733287811279
aF-0.39647260308265686
aF-0.2834029793739319
aF-0.2097533643245697
aF-0.16316215693950653
aF-0.1375017762184143
aF-0.12619076669216156
aF-0.11723057180643082
aF-0.11516185849905014
aF-0.11362975835800171
aF-0.11157803982496262
aF-0.10761502385139465
aF-0.10508623719215393
aF-0.09857270866632462
aF-0.09551083296537399
aF-0.08926624804735184
aF-0.08476883172988892
aF-0.07980599254369736
aF-0.07454819977283478
aF-0.06946079432964325
aF-0.06602447479963303
aF-0.06115638092160225
aF-0.05894339829683304
aF-0.05458418279886246
aF-0.05164790526032448
aF-0.04777142032980919
aF-0.04374571889638901
aF-0.04034481942653656
aF-0.03587682545185089
aF-0.03208087012171745
aF-0.02921644225716591
aF-0.026081576943397522
aF-0.024296965450048447
aF-0.02301722578704357
aF-0.022044798359274864
aF-0.022460635751485825
aF-0.022950204089283943
aF-0.022234102711081505
aF-0.02184762805700302
aF-0.021479643881320953
aF-0.020630717277526855
aF-0.020301571115851402
aF-0.018428007140755653
aF-0.01848394237458706
aF-0.01588802970945835
aF-0.014274940825998783
aF-0.0123265590518713
aF-0.010393232107162476
aF-0.008555764332413673
aF-0.006985857151448727
aF-0.005610689986497164
aF-0.004471111111342907
aF-0.003942272160202265
aF-0.0029540169052779675
aF-0.0026429605204612017
aF-0.002298898296430707
aF-0.0017987566534429789
aF-0.0015785498544573784
aF-0.0008907624869607389
aF-0.0007509920396842062
aF-0.0006341925472952425
aF-0.0009594423463568091
aF-0.0020093007478863
aF-0.0015971125103533268
aF-0.001767520559951663
aF-0.001737635931931436
aF-0.0023896319326013327
aF-0.0019774632528424263
aF-0.0021084891632199287
aF-10.851113319396973
aF-9.849869728088379
aF-9.850190162658691
aF-9.850892066955566
aF-9.792784690856934
aF-9.695748329162598
aF-9.598773002624512
aF-9.429729461669922
aF-9.258034706115723
aF-9.051335334777832
aF-8.780763626098633
aF-8.504735946655273
aF-8.187345504760742
aF-7.881525993347168
aF-7.530830383300781
aF-7.212588310241699
aF-6.887860298156738
aF-6.600608825683594
aF-6.305081844329834
aF-6.059184551239014
aF-5.895179271697998
aF-5.717568874359131
aF-5.603550434112549
aF-5.528339385986328
aF-5.481591701507568
aF-5.480090141296387
aF-5.522889614105225
aF-5.5984110832214355
aF-5.738057613372803
aF-5.997105598449707
aF-6.34072208404541
aF-6.8426513671875
aF-7.461707592010498
aF-8.11900520324707
aF-8.919391632080078
aF-9.718295097351074
aF-9.429404258728027
aF-8.510808944702148
aF-7.632867336273193
aF-6.799670219421387
aF-6.036151885986328
aF-5.337852478027344
aF-4.746474266052246
aF-4.2055792808532715
aF-3.7505314350128174
aF-3.406081438064575
aF-3.1388940811157227
aF-2.938920259475708
aF-2.816903829574585
aF-2.7770028114318848
aF-2.7829301357269287
aF-2.8731234073638916
aF-3.0495269298553467
aF-3.31835675239563
aF-3.7591381072998047
aF-4.383939743041992
aF-5.1975812911987305
aF-6.158553600311279
aF-7.493471622467041
aF-8.592466354370117
aF-10.323294639587402
aF-9.08229923248291
aF-7.694275379180908
aF-6.485500812530518
aF-5.379810810089111
aF-4.439760684967041
aF-3.6149349212646484
aF-2.9462947845458984
aF-2.41054105758667
aF-1.935727834701538
aF-1.5873216390609741
aF-1.2877424955368042
aF-1.0636738538742065
aF-0.8935248255729675
aF-0.7557122707366943
aF-0.6623372435569763
aF-0.6022157669067383
aF-0.5626740455627441
aF-0.5355695486068726
aF-0.5247403979301453
aF-0.5199824571609497
aF-0.5360363721847534
aF-0.5595505833625793
aF-0.6084129810333252
aF-0.666842520236969
aF-0.7307165861129761
aF-0.8287196159362793
aF-0.9303378462791443
aF-1.0939934253692627
aF-1.281208872795105
aF-1.4927313327789307
aF-1.7918673753738403
aF-2.1416447162628174
aF-2.597228765487671
aF-3.061497449874878
aF-3.790050745010376
aF-4.5029377937316895
aF-5.630265712738037
aF-6.840014457702637
aF-8.352452278137207
aF-9.923439025878906
aF-9.475943565368652
aF-7.888227939605713
aF-6.509706974029541
aF-5.280921459197998
aF-4.271705150604248
aF-3.385897159576416
aF-2.6901938915252686
aF-2.088435649871826
aF-1.5947625637054443
aF-1.2114667892456055
aF-0.9227697849273682
aF-0.6939510703086853
aF-0.5307152271270752
aF-0.40278345346450806
aF-0.30847740173339844
aF-0.2520112991333008
aF-0.21304965019226074
aF-0.1925472468137741
aF-0.17916592955589294
aF-0.17610841989517212
aF-0.17487439513206482
aF-0.17867393791675568
aF-0.17944248020648956
aF-0.1810838133096695
aF-0.17597496509552002
aF-0.17537921667099
aF-0.17295955121517181
aF-0.1697443127632141
aF-0.16376572847366333
aF-0.1591632068157196
aF-0.1522335261106491
aF-0.14711159467697144
aF-0.1423175036907196
aF-0.1363699585199356
aF-0.13059651851654053
aF-0.12311951071023941
aF-0.11500033736228943
aF-0.1084446907043457
aF-0.10251770168542862
aF-0.09961965680122375
aF-0.09851909428834915
aF-0.09888120740652084
aF-0.10181023180484772
aF-0.10193605720996857
aF-0.10074605792760849
aF-0.09874709695577621
aF-0.09476608037948608
aF-0.0900251567363739
aF-0.08787792176008224
aF-0.0837230533361435
aF-0.07635414600372314
aF-0.07135394960641861
aF-0.0648539811372757
aF-0.05826739966869354
aF-0.051923491060733795
aF-0.045841705054044724
aF-0.04143080487847328
aF-0.037752218544483185
aF-0.03631093353033066
aF-0.035225193947553635
aF-0.03437051177024841
aF-0.034779854118824005
aF-0.03567802160978317
aF-0.03932495787739754
aF-0.03994523733854294
aF-0.04074247553944588
aF-0.03799402341246605
aF-0.0343782939016819
aF-0.030095720663666725
aF-0.025035005062818527
aF-0.020550737157464027
aF-0.016560200601816177
aF-0.012944518588483334
aF-0.012561813928186893
aF-0.011976008303463459
aF-0.013274731114506721
aF-0.012803279794752598
aF-0.013399743475019932
aF-0.012845934368669987
aF-0.0131808090955019
aF-0.013814079575240612
aF-0.014117708429694176
aF-0.014896492473781109
aF-0.014246624894440174
aF-0.012472431175410748
aF-0.011177410371601582
aF-0.009706545621156693
aF-0.008133433759212494
aF-0.007361939642578363
aF-0.007291176822036505
aF-0.007365082856267691
aF-0.008462649770081043
aF-0.007334799040108919
aF-0.007741618435829878
aF-0.0064605483785271645
aF-0.006049515679478645
aF-0.005598246585577726
aF-0.004901309497654438
aF-0.0028459348250180483
aF-10.831389427185059
aF-9.830322265625
aF-9.830224990844727
aF-9.850791931152344
aF-9.773198127746582
aF-9.695636749267578
aF-9.58044719696045
aF-9.464134216308594
aF-9.295330047607422
aF-9.090598106384277
aF-8.850299835205078
aF-8.594724655151367
aF-8.277310371398926
aF-7.956827163696289
aF-7.600371360778809
aF-7.2279863357543945
aF-6.8744707107543945
aF-6.52330207824707
aF-6.198890209197998
aF-5.914662837982178
aF-5.6552581787109375
aF-5.452121257781982
aF-5.2872633934021
aF-5.192963600158691
aF-5.134103298187256
aF-5.144948959350586
aF-5.218629837036133
aF-5.3699164390563965
aF-5.637210845947266
aF-6.026106834411621
aF-6.546554088592529
aF-7.188032627105713
aF-8.019322395324707
aF-8.85832691192627
aF-9.786447525024414
aF-9.410133361816406
aF-8.456796646118164
aF-7.540294170379639
aF-6.663484573364258
aF-5.84430456161499
aF-5.117575168609619
aF-4.491690158843994
aF-3.9402759075164795
aF-3.4688429832458496
aF-3.11513352394104
aF-2.8386430740356445
aF-2.636540174484253
aF-2.512061357498169
aF-2.4445736408233643
aF-2.4418766498565674
aF-2.5003578662872314
aF-2.618472099304199
aF-2.7955682277679443
aF-3.1280994415283203
aF-3.624950885772705
aF-4.31087589263916
aF-5.168652057647705
aF-6.298376083374023
aF-7.424656867980957
aF-8.887242317199707
aF-10.456232070922852
aF-8.916264533996582
aF-7.570559501647949
aF-6.2126688957214355
aF-5.130904197692871
aF-4.181158542633057
aF-3.362006902694702
aF-2.6769819259643555
aF-2.150744915008545
aF-1.7120907306671143
aF-1.356526494026184
aF-1.085700511932373
aF-0.8787441849708557
aF-0.7090237736701965
aF-0.5818901658058167
aF-0.4896112382411957
aF-0.41965290904045105
aF-0.37457507848739624
aF-0.34871092438697815
aF-0.3316938579082489
aF-0.3268990218639374
aF-0.3270297348499298
aF-0.3266425132751465
aF-0.3269810378551483
aF-0.33021366596221924
aF-0.3375515639781952
aF-0.33928990364074707
aF-0.3536463677883148
aF-0.36289411783218384
aF-0.38498663902282715
aF-0.41515666246414185
aF-0.44885963201522827
aF-0.49375903606414795
aF-0.5460287928581238
aF-0.6109568476676941
aF-0.6907392144203186
aF-0.7956495881080627
aF-0.9061822295188904
aF-1.0836447477340698
aF-1.2600754499435425
aF-1.5218578577041626
aF-1.8589853048324585
aF-2.2188880443573
aF-2.7357804775238037
aF-3.359379529953003
aF-4.097123622894287
aF-5.051425457000732
aF-6.254194736480713
aF-7.515384197235107
aF-9.411511421203613
aF-10.13496208190918
aF-8.482816696166992
aF-7.10259485244751
aF-5.719165802001953
aF-4.562900066375732
aF-3.613224744796753
aF-2.7823591232299805
aF-2.212174654006958
aF-1.633946180343628
aF-1.2679145336151123
aF-0.8950142860412598
aF-0.6645065546035767
aF-0.49568891525268555
aF-0.3497263193130493
aF-0.24151970446109772
aF-0.17632754147052765
aF-0.13262499868869781
aF-0.10937264561653137
aF-0.1017584353685379
aF-0.1046796441078186
aF-0.11001177877187729
aF-0.12056901305913925
aF-0.12019482254981995
aF-0.1212821900844574
aF-0.11625301837921143
aF-0.11267579346895218
aF-0.10798996686935425
aF-0.10471861809492111
aF-0.09969046711921692
aF-0.09751468151807785
aF-0.09046623110771179
aF-0.08704806864261627
aF-0.08253784477710724
aF-0.08026157319545746
aF-0.07898677885532379
aF-0.07562343776226044
aF-0.07478592544794083
aF-0.07104258239269257
aF-0.0678727775812149
aF-0.06461238116025925
aF-0.05927080661058426
aF-0.05444583296775818
aF-0.048740386962890625
aF-0.0431668683886528
aF-0.03888024389743805
aF-0.035228244960308075
aF-0.03387422487139702
aF-0.03543103113770485
aF-0.03633224219083786
aF-0.0405866838991642
aF-0.03871531039476395
aF-0.03865861892700195
aF-0.037471454590559006
aF-0.034916698932647705
aF-0.0319066159427166
aF-0.028847556561231613
aF-0.0263056643307209
aF-0.02536146529018879
aF-0.024667834863066673
aF-0.025446802377700806
aF-0.023165404796600342
aF-0.02160286158323288
aF-0.019066378474235535
aF-0.016610465943813324
aF-0.01366824097931385
aF-0.011154800653457642
aF-0.010224889032542706
aF-0.008995828218758106
aF-0.009327521547675133
aF-0.009451565332710743
aF-0.00944690965116024
aF-0.00904377456754446
aF-0.008732345886528492
aF-0.0077111865393817425
aF-0.006106346379965544
aF-0.0047767274081707
aF-0.0041473638266325
aF-0.004220454953610897
aF-0.004202934447675943
aF-0.003810789668932557
aF-0.0033318055793642998
aF-0.0031037896405905485
aF-0.0026126024313271046
aF-0.001807653228752315
aF-0.000981843564659357
aF-0.0008007092983461916
aF-0.0010777025017887354
aF-0.001181999919936061
aF-0.0010944107780233026
a.