(lp0
F-3.9473798274993896
aF-10.851153373718262
aF-9.850083351135254
aF-9.830830574035645
aF-9.792016983032227
aF-9.714890480041504
aF-9.599206924438477
aF-9.447660446166992
aF-9.276339530944824
aF-9.071134567260742
aF-8.816640853881836
aF-8.526732444763184
aF-8.205194473266602
aF-7.871133327484131
aF-7.527307033538818
aF-7.174035549163818
aF-6.812692642211914
aF-6.483750343322754
aF-6.168712615966797
aF-5.884842872619629
aF-5.650302886962891
aF-5.452146530151367
aF-5.27532958984375
aF-5.154658794403076
aF-5.093459129333496
aF-5.076481819152832
aF-5.102553844451904
aF-5.190964698791504
aF-5.324640274047852
aF-5.5572404861450195
aF-5.949567794799805
aF-6.445565700531006
aF-7.064968109130859
aF-7.771127700805664
aF-8.745562553405762
aF-9.68777084350586
aF-9.544817924499512
aF-8.531079292297363
aF-7.562142372131348
aF-6.753687381744385
aF-5.943051815032959
aF-5.1733856201171875
aF-4.538161277770996
aF-4.001686096191406
aF-3.55082368850708
aF-3.1871402263641357
aF-2.899170160293579
aF-2.6886744499206543
aF-2.561152219772339
aF-2.5019595623016357
aF-2.509875774383545
aF-2.5855979919433594
aF-2.7156600952148438
aF-2.950050115585327
aF-3.2283763885498047
aF-3.5853707790374756
aF-4.025325298309326
aF-4.555091381072998
aF-5.192852020263672
aF-5.948318958282471
aF-6.759219646453857
aF-7.848217487335205
aF-9.128504753112793
aF-10.119388580322266
aF-8.857991218566895
aF-7.7591423988342285
aF-6.68846321105957
aF-5.676280498504639
aF-4.848400115966797
aF-4.116467475891113
aF-3.456944704055786
aF-2.922553062438965
aF-2.498940944671631
aF-2.148393392562866
aF-1.8829128742218018
aF-1.6704390048980713
aF-1.5102312564849854
aF-1.4102890491485596
aF-1.358048439025879
aF-1.340050220489502
aF-1.3703505992889404
aF-1.4346638917922974
aF-1.5436644554138184
aF-1.7001230716705322
aF-1.8858696222305298
aF-2.191772937774658
aF-2.505019187927246
aF-2.962644338607788
aF-3.4189364910125732
aF-4.084611415863037
aF-4.768580436706543
aF-5.636676788330078
aF-6.671974182128906
aF-7.721990585327148
aF-9.005559921264648
aF-10.276381492614746
aF-8.900053977966309
aF-7.544435024261475
aF-6.421331882476807
aF-5.393368721008301
aF-4.465346813201904
aF-3.7520639896392822
aF-3.0383782386779785
aF-2.474644660949707
aF-2.027188301086426
aF-1.7145321369171143
aF-1.450927734375
aF-1.254332184791565
aF-1.1073554754257202
aF-1.0151028633117676
aF-0.9628048539161682
aF-0.9346662759780884
aF-0.9338256120681763
aF-0.9595347046852112
aF-1.0125242471694946
aF-1.105934977531433
aF-1.2224479913711548
aF-1.3876378536224365
aF-1.5925253629684448
aF-1.8736578226089478
aF-2.1875457763671875
aF-2.5895097255706787
aF-3.135451555252075
aF-3.7033591270446777
aF-4.48025369644165
aF-5.365773677825928
aF-6.276301860809326
aF-7.26270866394043
aF-8.502835273742676
aF-10.056347846984863
aF-9.288954734802246
aF-7.9526047706604
aF-6.770449638366699
aF-5.777770042419434
aF-4.803719997406006
aF-3.98915958404541
aF-3.295013666152954
aF-2.7182765007019043
aF-2.2569079399108887
aF-1.8760946989059448
aF-1.5849281549453735
aF-1.3474689722061157
aF-1.1742019653320312
aF-1.0497515201568604
aF-0.9689522981643677
aF-0.925263524055481
aF-0.9082221388816833
aF-0.9161983132362366
aF-0.9480376839637756
aF-1.0163905620574951
aF-1.098098874092102
aF-1.224956750869751
aF-1.3983932733535767
aF-1.6380702257156372
aF-1.8935174942016602
aF-2.277740716934204
aF-2.641373634338379
aF-3.2192108631134033
aF-3.8916497230529785
aF-4.611635684967041
aF-5.4212727546691895
aF-6.492175579071045
aF-7.617227554321289
aF-8.809985160827637
aF-10.289095878601074
aF-9.050965309143066
aF-7.775262355804443
aF-6.557531833648682
aF-5.508594036102295
aF-4.580173969268799
aF-3.7671570777893066
aF-3.122793436050415
aF-2.5130035877227783
aF-2.0732128620147705
aF-1.7281811237335205
aF-1.4483630657196045
aF-1.2384659051895142
aF-1.0846083164215088
aF-0.9807116389274597
aF-0.9132090210914612
aF-0.8753181099891663
aF-0.8684551119804382
aF-0.8806025385856628
aF-0.9265592694282532
aF-0.9923728704452515
aF-1.090057134628296
aF-1.2117294073104858
aF-1.3515938520431519
aF-1.5862020254135132
aF-1.8431828022003174
aF-2.1762757301330566
aF-2.5528268814086914
aF-3.0464255809783936
aF-3.6957550048828125
aF-4.396049499511719
aF-5.172095775604248
aF-6.231273174285889
aF-7.109051704406738
aF-8.451436996459961
aF-9.73177433013916
aF-8.231823921203613
aF-10.26927661895752
aF-8.623286247253418
aF-7.977687358856201
aF-7.419064044952393
aF-6.899087905883789
aF-6.428378582000732
aF-5.956493377685547
aF-5.563370227813721
aF-5.234910011291504
aF-4.966669082641602
aF-4.761622905731201
aF-4.593238830566406
aF-4.490931034088135
aF-4.448455333709717
aF-4.484333515167236
aF-4.524334907531738
aF-4.682676315307617
aF-4.931624889373779
aF-5.354430675506592
aF-5.9171905517578125
aF-6.61932897567749
aF-7.483268737792969
aF-8.47392463684082
aF-9.418411254882812
aF-9.730242729187012
aF-8.66584587097168
aF-7.668226718902588
aF-6.6724371910095215
aF-5.782306671142578
aF-4.979277610778809
aF-4.300675868988037
aF-3.6848106384277344
aF-3.199557065963745
aF-2.7975645065307617
aF-2.4823973178863525
aF-2.2356629371643066
aF-2.060527801513672
aF-1.9586063623428345
aF-1.9079517126083374
aF-1.913957953453064
aF-1.9697498083114624
aF-2.0979487895965576
aF-2.2661194801330566
aF-2.5086007118225098
aF-2.8156943321228027
aF-3.249368906021118
aF-3.736694097518921
aF-4.3094964027404785
aF-4.976068496704102
aF-5.825798511505127
aF-6.669895172119141
aF-7.739205837249756
aF-8.819562911987305
aF-10.224258422851562
aF-9.050943374633789
aF-7.802070617675781
aF-6.675775527954102
aF-5.666032791137695
aF-4.787896633148193
aF-3.9665467739105225
aF-3.3528594970703125
aF-2.800337076187134
aF-2.355780839920044
aF-2.0075933933258057
aF-1.7321311235427856
aF-1.5364199876785278
aF-1.3993797302246094
aF-1.311690092086792
aF-1.2698415517807007
aF-1.2760928869247437
aF-1.3209530115127563
aF-1.4186573028564453
aF-1.551408052444458
aF-1.7473187446594238
aF-2.0119071006774902
aF-2.3236312866210938
aF-2.7492802143096924
aF-3.214521646499634
aF-3.7717881202697754
aF-4.469329833984375
aF-5.211543560028076
aF-6.0450544357299805
aF-7.193943500518799
aF-8.408310890197754
aF-9.6810302734375
aF-9.58673095703125
aF-8.31292724609375
aF-7.106541633605957
aF-5.997528553009033
aF-5.0701799392700195
aF-4.216535568237305
aF-3.4481987953186035
aF-2.9117271900177
aF-2.4386749267578125
aF-2.017195701599121
aF-1.7068051099777222
aF-1.4671369791030884
aF-1.2777042388916016
aF-1.1400408744812012
aF-1.0464683771133423
aF-0.9844430088996887
aF-0.9539175033569336
aF-0.9450296759605408
aF-0.9577440023422241
aF-0.9990476965904236
aF-1.0679112672805786
aF-1.169408917427063
aF-1.314399003982544
aF-1.4990324974060059
aF-1.728579044342041
aF-2.0248663425445557
aF-2.441653251647949
aF-2.9097938537597656
aF-3.443641424179077
aF-4.237101078033447
aF-5.0143938064575195
aF-5.801774978637695
aF-6.94638729095459
aF-8.097265243530273
aF-9.615629196166992
aF-9.727559089660645
aF-8.351217269897461
aF-7.047835826873779
aF-5.949273586273193
aF-4.936513900756836
aF-4.108387470245361
aF-3.296546220779419
aF-2.7356786727905273
aF-2.1927731037139893
aF-1.807932734489441
aF-1.5072457790374756
aF-1.2617536783218384
aF-1.081828236579895
aF-0.9451407790184021
aF-0.8540394306182861
aF-0.7984329462051392
aF-0.7673069834709167
aF-0.7613741755485535
aF-0.7833244800567627
aF-0.8189758658409119
aF-0.8907474875450134
aF-0.9824962615966797
aF-1.1081624031066895
aF-1.2595988512039185
aF-1.4802758693695068
aF-1.7558825016021729
aF-2.084376096725464
aF-2.4631872177124023
aF-3.016249895095825
aF-3.5440101623535156
aF-4.225111484527588
aF-5.154445171356201
aF-6.0869059562683105
aF-7.11669397354126
aF-8.428884506225586
aF-9.757523536682129
aF-9.524553298950195
aF-8.190648078918457
aF-6.938501834869385
aF-5.80850076675415
aF-4.903769493103027
aF-3.999699115753174
aF-3.288790702819824
aF-2.7454757690429688
aF-2.2129058837890625
aF-1.8385981321334839
aF-1.5235921144485474
aF-1.278891682624817
aF-1.0983823537826538
aF-0.9688819050788879
aF-0.8724040985107422
aF-0.8083258271217346
aF-0.7686466574668884
aF-0.755056619644165
aF-0.7605347037315369
aF-0.7847625017166138
aF-0.8338524699211121
aF-0.9107824563980103
aF-0.9924184083938599
aF-1.1412636041641235
aF-1.2769492864608765
aF-1.4901223182678223
aF-1.73110032081604
aF-2.0161406993865967
aF-2.4488961696624756
aF-3.00388765335083
aF-3.460934638977051
aF-4.251728534698486
aF-5.041672706604004
aF-6.065493583679199
aF-7.210517883300781
aF-8.34310245513916
aF-9.71943187713623
aF-9.536330223083496
aF-8.155022621154785
aF-6.958996772766113
aF-5.834016799926758
aF-4.837891101837158
aF-3.9512994289398193
aF-2.663353204727173
aF-10.811680793762207
aF-9.810925483703613
aF-9.83040714263916
aF-9.87049388885498
aF-9.773703575134277
aF-9.657526969909668
aF-9.50594711303711
aF-9.352824211120605
aF-9.180739402770996
aF-8.960638046264648
aF-8.688285827636719
aF-8.398880958557129
aF-8.079355239868164
aF-7.694272518157959
aF-7.36629581451416
aF-7.024539470672607
aF-6.692626953125
aF-6.359732151031494
aF-6.056727886199951
aF-5.802431583404541
aF-5.564009189605713
aF-5.375967979431152
aF-5.227841377258301
aF-5.13610315322876
aF-5.092824459075928
aF-5.116756439208984
aF-5.205285549163818
aF-5.339138984680176
aF-5.607483386993408
aF-5.995431423187256
aF-6.514654159545898
aF-7.062801361083984
aF-7.93999719619751
aF-8.79300594329834
aF-9.653064727783203
aF-9.504956245422363
aF-8.537814140319824
aF-7.610813617706299
aF-6.699171543121338
aF-5.85969352722168
aF-5.142560958862305
aF-4.516302585601807
aF-3.95949649810791
aF-3.505249261856079
aF-3.1189053058624268
aF-2.8284478187561035
aF-2.60699462890625
aF-2.4640753269195557
aF-2.3961398601531982
aF-2.393071413040161
aF-2.4441423416137695
aF-2.5491585731506348
aF-2.725823163986206
aF-2.949965476989746
aF-3.2444591522216797
aF-3.649832010269165
aF-4.151402473449707
aF-4.723568916320801
aF-5.3712286949157715
aF-6.106176376342773
aF-7.040585517883301
aF-7.969539165496826
aF-9.223414421081543
aF-10.019274711608887
aF-8.781667709350586
aF-7.595041751861572
aF-6.500537395477295
aF-5.576849937438965
aF-4.715232849121094
aF-4.000823020935059
aF-3.3805441856384277
aF-2.857856512069702
aF-2.4366629123687744
aF-2.107050895690918
aF-1.8525304794311523
aF-1.6536089181900024
aF-1.5175038576126099
aF-1.4251723289489746
aF-1.3786427974700928
aF-1.3770357370376587
aF-1.4164718389511108
aF-1.4892157316207886
aF-1.618185043334961
aF-1.76238214969635
aF-2.0194461345672607
aF-2.2547447681427
aF-2.674435615539551
aF-3.0764453411102295
aF-3.653691530227661
aF-4.31890869140625
aF-4.966434001922607
aF-6.080465793609619
aF-6.892719745635986
aF-8.003125190734863
aF-9.384288787841797
aF-9.880895614624023
aF-8.558839797973633
aF-7.403959274291992
aF-6.26418924331665
aF-5.232573986053467
aF-4.352662563323975
aF-3.572197675704956
aF-2.9587063789367676
aF-2.458916187286377
aF-2.055213212966919
aF-1.743980050086975
aF-1.4717686176300049
aF-1.287568211555481
aF-1.1581979990005493
aF-1.0755342245101929
aF-1.0287415981292725
aF-1.0123456716537476
aF-1.0340135097503662
aF-1.083239197731018
aF-1.1896907091140747
aF-1.3257280588150024
aF-1.5145212411880493
aF-1.7453619241714478
aF-1.9994738101959229
aF-2.4157416820526123
aF-2.8527233600616455
aF-3.4593470096588135
aF-4.026723861694336
aF-4.761107444763184
aF-5.787497520446777
aF-6.806422233581543
aF-7.958230972290039
aF-9.271596908569336
aF-9.985048294067383
aF-8.587273597717285
aF-7.328750133514404
aF-6.1590576171875
aF-5.1400556564331055
aF-4.290582656860352
aF-3.4709854125976562
aF-2.8681907653808594
aF-2.3820693492889404
aF-1.9289017915725708
aF-1.6045877933502197
aF-1.3649686574935913
aF-1.1499979496002197
aF-1.003217101097107
aF-0.8873443603515625
aF-0.8067121505737305
aF-0.7560956478118896
aF-0.7302824258804321
aF-0.7226940989494324
aF-0.7339568138122559
aF-0.7633589506149292
aF-0.8099182844161987
aF-0.8876370787620544
aF-0.9581950902938843
aF-1.098527193069458
aF-1.256772756576538
aF-1.4602112770080566
aF-1.725982666015625
aF-2.058293104171753
aF-2.4342362880706787
aF-2.946614980697632
aF-3.5475525856018066
aF-4.2892985343933105
aF-5.182000637054443
aF-5.98619270324707
aF-7.268985748291016
aF-8.500384330749512
aF-9.70712661743164
aF-9.489823341369629
aF-8.076922416687012
aF-6.859127998352051
aF-5.714582443237305
aF-4.693969249725342
aF-3.942301034927368
aF-3.143407106399536
aF-2.559877872467041
aF-2.0879409313201904
aF-1.7194911241531372
aF-1.4268602132797241
aF-1.1901572942733765
aF-1.0299327373504639
aF-0.9083060622215271
aF-0.829998791217804
aF-0.7865754961967468
aF-0.7661027312278748
aF-0.7657716870307922
aF-0.7841285467147827
aF-0.819076657295227
aF-0.8824542760848999
aF-0.9677838683128357
aF-1.0845296382904053
aF-1.2499809265136719
aF-1.4527959823608398
aF-1.677874207496643
aF-2.023533821105957
aF-2.396742582321167
aF-2.9052186012268066
aF-3.5441033840179443
aF-4.174955368041992
aF-5.0251784324646
aF-5.955854892730713
aF-7.043148994445801
aF-8.292258262634277
aF-9.70156192779541
aF-10.02434253692627
aF-9.869930267333984
aF-9.850313186645508
aF-9.850232124328613
aF-9.830239295959473
aF-9.830180168151855
aF-9.849947929382324
aF-9.849864959716797
aF-9.870373725891113
aF-9.869976997375488
aF-9.850483894348145
aF-9.79262638092041
aF-9.714299201965332
aF-9.599531173706055
aF-9.466364860534668
aF-9.27885913848877
aF-9.070025444030762
aF-8.831918716430664
aF-8.529298782348633
aF-8.220166206359863
aF-7.903513431549072
aF-7.534624099731445
aF-7.174745082855225
aF-6.864309787750244
aF-6.534637451171875
aF-6.215465545654297
aF-5.861423969268799
aF-5.630220413208008
aF-5.474677085876465
aF-5.317593097686768
aF-5.197502613067627
aF-5.148075103759766
aF-5.1334919929504395
aF-5.159481525421143
aF-5.248365879058838
aF-5.415552616119385
aF-5.664025783538818
aF-6.056859493255615
aF-6.600257873535156
aF-7.261744499206543
aF-8.038747787475586
aF-8.789329528808594
aF-9.804384231567383
aF-9.409980773925781
aF-8.457091331481934
aF-7.555334091186523
aF-6.69509220123291
aF-5.869221210479736
aF-5.1425299644470215
aF-4.520651817321777
aF-3.9667110443115234
aF-3.510249376296997
aF-3.140951156616211
aF-2.86004376411438
aF-2.656695604324341
aF-2.53096342086792
aF-2.4633755683898926
aF-2.470193862915039
aF-2.5451202392578125
aF-2.7002909183502197
aF-2.8990819454193115
aF-3.2158851623535156
aF-3.5621864795684814
aF-4.076262950897217
aF-4.601955890655518
aF-5.213155269622803
aF-6.026769161224365
aF-6.874713897705078
aF-7.895963191986084
aF-9.081424713134766
aF-10.156131744384766
aF-8.928727149963379
aF-7.768309593200684
aF-6.651822566986084
aF-5.672593593597412
aF-4.824300765991211
aF-4.064226150512695
aF-3.442113161087036
aF-2.8829853534698486
aF-2.4317760467529297
aF-2.0860564708709717
aF-1.8307368755340576
aF-1.6341909170150757
aF-1.4842551946640015
aF-1.3874151706695557
aF-1.3365875482559204
aF-1.3252204656600952
aF-1.3565967082977295
aF-1.4187904596328735
aF-1.5487017631530762
aF-1.6778180599212646
aF-1.8935883045196533
aF-2.177457094192505
aF-2.559283971786499
aF-2.9765398502349854
aF-3.441467523574829
aF-4.087860584259033
aF-4.827974319458008
aF-5.680290222167969
aF-6.664917469024658
aF-7.796748161315918
aF-9.38062858581543
aF-10.058341026306152
aF-8.771270751953125
aF-7.466824054718018
aF-6.319824695587158
aF-5.323971271514893
aF-4.390224933624268
aF-3.6105191707611084
aF-3.017735719680786
aF-2.4567995071411133
aF-2.0300238132476807
aF-1.69068443775177
aF-1.4325647354125977
aF-1.2416491508483887
aF-1.0895047187805176
aF-0.9907598495483398
aF-0.9335430860519409
aF-0.9104043841362
aF-0.9158757328987122
aF-0.9557300806045532
aF-1.0074548721313477
aF-1.0995279550552368
aF-1.2155879735946655
aF-1.3805471658706665
aF-1.609971284866333
aF-1.8272795677185059
aF-2.1761391162872314
aF-2.586557149887085
aF-3.1442441940307617
aF-3.6830687522888184
aF-4.4444074630737305
aF-5.189647674560547
aF-6.128274440765381
aF-7.198463439941406
aF-8.487017631530762
aF-9.802107810974121
aF-9.462458610534668
aF-8.13789176940918
aF-6.945859432220459
aF-5.846965312957764
aF-4.923366546630859
aF-4.09549617767334
aF-3.3593904972076416
aF-2.7577054500579834
aF-2.294729709625244
aF-1.9144294261932373
aF-1.6048071384429932
aF-1.370664358139038
aF-1.1806052923202515
aF-1.048999547958374
aF-0.9517254829406738
aF-0.880791187286377
aF-0.8474175333976746
aF-0.8398571610450745
aF-0.8642374873161316
aF-0.9082165956497192
aF-0.9804484248161316
aF-1.0764381885528564
aF-1.2072453498840332
aF-1.3761667013168335
aF-1.601644515991211
aF-1.8597064018249512
aF-2.2900333404541016
aF-2.7001168727874756
aF-3.2328312397003174
aF-3.8939454555511475
aF-4.765624523162842
aF-5.6480712890625
aF-6.652161598205566
aF-7.8930535316467285
aF-9.223551750183105
aF-10.051703453063965
aF-8.602090835571289
aF-7.2822651863098145
aF-6.120484828948975
aF-5.012164115905762
aF-4.1312432289123535
aF-3.337571144104004
aF-2.6856608390808105
aF-2.166334390640259
aF-1.7427600622177124
aF-1.4480862617492676
aF-1.1657791137695312
aF-0.9887936115264893
aF-0.8467907309532166
aF-0.7442455887794495
aF-0.6711243391036987
aF-0.6181204319000244
aF-0.5826541781425476
aF-0.5723033547401428
aF-0.5678512454032898
aF-0.5826528668403625
aF-0.6139887571334839
aF-0.6544327735900879
aF-0.7113957405090332
aF-0.7798115611076355
aF-0.8716856837272644
aF-1.0170700550079346
aF-1.347488522529602
aF-10.654728889465332
aF-9.36904239654541
aF-9.146222114562988
aF-9.00710391998291
aF-8.858596801757812
aF-8.675772666931152
aF-8.507940292358398
aF-8.297341346740723
aF-8.095305442810059
aF-7.884381294250488
aF-7.6900129318237305
aF-7.485586166381836
aF-7.325926303863525
aF-7.205350875854492
aF-7.087738990783691
aF-6.999788284301758
aF-6.933720111846924
aF-6.884598255157471
aF-6.864978790283203
aF-6.898177623748779
aF-6.965432167053223
aF-7.084972381591797
aF-7.276623725891113
aF-7.562740802764893
aF-7.94697904586792
aF-8.48050594329834
aF-9.071353912353516
aF-9.715794563293457
aF-9.553606033325195
aF-8.79874324798584
aF-8.054230690002441
aF-7.284952163696289
aF-6.615715026855469
aF-5.993288040161133
aF-5.39516019821167
aF-4.87467622756958
aF-4.401451110839844
aF-4.01627254486084
aF-3.6970832347869873
aF-3.4657952785491943
aF-3.303607225418091
aF-3.213642120361328
aF-3.1882212162017822
aF-3.234621524810791
aF-3.355177402496338
aF-3.541733980178833
aF-3.7814950942993164
aF-4.114654064178467
aF-4.506677627563477
aF-4.976335048675537
aF-5.550073146820068
aF-6.304689884185791
aF-7.140939712524414
aF-8.21124267578125
aF-9.211910247802734
aF-9.941450119018555
aF-8.762916564941406
aF-7.6711106300354
aF-6.603842258453369
aF-5.6981401443481445
aF-4.858250141143799
aF-4.157773017883301
aF-3.5204803943634033
aF-3.0156028270721436
aF-2.6115832328796387
aF-2.2779431343078613
aF-2.032566547393799
aF-1.843544602394104
aF-1.7191060781478882
aF-1.6557968854904175
aF-1.6463555097579956
aF-1.6807535886764526
aF-1.7606360912322998
aF-1.947442650794983
aF-2.2801787853240967
aF-2.815309762954712
aF-3.1636173725128174
aF-3.7482855319976807
aF-4.210912704467773
aF-4.984922409057617
aF-5.74716329574585
aF-6.791879653930664
aF-7.597833633422852
aF-8.894938468933105
aF-10.116707801818848
aF-9.076303482055664
aF-7.760723114013672
aF-6.663848400115967
aF-5.666126728057861
aF-4.792043685913086
aF-3.991652011871338
aF-3.3272128105163574
aF-2.8131120204925537
aF-2.373629093170166
aF-2.0270774364471436
aF-1.760602355003357
aF-1.5291625261306763
aF-1.3717899322509766
aF-1.2621076107025146
aF-1.1981875896453857
aF-1.1790902614593506
aF-1.1927497386932373
aF-1.2291473150253296
aF-1.3247315883636475
aF-1.411832332611084
aF-1.5992848873138428
aF-1.7805795669555664
aF-2.0329530239105225
aF-2.3513364791870117
aF-2.796800374984741
aF-3.315159797668457
aF-3.9171500205993652
aF-4.6212968826293945
aF-5.463997840881348
aF-6.350972652435303
aF-7.520920276641846
aF-8.658746719360352
aF-10.053865432739258
aF-9.219764709472656
aF-7.936962604522705
aF-6.823971748352051
aF-5.764645576477051
aF-4.865414619445801
aF-4.000149250030518
aF-3.2994723320007324
aF-2.7545852661132812
aF-2.2583203315734863
aF-1.8884528875350952
aF-1.6075948476791382
aF-1.3670825958251953
aF-1.2049200534820557
aF-1.094760775566101
aF-1.0206937789916992
aF-0.980364978313446
aF-0.9706175923347473
aF-0.9893670678138733
aF-1.0305813550949097
aF-1.1083778142929077
aF-1.2093656063079834
aF-1.3588080406188965
aF-1.5573667287826538
aF-1.826296329498291
aF-2.0984244346618652
aF-2.5278258323669434
aF-3.060602903366089
aF-3.5027427673339844
aF-4.292202949523926
aF-5.072136878967285
aF-5.978058815002441
aF-6.979844570159912
aF-8.3359375
aF-9.579055786132812
aF-9.664939880371094
aF-8.317728996276855
aF-7.129025936126709
aF-6.023311138153076
aF-4.998819828033447
aF-4.122496128082275
aF-3.415254831314087
aF-2.8164103031158447
aF-2.3324196338653564
aF-1.9525320529937744
aF-1.6060861349105835
aF-1.3531056642532349
aF-1.1691854000091553
aF-1.024990439414978
aF-0.9208076000213623
aF-0.8545834422111511
aF-0.808718204498291
aF-0.7933884263038635
aF-0.793997049331665
aF-0.8244697451591492
aF-0.866308867931366
aF-0.9467514753341675
aF-1.0566868782043457
aF-1.1701973676681519
aF-1.387356162071228
aF-1.5944172143936157
aF-1.8788511753082275
aF-2.250337839126587
aF-2.715848684310913
aF-3.2131850719451904
aF-3.9255001544952393
aF-4.684751510620117
aF-5.604813098907471
aF-6.496843338012695
aF-7.7437744140625
aF-9.012540817260742
aF-10.275882720947266
aF-8.888922691345215
aF-7.593490123748779
aF-6.405828952789307
aF-5.377261161804199
aF-4.4101409912109375
aF-3.682931900024414
aF-2.997084856033325
aF-2.4470016956329346
aF-2.0170400142669678
aF-1.696187973022461
a.