(lp0
F-2.425014019012451
aF-10.792482376098633
aF-9.791210174560547
aF-9.810550689697266
aF-9.870413780212402
aF-9.830741882324219
aF-9.791192054748535
aF-9.771248817443848
aF-9.771147727966309
aF-9.811588287353516
aF-9.830394744873047
aF-9.870414733886719
aF-9.812019348144531
aF-9.696964263916016
aF-9.579940795898438
aF-9.446248054504395
aF-9.258764266967773
aF-9.035958290100098
aF-8.810334205627441
aF-8.540642738342285
aF-8.238760948181152
aF-7.920776844024658
aF-7.579287528991699
aF-7.263985633850098
aF-6.923559665679932
aF-6.595879077911377
aF-6.302443504333496
aF-6.034848690032959
aF-5.812802791595459
aF-5.615243911743164
aF-5.445904731750488
aF-5.326832294464111
aF-5.251368999481201
aF-5.247132301330566
aF-5.276134490966797
aF-5.365838527679443
aF-5.4853692054748535
aF-5.6877288818359375
aF-5.937178134918213
aF-6.258670330047607
aF-6.635791301727295
aF-7.075078964233398
aF-7.55896520614624
aF-8.11783218383789
aF-8.827938079833984
aF-9.527161598205566
aF-9.668177604675293
aF-8.843588829040527
aF-8.058682441711426
aF-7.260165691375732
aF-6.472677230834961
aF-5.804765224456787
aF-5.196092128753662
aF-4.637942790985107
aF-4.16403865814209
aF-3.7696533203125
aF-3.475247859954834
aF-3.258737802505493
aF-3.1116156578063965
aF-3.035973310470581
aF-3.043374538421631
aF-3.1124868392944336
aF-3.244063138961792
aF-3.4526314735412598
aF-3.7314329147338867
aF-4.085843086242676
aF-4.5075483322143555
aF-5.066086769104004
aF-5.6756110191345215
aF-6.343233585357666
aF-7.081345558166504
aF-7.948070049285889
aF-8.720791816711426
aF-9.79344367980957
aF-9.419658660888672
aF-8.406539916992188
aF-7.435098171234131
aF-6.537031173706055
aF-5.7162981033325195
aF-4.974794387817383
aF-4.331339359283447
aF-3.788515090942383
aF-3.3480758666992188
aF-2.9632694721221924
aF-2.678305149078369
aF-2.4706177711486816
aF-2.3228495121002197
aF-2.2348010540008545
aF-2.203601837158203
aF-2.2414026260375977
aF-2.343174457550049
aF-2.526322603225708
aF-2.7681055068969727
aF-3.0925216674804688
aF-3.4391283988952637
aF-3.958918571472168
aF-4.513357162475586
aF-5.124279975891113
aF-5.946268558502197
aF-6.85594367980957
aF-7.7348408699035645
aF-8.86365032196045
aF-10.031993865966797
aF-9.250513076782227
aF-8.186627388000488
aF-7.1292805671691895
aF-6.142770767211914
aF-5.252260208129883
aF-4.475973129272461
aF-3.824641466140747
aF-3.291118860244751
aF-2.8516154289245605
aF-2.4805922508239746
aF-2.2035768032073975
aF-2.0087504386901855
aF-1.8701941967010498
aF-1.791585922241211
aF-1.7783087491989136
aF-1.8128303289413452
aF-1.905842900276184
aF-2.060372829437256
aF-2.243816614151001
aF-2.507983446121216
aF-2.9020984172821045
aF-3.3412740230560303
aF-3.8401618003845215
aF-4.5419416427612305
aF-5.172255039215088
aF-5.986412525177002
aF-7.0223917961120605
aF-8.02157974243164
aF-9.016426086425781
aF-10.167533874511719
aF-9.060811996459961
aF-7.979223728179932
aF-6.977197647094727
aF-6.039148330688477
aF-5.200018882751465
aF-4.451634883880615
aF-3.823162794113159
aF-3.2545647621154785
aF-2.8306689262390137
aF-2.470261812210083
aF-2.194068431854248
aF-2.0080668926239014
aF-1.869103193283081
aF-1.7758357524871826
aF-1.7458109855651855
aF-1.761978030204773
aF-1.8246999979019165
aF-1.9470783472061157
aF-2.0974855422973633
aF-2.335282802581787
aF-2.6464951038360596
aF-3.0119595527648926
aF-3.4110498428344727
aF-4.037376403808594
aF-4.667858600616455
aF-5.54054594039917
aF-6.3153910636901855
aF-7.340138912200928
aF-8.317777633666992
aF-9.625402450561523
aF-9.67262077331543
aF-8.499910354614258
aF-7.3288893699646
aF-6.308087348937988
aF-5.417683124542236
aF-4.564042091369629
aF-3.8824875354766846
aF-3.2825815677642822
aF-2.7867636680603027
aF-2.396449089050293
aF-2.0775527954101562
aF-1.855471134185791
aF-1.6827569007873535
aF-1.561397671699524
aF-1.4859942197799683
aF-1.467281699180603
aF-1.4906234741210938
aF-1.5763071775436401
aF-1.6970669031143188
aF-1.8699573278427124
aF-2.09848952293396
aF-2.3483059406280518
aF-2.759101152420044
aF-3.2291693687438965
aF-3.7359862327575684
aF-4.326263427734375
aF-5.188484191894531
aF-6.011545658111572
aF-7.033607482910156
aF-8.02164077758789
aF-9.103864669799805
aF-10.157015800476074
aF-9.031386375427246
aF-7.9199018478393555
aF-6.843266010284424
aF-5.900524616241455
aF-5.062141418457031
a.