(lp0
F-7.581570148468018
aF-10.851998329162598
aF-9.84994125366211
aF-9.8108549118042
aF-9.6968412399292
aF-9.597579956054688
aF-9.465381622314453
aF-9.312350273132324
aF-9.142354011535645
aF-8.954740524291992
aF-8.735814094543457
aF-8.484053611755371
aF-8.215038299560547
aF-7.962921142578125
aF-7.672341823577881
aF-7.35127067565918
aF-7.006967067718506
aF-6.675095558166504
aF-6.342566967010498
aF-6.053102970123291
aF-5.7910051345825195
aF-5.572480201721191
aF-5.40495491027832
aF-5.244845390319824
aF-5.150574207305908
aF-5.078547954559326
aF-5.049943447113037
aF-5.074436187744141
aF-5.132328510284424
aF-5.251038551330566
aF-5.518897533416748
aF-5.92357873916626
aF-6.413912773132324
aF-7.247437000274658
aF-8.124100685119629
aF-8.987129211425781
aF-10.106827735900879
aF-9.119760513305664
aF-8.077420234680176
aF-7.058508396148682
aF-6.110149383544922
aF-5.27131986618042
aF-4.5275444984436035
aF-3.8218395709991455
aF-3.259335517883301
aF-2.759061336517334
aF-2.3773181438446045
aF-2.0484488010406494
aF-1.7992079257965088
aF-1.5833816528320312
aF-1.4245036840438843
aF-1.3087936639785767
aF-1.239601969718933
aF-1.200531244277954
aF-1.205733299255371
aF-1.234285831451416
aF-1.2873187065124512
aF-1.38138747215271
aF-1.4918444156646729
aF-1.6780210733413696
aF-1.9157047271728516
aF-2.172032356262207
aF-2.5425565242767334
aF-2.998795986175537
aF-3.46891188621521
aF-4.0891194343566895
aF-5.083920001983643
aF-6.023776054382324
aF-7.355487823486328
aF-9.022525787353516
aF-10.44784927368164
aF-8.840043067932129
aF-7.325236797332764
aF-5.953873157501221
aF-4.714776515960693
aF-3.7710165977478027
aF-2.8519697189331055
aF-2.187103271484375
aF-1.663970708847046
aF-1.1758662462234497
aF-0.8421752452850342
aF-0.6037030816078186
aF-0.41150951385498047
aF-0.2526591420173645
aF-0.16911795735359192
aF-0.10401855409145355
aF-0.05372399091720581
aF-0.035398997366428375
aF-0.021537097170948982
aF-0.017051612958312035
aF-0.012568693608045578
aF-0.008493262343108654
aF-0.008425704203546047
aF-0.008613857440650463
aF-0.005722588859498501
aF-0.004150526598095894
aF-0.00040367638575844467
aF-0.00017988579929806292
aF-0.0011749612167477608
aF-0.0031318017281591892
aF-0.0030895296949893236
aF-0.005287060979753733
aF-0.004567688796669245
aF-0.003741688095033169
aF-0.003264068393036723
aF-0.004263995680958033
aF-0.002139756688848138
aF-0.003799445228651166
aF-0.0001449840929126367
aF-0.00010089213901665062
aF-0.0010678288526833057
aF-0.0013674302026629448
aF-0.003281280165538192
aF-0.002301267348229885
aF-0.0025978952180594206
aF-0.0026197785045951605
aF-0.002311947988346219
aF-0.0020279642194509506
aF-0.0019425898790359497
aF-0.0019700638949871063
aF-0.0029044817201793194
aF-0.0027956219855695963
aF-0.003164268797263503
aF-0.003485272638499737
aF-0.0031040154863148928
aF-0.002635181648656726
aF-0.0020514645148068666
aF-0.0017871246673166752
aF-0.0018247980624437332
aF-0.002046301495283842
aF-0.002184018725529313
aF-0.0019680205732584
aF-0.0019745819736272097
aF-0.0015741022070869803
aF-0.0014276261208578944
aF-0.0012978394515812397
aF-0.001181889558210969
aF-0.001054106280207634
aF-0.0008142450824379921
aF-0.0008106160676106811
aF-0.0008901036926545203
aF-0.0012758009834215045
aF-0.0008056947845034301
aF-0.0007225854205898941
aF-0.0012153716525062919
aF-0.0006507327198050916
aF-0.0007247438770718873
aF-0.00040005214395932853
aF-0.0007816437282599509
aF-0.0020465238485485315
aF-0.006893330253660679
aF-0.007888070307672024
aF-0.009685814380645752
aF-0.008291129022836685
aF-0.006605267990380526
aF-0.0060660503804683685
aF-0.006292746402323246
aF-0.003842501901090145
aF-0.001587291480973363
aF-0.0006556576699949801
aF-0.0030427344609051943
aF-0.005127290263772011
aF-0.010208872146904469
aF-0.009597447700798512
aF-0.010212519206106663
aF-0.007840312086045742
aF-0.007753449957817793
aF-0.006362340413033962
aF-0.005318254232406616
aF-0.00273688486777246
aF-0.000578750972636044
aF-0.0004480966308619827
aF-0.0021095259580761194
aF-0.0023366957902908325
aF-0.0012922718888148665
aF-0.0013853355776518583
aF-0.0014779530465602875
aF-0.001422251807525754
aF-0.0009125260985456407
aF-0.0010951675940304995
aF-0.00014278387243393809
aF-6.831420614616945e-05
aF-0.00040970195550471544
aF-0.00041930092265829444
aF-0.0002570885408204049
aF-0.00023636288824491203
aF-0.00010654397192411125
aF-1.4234152331482619e-05
aF-0.0005655233399011195
aF-0.00020518091332633048
aF-0.00019019481260329485
aF-0.0001326554047409445
aF-0.00011991513019893318
aF-0.0003744283167179674
aF-0.0004621098341885954
aF-0.00025368810747750103
aF-0.0011726910015568137
aF-0.0013282621512189507
aF-0.0020602417644113302
aF-0.001333244377747178
aF-0.001760193146765232
aF-10.851914405822754
aF-9.84990119934082
aF-9.870624542236328
aF-9.792829513549805
aF-9.695709228515625
aF-9.561842918395996
aF-9.374773979187012
aF-9.164482116699219
aF-8.908709526062012
aF-8.648280143737793
aF-8.33259105682373
aF-8.009954452514648
aF-7.637424945831299
aF-7.274641036987305
aF-6.900341987609863
aF-6.514078617095947
aF-6.138089656829834
aF-5.804807186126709
aF-5.513826370239258
aF-5.238132953643799
aF-5.025091648101807
aF-4.81859827041626
aF-4.68278694152832
aF-4.584754467010498
aF-4.5412139892578125
aF-4.527608394622803
aF-4.579023838043213
aF-4.661789894104004
aF-4.8042402267456055
aF-5.0750837326049805
aF-5.559535026550293
aF-6.22691011428833
aF-7.133665561676025
aF-8.001577377319336
aF-9.238582611083984
aF-10.030312538146973
aF-8.887474060058594
aF-7.760783672332764
aF-6.688606262207031
aF-5.749896049499512
aF-4.869138717651367
aF-4.110024452209473
aF-3.405787706375122
aF-2.8365488052368164
aF-2.405000686645508
aF-2.02046275138855
aF-1.7223488092422485
aF-1.4860378503799438
aF-1.3188546895980835
aF-1.190621018409729
aF-1.1003291606903076
aF-1.045109748840332
aF-1.0160959959030151
aF-1.0146458148956299
aF-1.0342705249786377
aF-1.0746806859970093
aF-1.1388822793960571
aF-1.2260756492614746
aF-1.3392680883407593
aF-1.5141096115112305
aF-1.6904062032699585
aF-1.950761079788208
aF-2.2283544540405273
aF-2.605062246322632
aF-2.991786479949951
aF-3.6099557876586914
aF-4.253427505493164
aF-5.499845504760742
aF-6.711055278778076
aF-8.377284049987793
aF-10.16561222076416
aF-9.372218132019043
aF-7.649660587310791
aF-6.420709133148193
aF-4.984987735748291
aF-3.876199245452881
aF-2.9890990257263184
aF-2.1592421531677246
aF-1.6262623071670532
aF-1.1578525304794312
aF-0.8233238458633423
aF-0.5614487528800964
aF-0.38119128346443176
aF-0.2774757742881775
aF-0.21227949857711792
aF-0.17491415143013
aF-0.18423119187355042
aF-0.26317691802978516
aF-0.30727848410606384
aF-0.407113641500473
aF-0.507217526435852
aF-0.6545235514640808
aF-0.7994863986968994
aF-0.9909272789955139
aF-1.2163828611373901
aF-1.5076853036880493
aF-1.8477097749710083
aF-2.2494866847991943
aF-2.755004405975342
aF-3.4129722118377686
aF-4.1573100090026855
aF-5.573038101196289
aF-6.319549560546875
aF-8.135221481323242
aF-9.843294143676758
aF-9.67723274230957
aF-8.041935920715332
aF-6.428289890289307
aF-5.138076305389404
aF-3.9299755096435547
aF-3.002682685852051
aF-2.233445644378662
aF-1.579708456993103
aF-1.1977463960647583
aF-0.7513309121131897
aF-0.597898542881012
aF-0.35546326637268066
aF-0.3015569746494293
aF-0.2689591348171234
aF-0.2875889241695404
aF-0.30566585063934326
aF-0.40054890513420105
aF-0.6104276180267334
aF-0.7390936613082886
aF-0.9958926439285278
aF-1.303305745124817
aF-1.5516104698181152
aF-2.0930635929107666
aF-2.5417404174804688
aF-3.141317844390869
aF-3.856051206588745
aF-4.771716594696045
aF-5.776051044464111
aF-7.517199993133545
aF-9.068608283996582
aF-10.424064636230469
aF-8.551229476928711
aF-6.958245277404785
aF-5.503368377685547
aF-4.295282363891602
aF-3.2507529258728027
aF-2.473590612411499
aF-1.7852672338485718
aF-1.298855185508728
aF-0.8704861998558044
aF-0.6884067058563232
aF-0.4663247764110565
aF-0.3039204776287079
aF-0.23083487153053284
aF-0.2542741894721985
aF-0.2920837700366974
aF-0.38169434666633606
aF-0.45832914113998413
aF-0.6396177411079407
aF-0.8439776301383972
aF-1.047824501991272
aF-1.3383100032806396
aF-1.7371585369110107
aF-2.316037893295288
aF-2.723342180252075
aF-3.4882586002349854
aF-4.2163920402526855
aF-5.528172969818115
aF-6.939720153808594
aF-8.498334884643555
aF-10.57896900177002
aF-9.12123966217041
aF-7.5137810707092285
aF-5.986969947814941
aF-4.704677581787109
aF-3.535648822784424
aF-2.667884588241577
aF-1.8830746412277222
aF-1.3482253551483154
aF-1.0108296871185303
aF-0.6270397901535034
aF-0.5036796927452087
aF-0.31475451588630676
aF-0.41417235136032104
aF-0.32101964950561523
aF-0.46308252215385437
aF-0.628046452999115
aF-0.8417546153068542
aF-1.1009485721588135
aF-1.4187599420547485
aF-1.927618384361267
aF-2.4243862628936768
aF-3.2252297401428223
aF-3.9724936485290527
aF-4.953487396240234
aF-6.325645923614502
aF-7.864513874053955
aF-9.722763061523438
aF-9.877034187316895
aF-8.162927627563477
aF-6.531543731689453
aF-5.049984455108643
aF-3.9659721851348877
aF-2.9758965969085693
aF-1.5135201215744019
aF-10.832198143005371
aF-9.830500602722168
aF-9.85024642944336
aF-9.814115524291992
aF-9.696426391601562
aF-9.562992095947266
aF-9.340921401977539
aF-9.111791610717773
aF-8.80479621887207
aF-8.462691307067871
aF-8.076285362243652
aF-7.651629447937012
aF-7.237144947052002
aF-6.7915191650390625
aF-6.365117073059082
aF-5.972777366638184
aF-5.607421875
aF-5.2783942222595215
aF-4.987521171569824
aF-4.7640180587768555
aF-4.5603156089782715
aF-4.405427932739258
aF-4.307633399963379
aF-4.252159595489502
aF-4.260733127593994
aF-4.300392150878906
aF-4.4100446701049805
aF-4.674190044403076
aF-5.141422748565674
aF-5.677530765533447
aF-6.609062194824219
aF-7.567129611968994
aF-8.662988662719727
aF-9.84860610961914
aF-9.354512214660645
aF-8.125027656555176
aF-6.965862274169922
aF-5.932458400726318
aF-4.990445613861084
aF-4.15936279296875
aF-3.4468517303466797
aF-2.828164577484131
aF-2.355893850326538
aF-1.9559110403060913
aF-1.6365402936935425
aF-1.374210000038147
aF-1.1652997732162476
aF-1.0073696374893188
aF-0.8881490230560303
aF-0.8041855692863464
aF-0.7432544827461243
aF-0.6998944878578186
aF-0.6654004454612732
aF-0.6457216739654541
aF-0.6408369541168213
aF-0.6458602547645569
aF-0.6617752909660339
aF-0.6808223724365234
aF-0.7090417742729187
aF-0.7494101524353027
aF-0.8091046214103699
aF-0.8982220888137817
aF-0.9821761846542358
aF-1.117910623550415
aF-1.2557880878448486
aF-1.4441131353378296
aF-1.6906859874725342
aF-1.944097638130188
aF-2.3013861179351807
aF-2.7299270629882812
aF-3.2159299850463867
aF-3.9250736236572266
aF-4.719821453094482
aF-5.902332305908203
aF-7.38859224319458
aF-8.98166275024414
aF-10.489204406738281
aF-8.693805694580078
aF-7.148911952972412
aF-5.833103656768799
aF-4.581982612609863
aF-3.5593459606170654
aF-2.722480058670044
aF-2.0114612579345703
aF-1.4136728048324585
aF-1.0467352867126465
aF-0.7392380833625793
aF-0.4494287371635437
aF-0.382772833108902
aF-0.2936643362045288
aF-0.15868158638477325
aF-0.1881054937839508
aF-0.21486656367778778
aF-0.25349459052085876
aF-0.32550540566444397
aF-0.41780975461006165
aF-0.5320101976394653
aF-0.6835176348686218
aF-0.8102819323539734
aF-1.0389670133590698
aF-1.24362051486969
aF-1.5303339958190918
aF-1.896300196647644
aF-2.3295907974243164
aF-2.7693605422973633
aF-3.522495746612549
aF-4.197635650634766
aF-5.148587226867676
aF-6.463077545166016
aF-8.11815071105957
aF-9.82439136505127
aF-9.68510627746582
aF-7.869983673095703
aF-6.337172508239746
aF-5.046787261962891
aF-3.977241277694702
aF-2.9629480838775635
aF-2.212924003601074
aF-1.6186411380767822
aF-1.1158747673034668
aF-0.78216952085495
aF-0.5404484272003174
aF-0.4254342317581177
aF-0.24706481397151947
aF-0.26371344923973083
aF-0.23409061133861542
aF-0.275515079498291
aF-0.37101632356643677
aF-0.49393051862716675
aF-0.6432062983512878
aF-0.8159431219100952
aF-1.0742707252502441
aF-1.3520358800888062
aF-1.7039666175842285
aF-2.106119155883789
aF-2.7262659072875977
aF-3.3344202041625977
aF-4.0938262939453125
aF-5.036886692047119
aF-6.1671223640441895
aF-7.57337760925293
aF-9.341060638427734
aF-10.157995223999023
aF-8.361233711242676
aF-6.759985446929932
aF-5.423061847686768
aF-4.246656894683838
aF-3.368352174758911
aF-2.49114990234375
aF-1.8246264457702637
aF-1.3448833227157593
aF-0.9444806575775146
aF-0.6640075445175171
aF-0.4268622100353241
aF-0.32146790623664856
aF-0.21342670917510986
aF-0.1984080821275711
aF-0.20271055400371552
aF-0.2408783882856369
aF-0.30386295914649963
aF-0.38976356387138367
aF-0.4962993562221527
aF-0.6787821650505066
aF-0.7781985998153687
aF-1.002596378326416
aF-1.2423359155654907
aF-1.551546335220337
aF-1.9122300148010254
aF-2.338898181915283
aF-2.893719434738159
aF-3.5150020122528076
aF-4.234910011291504
aF-5.294259071350098
aF-6.660404205322266
aF-8.289755821228027
aF-10.0144624710083
aF-9.502382278442383
aF-7.809293270111084
aF-6.214114189147949
aF-4.724338054656982
aF-3.3745131492614746
aF-2.9245500564575195
aF-2.1806864738464355
aF-1.5785897970199585
aF-1.1053013801574707
aF-0.781930685043335
aF-0.5405081510543823
aF-0.3721108138561249
aF-0.25647732615470886
aF-0.23440535366535187
aF-0.22080868482589722
aF-0.24818460643291473
aF-0.3637470006942749
aF-0.40562704205513
aF-0.5692296028137207
aF-0.6999639272689819
aF-0.9058229327201843
aF-1.1718586683273315
aF-1.4715518951416016
a.