(lp0
F-0.9086452126502991
aF-10.851972579956055
aF-9.849929809570312
aF-9.86971664428711
aF-9.811600685119629
aF-9.733376502990723
aF-9.636788368225098
aF-9.557817459106445
aF-9.480203628540039
aF-9.36668872833252
aF-9.269648551940918
aF-9.174076080322266
aF-9.097834587097168
aF-9.004094123840332
aF-8.946919441223145
aF-8.871479988098145
aF-8.797093391418457
aF-8.687843322753906
aF-8.611425399780273
aF-8.520211219787598
aF-8.42972183227539
aF-8.373523712158203
aF-8.335851669311523
aF-8.317511558532715
aF-8.29948902130127
aF-8.299283027648926
aF-8.35444450378418
aF-8.447773933410645
aF-8.558155059814453
aF-8.769696235656738
aF-9.018375396728516
aF-9.397796630859375
aF-9.789746284484863
aF-9.514098167419434
aF-8.968080520629883
aF-8.395581245422363
aF-7.770610809326172
aF-7.172182559967041
aF-6.578031063079834
aF-5.986269474029541
aF-5.445875644683838
aF-4.950682163238525
aF-4.507744312286377
aF-4.130275726318359
aF-3.8205249309539795
aF-3.577934980392456
aF-3.38967227935791
aF-3.264139175415039
aF-3.2014663219451904
aF-3.1880710124969482
aF-3.231423854827881
aF-3.339508533477783
aF-3.498418092727661
aF-3.8558266162872314
aF-4.404604434967041
aF-5.220601558685303
aF-6.0251874923706055
aF-7.80122709274292
aF-8.860980987548828
aF-10.417702674865723
aF-8.895830154418945
aF-7.4055070877075195
aF-6.194433689117432
aF-5.0802741050720215
aF-3.967120885848999
aF-3.1612274646759033
aF-2.5101139545440674
aF-1.9043588638305664
aF-1.4670087099075317
aF-1.0742552280426025
aF-0.7873896360397339
aF-0.5794097185134888
aF-0.42392057180404663
aF-0.2701674699783325
aF-0.18584515154361725
aF-0.11828327924013138
aF-0.08047915250062943
aF-0.054215606302022934
aF-0.046038173139095306
aF-0.0470736138522625
aF-0.047685835510492325
aF-0.05217694118618965
aF-0.05248836800456047
aF-0.05172880366444588
aF-0.05035053938627243
aF-0.04747660458087921
aF-0.042570557445287704
aF-0.040436770766973495
aF-0.03476458415389061
aF-0.03174642473459244
aF-0.02733466401696205
aF-0.023252025246620178
aF-0.019680170342326164
aF-0.015790103003382683
aF-0.012250342406332493
aF-0.009726516902446747
aF-0.00864572823047638
aF-0.007858095690608025
aF-0.007884196005761623
aF-0.009581717662513256
aF-0.008895590901374817
aF-0.008638087660074234
aF-0.0075494106858968735
aF-0.006037220358848572
aF-0.00552935479208827
aF-0.004446130711585283
aF-0.002262582303956151
aF-0.00119473144877702
aF-0.0006360139814205468
aF-0.0002730450942181051
aF-0.0007255242671817541
aF-0.0005166837945580482
aF-0.0022176532074809074
aF-0.0008954843506217003
aF-0.0008750290726311505
aF-0.0008950098417699337
aF-0.0006117917946539819
aF-0.0004801486211363226
aF-0.00012078203144483268
aF-0.00016403807967435569
aF-4.147629442741163e-05
aF-0.00018819139222614467
aF-1.3388209481490776e-05
aF-0.00016562834207434207
aF-0.000193818545085378
aF-0.00026693602558225393
aF-0.0006866755429655313
aF-0.0019153935136273503
aF-0.0028792954981327057
aF-0.004052095580846071
aF-0.0023694317787885666
aF-0.0023133764043450356
aF-0.0022453644778579473
aF-0.002882694359868765
aF-0.0017835600301623344
aF-0.0016574548790231347
aF-0.00010564440162852407
aF-0.00010162968101212755
aF-0.0006875130347907543
aF-0.0007570486050099134
aF-0.0005701230256818235
aF-0.0004739658907055855
aF-0.0002727733226493001
aF-0.0008255384746007621
aF-0.000920781574677676
aF-0.002997749485075474
aF-0.0025807502679526806
aF-0.00266455952078104
aF-0.001978511456400156
aF-0.0015791587065905333
aF-0.0017070688772946596
aF-0.0023578123655170202
aF-0.0024463708978146315
aF-0.0038887192495167255
aF-0.0004329442454036325
aF-0.0002910745097324252
aF-0.002657670760527253
aF-0.004581933841109276
aF-0.005267479456961155
aF-0.005035507958382368
aF-0.0025804713368415833
aF-0.002317536622285843
aF-0.002251309109851718
aF-0.00393932918086648
aF-0.0015581760089844465
aF-0.0011917805531993508
aF-8.716977390577085e-06
aF-0.00010647566523402929
aF-0.0007094902102835476
aF-0.0015889754286035895
aF-0.0018505046609789133
aF-0.0010905248345807195
aF-0.0010014858562499285
aF-0.0012873149244114757
aF-0.000882720691151917
aF-0.0008022668189369142
aF-0.0006411453941836953
aF-0.0008684243657626212
aF-0.0001028711922117509
aF-0.0004205178702250123
aF-0.0011567060137167573
aF-0.0014192716917023063
aF-0.0007281845319084823
aF-0.0009827115572988987
aF-0.0007310202927328646
aF-0.0007958230562508106
aF-0.001161571592092514
aF-0.0011793787125498056
aF-0.0017837438499554992
aF-0.0020093386992812157
aF-0.0022195028141140938
aF-0.002434993162751198
aF-0.0020549879409372807
aF-0.0017587323673069477
aF-0.0015164928045123816
aF-0.0013935525203123689
aF-0.0012303877156227827
aF-0.0016458239406347275
aF-0.0015563340857625008
aF-0.0017030785093083978
a.