(lp0
F-0.0030061418656259775
aF-10.871706008911133
aF-9.870221138000488
aF-9.84995174407959
aF-9.791664123535156
aF-9.751869201660156
aF-9.712715148925781
aF-9.692829132080078
aF-9.654242515563965
aF-9.634245872497559
aF-9.614787101745605
aF-9.59531307220459
aF-9.575812339782715
aF-9.556488990783691
aF-9.536970138549805
aF-9.537017822265625
aF-9.536908149719238
aF-9.537005424499512
aF-9.576412200927734
aF-9.615123748779297
aF-9.674028396606445
aF-9.733543395996094
aF-9.833539009094238
aF-9.777229309082031
aF-9.640219688415527
aF-9.434632301330566
aF-9.156577110290527
aF-8.842276573181152
aF-8.484917640686035
aF-8.081745147705078
aF-7.663632392883301
aF-7.216371536254883
aF-6.7821784019470215
aF-6.333748817443848
aF-5.90573787689209
aF-5.523766040802002
aF-5.1725969314575195
aF-4.874679088592529
aF-4.643742561340332
aF-4.420129299163818
aF-4.27246618270874
aF-4.189450740814209
aF-4.161338806152344
aF-4.183864116668701
aF-4.264438152313232
aF-4.400595664978027
aF-4.694870948791504
aF-5.215335369110107
aF-5.913447856903076
aF-6.852120876312256
aF-7.946178436279297
aF-9.191500663757324
aF-10.022216796875
aF-8.703277587890625
aF-7.540641784667969
aF-6.411805152893066
aF-5.406660079956055
aF-4.455039978027344
aF-3.6836342811584473
aF-3.017956256866455
aF-2.4564688205718994
aF-2.0198545455932617
aF-1.6627496480941772
aF-1.349156141281128
aF-1.1074212789535522
aF-0.9283230304718018
aF-0.7887016534805298
aF-0.6862462162971497
aF-0.6058923006057739
aF-0.5405877232551575
aF-0.4959450364112854
aF-0.46232348680496216
aF-0.4429944157600403
aF-0.4385666847229004
aF-0.4392489790916443
aF-0.4525890350341797
aF-0.4701994061470032
aF-0.48597967624664307
aF-0.5050982236862183
aF-0.5276549458503723
aF-0.5628054738044739
aF-0.5960365533828735
aF-0.6419622302055359
aF-0.6886513829231262
aF-0.7580199837684631
aF-0.8322645425796509
aF-0.9330901503562927
aF-1.0501384735107422
aF-1.2090120315551758
aF-1.362741231918335
aF-1.6248984336853027
aF-1.840609073638916
aF-2.1853058338165283
aF-2.5797247886657715
aF-3.046464443206787
aF-3.7690906524658203
aF-4.333278179168701
aF-5.307470321655273
aF-6.6193718910217285
aF-8.157881736755371
aF-10.02941608428955
aF-9.529938697814941
aF-7.918613433837891
aF-6.409900665283203
aF-5.125601768493652
aF-4.016947269439697
aF-3.0959224700927734
aF-2.246396064758301
aF-1.7478803396224976
aF-1.1731493473052979
aF-0.8413490653038025
aF-0.6312147378921509
aF-0.3891475200653076
aF-0.3220573961734772
aF-0.203664630651474
aF-0.20447354018688202
aF-0.20602074265480042
aF-0.25656092166900635
aF-0.3425656259059906
aF-0.4215731918811798
aF-0.5630214810371399
aF-0.6932287812232971
aF-0.8994371294975281
aF-1.0942704677581787
aF-1.3998397588729858
aF-1.6523243188858032
aF-2.114736318588257
aF-2.5267159938812256
aF-3.1870381832122803
aF-3.8169147968292236
aF-4.626161575317383
aF-5.480758190155029
aF-6.563535213470459
aF-7.6971917152404785
aF-8.883179664611816
aF-10.109443664550781
aF-9.114330291748047
aF-7.836772918701172
aF-6.718921661376953
aF-5.721738338470459
aF-4.761942386627197
aF-3.927945852279663
aF-3.2078638076782227
aF-2.6186208724975586
aF-2.1491756439208984
aF-1.7416417598724365
aF-1.4125498533248901
aF-1.1426904201507568
aF-0.9362528920173645
aF-0.7662585973739624
aF-0.6323991417884827
aF-0.5295087695121765
aF-0.448999285697937
aF-0.3826926648616791
aF-0.33298319578170776
aF-0.2936915159225464
aF-0.2709428668022156
aF-0.25368282198905945
aF-0.2432401180267334
aF-0.23367393016815186
aF-0.2311755120754242
aF-0.22887776792049408
aF-0.22571232914924622
aF-0.2229757159948349
aF-0.21527282893657684
aF-0.2076265513896942
aF-0.19605568051338196
aF-0.18525975942611694
aF-0.17536498606204987
aF-0.16612426936626434
aF-0.15892747044563293
aF-0.15348879992961884
aF-0.1527361422777176
aF-0.14911580085754395
aF-0.1481252759695053
aF-0.1442079395055771
aF-0.1385667771100998
aF-0.13583137094974518
aF-0.13425254821777344
aF-0.12871813774108887
aF-0.12390964478254318
aF-0.11574283242225647
aF-0.1046968623995781
aF-0.09191723167896271
aF-0.07981279492378235
aF-0.06925255060195923
aF-0.059332411736249924
aF-0.0526815690100193
aF-0.049528226256370544
aF-0.04871169105172157
aF-0.05454148352146149
aF-0.05464436858892441
aF-0.05499072000384331
aF-0.05408740043640137
aF-0.04972091689705849
aF-0.04446031153202057
aF-0.040241654962301254
aF-0.034365687519311905
aF-0.029191279783844948
aF-0.02549895830452442
aF-0.022042401134967804
aF-10.83229923248291
aF-9.83027172088623
aF-9.83014965057373
aF-9.752957344055176
aF-9.693560600280762
aF-9.634971618652344
aF-9.595558166503906
aF-9.57581901550293
aF-9.556422233581543
aF-9.537030220031738
aF-9.536934852600098
aF-9.537097930908203
aF-9.537364959716797
aF-9.556594848632812
aF-9.575922012329102
aF-9.615519523620605
aF-9.715314865112305
aF-9.8131685256958
aF-9.760058403015137
aF-9.583759307861328
aF-9.342354774475098
aF-9.093338966369629
aF-8.803150177001953
aF-8.476495742797852
aF-8.151789665222168
aF-7.7915544509887695
aF-7.376955509185791
aF-6.982802391052246
aF-6.5501179695129395
aF-6.164220333099365
aF-5.780951023101807
aF-5.448283672332764
aF-5.145512104034424
aF-4.8723578453063965
aF-4.643311500549316
aF-4.472495079040527
aF-4.349573135375977
aF-4.290620803833008
aF-4.288340091705322
aF-4.327103614807129
aF-4.451879978179932
aF-4.6021013259887695
aF-4.971889019012451
aF-5.530379772186279
aF-6.328684329986572
aF-7.23525333404541
aF-8.368097305297852
aF-9.583039283752441
aF-9.624881744384766
aF-8.380355834960938
aF-7.242950916290283
aF-6.14110803604126
aF-5.181249141693115
aF-4.331335544586182
aF-3.592338800430298
aF-2.9373865127563477
aF-2.427899122238159
aF-1.9695930480957031
aF-1.6265748739242554
aF-1.3548345565795898
aF-1.1549826860427856
aF-0.9890284538269043
aF-0.8677166700363159
aF-0.776910662651062
aF-0.7143957018852234
aF-0.6756247282028198
aF-0.6546282768249512
aF-0.6550203561782837
aF-0.6649574637413025
aF-0.6928563117980957
aF-0.7385542988777161
aF-0.7973827719688416
aF-0.8701386451721191
aF-0.9847881197929382
aF-1.1106339693069458
aF-1.2817747592926025
aF-1.4826568365097046
aF-1.7221174240112305
aF-2.051710844039917
aF-2.434159517288208
aF-2.8887999057769775
aF-3.53178334236145
aF-4.172588348388672
aF-5.12534236907959
aF-6.3753743171691895
aF-7.934701919555664
aF-9.656990051269531
aF-9.840859413146973
aF-8.13818645477295
aF-6.590626239776611
aF-5.317733287811279
aF-4.047533988952637
aF-3.1299476623535156
aF-2.359626531600952
aF-1.679097056388855
aF-1.1780997514724731
aF-0.8505193591117859
aF-0.5299807786941528
aF-0.4220958948135376
aF-0.2676885724067688
aF-0.2237376570701599
aF-0.24398449063301086
aF-0.2845713198184967
aF-0.34206026792526245
aF-0.4757251441478729
aF-0.6326528191566467
aF-0.8193358182907104
aF-1.0489206314086914
aF-1.2756401300430298
aF-1.6823593378067017
aF-2.1329452991485596
aF-2.5806198120117188
aF-3.2480628490448
aF-3.974506378173828
aF-4.79081916809082
aF-6.073795795440674
aF-7.764432907104492
aF-9.359478950500488
aF-10.13889217376709
aF-8.346722602844238
aF-6.708012580871582
aF-5.326562404632568
aF-4.067046642303467
aF-3.1948671340942383
aF-2.315333127975464
aF-1.6791526079177856
aF-1.21592116355896
aF-0.8138057589530945
aF-0.5815768837928772
aF-0.44725707173347473
aF-0.27979955077171326
aF-0.3146910071372986
aF-0.3120626211166382
aF-0.4033680260181427
aF-0.5096762776374817
aF-0.7005861401557922
aF-0.9644832611083984
aF-1.2337595224380493
aF-1.5394582748413086
aF-2.034177303314209
aF-2.572256565093994
aF-3.1653013229370117
aF-4.095831871032715
aF-4.906287670135498
aF-6.062721252441406
aF-7.197547912597656
aF-8.678702354431152
aF-9.579283714294434
aF-9.581628799438477
aF-8.229421615600586
aF-6.932849884033203
aF-5.833024501800537
aF-4.826033115386963
aF-3.9640259742736816
aF-3.1986541748046875
aF-2.5644540786743164
aF-2.0330989360809326
aF-1.598060131072998
aF-1.26185142993927
aF-1.0025750398635864
aF-0.7918148636817932
aF-0.6090104579925537
aF-0.462386816740036
aF-0.3393433094024658
aF-0.26728931069374084
aF-0.20858581364154816
aF-0.1733325868844986
aF-0.1559145152568817
aF-0.14928296208381653
aF-0.15153150260448456
aF-0.15462985634803772
aF-0.1582723706960678
aF-0.16006945073604584
aF-0.15832483768463135
aF-0.15722507238388062
aF-0.1549105942249298
aF-0.14977987110614777
aF-0.1422567516565323
aF-0.1336740106344223
aF-0.12101425975561142
aF-0.108065664768219
aF-0.09644928574562073
aF-0.08535703271627426
aF-0.07749053835868835
aF-0.07405123114585876
aF-0.07579141110181808
aF-0.07545236498117447
aF-0.0763322189450264
aF-0.07452298700809479
aF-0.06962503492832184
aF-0.06256943196058273
aF-0.05486145615577698
aF-0.04757009446620941
aF-0.04026315361261368
aF-0.03610365837812424
aF-0.03550614044070244
aF-0.03697219863533974
aF-0.037578221410512924
aF-0.03831332176923752
a.