(lp0
F-7.073730898810027e-07
aF-10.851990699768066
aF-9.850008010864258
aF-9.830239295959473
aF-9.771954536437988
aF-9.713139533996582
aF-9.673564910888672
aF-9.634502410888672
aF-9.59556770324707
aF-9.57582950592041
aF-9.575812339782715
aF-9.575721740722656
aF-9.57625961303711
aF-9.595629692077637
aF-9.635049819946289
aF-9.71463680267334
aF-9.855460166931152
aF-9.720453262329102
aF-9.511275291442871
aF-9.282783508300781
aF-9.00588321685791
aF-8.678646087646484
aF-8.320050239562988
aF-7.94967794418335
aF-7.542647361755371
aF-7.111351490020752
aF-6.708232402801514
aF-6.314172744750977
aF-5.948355197906494
aF-5.647192478179932
aF-5.335521697998047
aF-5.085665702819824
aF-4.884884357452393
aF-4.739253044128418
aF-4.651631832122803
aF-4.621351718902588
aF-4.631148338317871
aF-4.686750888824463
aF-4.800534725189209
aF-5.040594100952148
aF-5.375662803649902
aF-5.941256999969482
aF-6.5584282875061035
aF-7.5279669761657715
aF-8.328903198242188
aF-9.35224723815918
aF-9.85246753692627
aF-8.766653060913086
aF-7.723240852355957
aF-6.773248195648193
aF-5.859771251678467
aF-5.048838138580322
aF-4.338433265686035
aF-3.6934969425201416
aF-3.141805410385132
aF-2.7380483150482178
aF-2.379558801651001
aF-2.112419605255127
aF-1.9164206981658936
aF-1.7660366296768188
aF-1.6784672737121582
aF-1.6391644477844238
aF-1.6470212936401367
aF-1.6988708972930908
aF-1.7976605892181396
aF-1.9463926553726196
aF-2.1123578548431396
aF-2.400397539138794
aF-2.709404230117798
aF-3.0566813945770264
aF-3.557358503341675
aF-4.265688419342041
aF-5.274435997009277
aF-6.192539691925049
aF-7.615215301513672
aF-9.01130485534668
aF-10.348527908325195
aF-8.821552276611328
aF-7.41067361831665
aF-6.121616840362549
aF-4.930807590484619
aF-3.9998655319213867
aF-3.1274609565734863
aF-2.4901421070098877
aF-1.937881588935852
aF-1.4422681331634521
aF-1.1340898275375366
aF-0.8196420669555664
aF-0.6160978078842163
aF-0.43388673663139343
aF-0.3066844642162323
aF-0.20659689605236053
aF-0.1410106122493744
aF-0.09062367677688599
aF-0.06281046569347382
aF-0.052615903317928314
aF-0.0523112416267395
aF-0.061760544776916504
aF-0.07160361856222153
aF-0.0834653452038765
aF-0.08365341275930405
aF-0.0897245779633522
aF-0.08424133062362671
aF-0.0853496715426445
aF-0.07679764181375504
aF-0.06976891309022903
aF-0.06183945760130882
aF-0.05319434404373169
aF-0.045266471803188324
aF-0.04153994470834732
aF-0.039279185235500336
aF-0.04107128456234932
aF-0.04454399645328522
aF-0.045677732676267624
aF-0.047072455286979675
aF-0.04919872432947159
aF-0.046434830874204636
aF-0.04508894681930542
aF-0.0406467467546463
aF-0.03610731661319733
aF-0.03134812414646149
aF-0.028276775032281876
aF-0.0296860933303833
aF-0.03672304004430771
aF-0.0432589016854763
aF-0.04509483277797699
aF-0.04789106920361519
aF-0.04646935686469078
aF-0.044988419860601425
aF-0.0415111668407917
aF-0.03757929429411888
aF-0.03351664915680885
aF-0.030289659276604652
aF-0.028038252145051956
aF-0.029699303209781647
aF-0.028801457956433296
aF-0.028478801250457764
aF-0.025509215891361237
aF-0.023143460974097252
aF-0.02063758112490177
aF-0.017241762951016426
aF-0.014617408625781536
aF-0.013624155893921852
aF-0.01429795753210783
aF-0.015419651754200459
aF-0.016604619100689888
aF-0.0171939916908741
aF-0.01697430945932865
aF-0.015392852947115898
aF-0.013925202190876007
aF-0.012453634291887283
aF-0.011609458364546299
aF-0.010884829796850681
aF-0.012193718925118446
aF-0.012461039237678051
aF-0.011412110179662704
aF-0.01135475467890501
aF-0.009847206994891167
aF-0.008584346622228622
aF-0.007083573378622532
aF-0.00607135146856308
aF-0.004868336487561464
aF-0.0045475829392671585
aF-0.0046362304128706455
aF-0.005299501586705446
aF-0.006349941715598106
aF-0.007751429453492165
aF-0.007996332831680775
aF-0.006842356640845537
aF-0.006513291038572788
aF-0.005213896743953228
aF-0.005066277924925089
aF-0.0031676858197897673
aF-0.0032297077123075724
aF-0.0014211791567504406
aF-0.00034380555734969676
aF-0.000448351027444005
aF-0.0020462919492274523
aF-0.0036179639864712954
aF-0.0052112252451479435
aF-0.004066656809300184
aF-0.0032793546561151743
aF-0.003036349778994918
aF-0.0035412106662988663
aF-0.004425097722560167
aF-0.0021704346872866154
aF-0.0021637831814587116
aF-0.000184635617188178
aF-0.0004865685186814517
aF-0.002695027505978942
aF-0.004655137192457914
aF-0.004081015940755606
aF-0.0017177269328385592
aF-0.002221437869593501
aF-0.003901012474671006
aF-0.005813079420477152
aF-0.0020135666709393263
aF-0.0017318278551101685
aF-0.0010568066500127316
aF-0.0009650926804170012
a.