(lp0
F-0.0008517586393281817
aF-10.83187198638916
aF-9.830211639404297
aF-9.830674171447754
aF-9.850672721862793
aF-9.772772789001465
aF-9.732259750366211
aF-9.69310188293457
aF-9.673274040222168
aF-9.653739929199219
aF-9.634230613708496
aF-9.63426399230957
aF-9.63414192199707
aF-9.653742790222168
aF-9.673282623291016
aF-9.732954025268555
aF-9.772014617919922
aF-9.81137466430664
aF-9.852749824523926
aF-9.755697250366211
aF-9.602460861206055
aF-9.411619186401367
aF-9.186166763305664
aF-8.911588668823242
aF-8.601998329162598
aF-8.307299613952637
aF-7.977876663208008
aF-7.644674301147461
aF-7.279090404510498
aF-6.924574375152588
aF-6.595299243927002
aF-6.278078079223633
aF-5.991889953613281
aF-5.730865478515625
aF-5.501577854156494
aF-5.31769323348999
aF-5.183880805969238
aF-5.095128536224365
aF-5.063895225524902
aF-5.088371276855469
aF-5.1613850593566895
aF-5.279723167419434
aF-5.530519962310791
aF-5.899621486663818
aF-6.3981032371521
aF-7.015302658081055
aF-7.743852138519287
aF-8.548249244689941
aF-9.677611351013184
aF-9.582021713256836
aF-8.637554168701172
aF-7.706438064575195
aF-6.803859233856201
aF-5.999953269958496
aF-5.261764049530029
aF-4.598875999450684
aF-4.026881694793701
aF-3.549731969833374
aF-3.158970594406128
aF-2.8688902854919434
aF-2.649179697036743
aF-2.502584457397461
aF-2.417349338531494
aF-2.410898208618164
aF-2.474658966064453
aF-2.6126868724823
aF-2.8122036457061768
aF-3.123296022415161
aF-3.534299850463867
aF-4.226168632507324
aF-4.990467548370361
aF-5.985620975494385
aF-7.161574840545654
aF-8.728775024414062
aF-10.23029613494873
aF-9.168266296386719
aF-7.800632476806641
aF-6.5301127433776855
aF-5.404673099517822
aF-4.402252197265625
aF-3.5924975872039795
aF-2.907569646835327
aF-2.321359157562256
aF-1.836943507194519
aF-1.4924745559692383
aF-1.1877800226211548
aF-0.9533656239509583
aF-0.7769681811332703
aF-0.6460129022598267
aF-0.541426956653595
aF-0.4705798029899597
aF-0.42073819041252136
aF-0.3866637349128723
aF-0.3706163465976715
aF-0.36792314052581787
aF-0.3798643946647644
aF-0.3917429447174072
aF-0.417995423078537
aF-0.44176459312438965
aF-0.4677210748195648
aF-0.5043582320213318
aF-0.5465116500854492
aF-0.6025620102882385
aF-0.6711927652359009
aF-0.7623938918113708
aF-0.8690107464790344
aF-1.0046106576919556
aF-1.170439600944519
aF-1.3702702522277832
aF-1.6232104301452637
aF-1.961064100265503
aF-2.371563196182251
aF-2.850254535675049
aF-3.4629530906677246
aF-4.209692478179932
aF-5.136460304260254
aF-6.3462815284729
aF-7.725444316864014
aF-9.183335304260254
aF-10.176344871520996
aF-8.520923614501953
aF-7.039521217346191
aF-5.656956195831299
aF-4.630014419555664
aF-3.6366217136383057
aF-2.871206283569336
aF-2.1811752319335938
aF-1.683638572692871
aF-1.2695775032043457
aF-0.9574873447418213
aF-0.7110928893089294
aF-0.5256971716880798
aF-0.3908967673778534
aF-0.2912924885749817
aF-0.2196057289838791
aF-0.17839756608009338
aF-0.15621457993984222
aF-0.14705447852611542
aF-0.14747309684753418
aF-0.15008865296840668
aF-0.14780353009700775
aF-0.15043455362319946
aF-0.14911627769470215
aF-0.1483776867389679
aF-0.1553606390953064
aF-0.15830276906490326
aF-0.16101224720478058
aF-0.1646411418914795
aF-0.16327711939811707
aF-0.16125255823135376
aF-0.1631864756345749
aF-0.1565442681312561
aF-0.1506517082452774
aF-0.14514334499835968
aF-0.1391790360212326
aF-0.1347062736749649
aF-0.13103541731834412
aF-0.12850570678710938
aF-0.1253504902124405
aF-0.12294512242078781
aF-0.11899680644273758
aF-0.1180315613746643
aF-0.11708740890026093
aF-0.11387590318918228
aF-0.1114964708685875
aF-0.10498009622097015
aF-0.09616206586360931
aF-0.08512338250875473
aF-0.07534658163785934
aF-0.06498046964406967
aF-0.056698765605688095
aF-0.050027914345264435
aF-0.046221259981393814
aF-0.043762560933828354
aF-0.042087554931640625
aF-0.04260364919900894
aF-0.04677271097898483
aF-0.04609473794698715
aF-0.048193152993917465
aF-0.04504169523715973
aF-0.03972385823726654
aF-0.03451633080840111
aF-0.028620745986700058
aF-0.021109627559781075
aF-0.015117908827960491
aF-0.011567063629627228
aF-0.010293719358742237
aF-0.010370992124080658
aF-0.01126979012042284
aF-0.01409715972840786
aF-0.012429547496140003
aF-0.01171979308128357
aF-0.010375214740633965
aF-0.009435136802494526
aF-0.006826533004641533
aF-0.004524317104369402
aF-0.0046117184683680534
aF-0.0021420414559543133
aF-0.0018161456100642681
aF-0.00011307501699775457
aF-0.0005564528983086348
aF-10.81168270111084
aF-9.810542106628418
aF-9.830902099609375
aF-9.870924949645996
aF-9.794255256652832
aF-9.677482604980469
aF-9.525321006774902
aF-9.317408561706543
aF-9.092145919799805
aF-8.802227020263672
aF-8.492339134216309
aF-8.169246673583984
aF-7.864798545837402
aF-7.5000319480896
aF-7.140950679779053
aF-6.792788028717041
aF-6.466126441955566
aF-6.164081573486328
aF-5.920820713043213
aF-5.707159996032715
aF-5.535187721252441
aF-5.4259352684021
aF-5.352581977844238
aF-5.333688735961914
aF-5.376227378845215
aF-5.450761795043945
aF-5.605207920074463
aF-5.859690189361572
aF-6.258682727813721
aF-6.7449421882629395
aF-7.35986328125
aF-8.137301445007324
aF-8.953354835510254
aF-9.764801979064941
aF-9.371964454650879
aF-8.457659721374512
aF-7.576927185058594
aF-6.719663143157959
aF-5.955127716064453
aF-5.229504585266113
aF-4.591306209564209
aF-4.051471710205078
aF-3.6145284175872803
aF-3.2586634159088135
aF-2.983457326889038
aF-2.774434804916382
aF-2.6420819759368896
aF-2.5834226608276367
aF-2.5711324214935303
aF-2.6311001777648926
aF-2.739741802215576
aF-2.936229705810547
aF-3.2726986408233643
aF-3.741924285888672
aF-4.408681869506836
aF-5.269716262817383
aF-6.365392684936523
aF-7.7046799659729
aF-8.700811386108398
aF-10.471335411071777
aF-8.903929710388184
aF-7.535298824310303
aF-6.30171537399292
aF-5.198758602142334
aF-4.216507434844971
aF-3.4271960258483887
aF-2.83878493309021
aF-2.251767635345459
aF-1.7652851343154907
aF-1.4349876642227173
aF-1.1367443799972534
aF-0.9359461069107056
aF-0.7673338055610657
aF-0.6434702277183533
aF-0.5495562553405762
aF-0.4792301654815674
aF-0.43205726146698
aF-0.4080279469490051
aF-0.3973955810070038
aF-0.40276038646698
aF-0.4151619076728821
aF-0.4312504231929779
aF-0.4537617862224579
aF-0.48516690731048584
aF-0.5226377844810486
aF-0.5774940252304077
aF-0.6383631825447083
aF-0.7148551940917969
aF-0.8237192034721375
aF-0.9560754299163818
aF-1.1068209409713745
aF-1.3183226585388184
aF-1.561532974243164
aF-1.8937114477157593
aF-2.3141894340515137
aF-2.7068564891815186
aF-3.381526231765747
aF-3.987504005432129
aF-5.101452827453613
aF-6.112622261047363
aF-7.588336944580078
aF-9.134113311767578
aF-10.281636238098145
aF-8.561284065246582
aF-7.116811752319336
aF-5.772460460662842
aF-4.6511430740356445
aF-3.693866014480591
aF-2.8648459911346436
aF-2.1727664470672607
aF-1.6470414400100708
aF-1.2286666631698608
aF-0.9576277732849121
aF-0.7020692825317383
aF-0.5122658014297485
aF-0.3694803714752197
aF-0.25971734523773193
aF-0.19054828584194183
aF-0.13914142549037933
aF-0.11270373314619064
aF-0.09819526970386505
aF-0.09737890958786011
aF-0.09886761754751205
aF-0.10600288212299347
aF-0.11045222729444504
aF-0.1168774738907814
aF-0.11785898357629776
aF-0.1212257444858551
aF-0.11821871250867844
aF-0.11651211231946945
aF-0.1105368435382843
aF-0.10381824523210526
aF-0.10303904861211777
aF-0.10077431797981262
aF-0.10009878128767014
aF-0.10017429292201996
aF-0.098957359790802
aF-0.09763026237487793
aF-0.09610007703304291
aF-0.09495853632688522
aF-0.09331865608692169
aF-0.09192845970392227
aF-0.09201466292142868
aF-0.08852800726890564
aF-0.08415313810110092
aF-0.08007311820983887
aF-0.07641538232564926
aF-0.07229085266590118
aF-0.07008242607116699
aF-0.0689241886138916
aF-0.06934783607721329
aF-0.07058023661375046
aF-0.0715399980545044
aF-0.07064865529537201
aF-0.06916680186986923
aF-0.06620439887046814
aF-0.06310489028692245
aF-0.05958334356546402
aF-0.05347464978694916
aF-0.047939613461494446
aF-0.04188941419124603
aF-0.03581332415342331
aF-0.031155144795775414
aF-0.02881118282675743
aF-0.027021674439311028
aF-0.02504854090511799
aF-0.02393730916082859
aF-0.02233429066836834
aF-0.022155053913593292
aF-0.022855455055832863
aF-0.024787208065390587
aF-0.025369901210069656
aF-0.030767124146223068
aF-0.028088955208659172
aF-0.028700925409793854
aF-0.026106739416718483
aF-0.02327156998217106
aF-0.019932249560952187
aF-0.017366310581564903
aF-0.014639288187026978
aF-0.013662918470799923
aF-0.014063813723623753
aF-0.014808270148932934
aF-0.015400734730064869
aF-0.015893451869487762
aF-0.015551196411252022
aF-0.015775179490447044
aF-0.01584380678832531
aF-0.018196769058704376
aF-0.015133270993828773
aF-0.013326462358236313
aF-0.011918572708964348
aF-0.010057731531560421
aF-0.008050152100622654
aF-0.003791622817516327
aF-0.002141566015779972
aF-0.0015155778964981437
aF-0.001548433443531394
aF-0.0025329007767140865
aF-0.004671923816204071
aF-10.811680793762207
aF-9.810786247253418
aF-9.830455780029297
aF-9.870748519897461
aF-9.774585723876953
aF-9.658286094665527
aF-9.522616386413574
aF-9.33537483215332
aF-9.110937118530273
aF-8.884895324707031
aF-8.599684715270996
aF-8.293097496032715
aF-8.001898765563965
aF-7.665730953216553
aF-7.322729110717773
aF-6.999635219573975
aF-6.676126480102539
aF-6.356788158416748
aF-6.056443691253662
aF-5.8027520179748535
aF-5.600403308868408
aF-5.420869827270508
aF-5.285093784332275
aF-5.192638397216797
aF-5.14853572845459
aF-5.147426128387451
aF-5.218629837036133
aF-5.3375983238220215
aF-5.537390232086182
aF-5.8388872146606445
aF-6.2474799156188965
aF-6.838553428649902
aF-7.522768974304199
aF-8.254464149475098
aF-9.16543197631836
aF-10.072186470031738
aF-9.126668930053711
aF-8.20625114440918
aF-7.301259994506836
aF-6.457127571105957
aF-5.701782703399658
aF-4.9763689041137695
aF-4.379299163818359
aF-3.862023115158081
aF-3.4281327724456787
aF-3.0944008827209473
aF-2.8411953449249268
aF-2.6620330810546875
aF-2.5486435890197754
aF-2.502545118331909
aF-2.5071239471435547
aF-2.5930533409118652
aF-2.7484421730041504
aF-3.0077412128448486
aF-3.4478352069854736
aF-4.063546180725098
aF-4.912003517150879
aF-5.840965270996094
aF-7.192200660705566
aF-8.482475280761719
aF-10.055451393127441
aF-9.335079193115234
aF-7.942219257354736
aF-6.591799259185791
aF-5.460702896118164
aF-4.414648056030273
aF-3.59236216545105
aF-2.918693780899048
aF-2.319329261779785
aF-1.8570959568023682
aF-1.463586688041687
aF-1.162496566772461
aF-0.9243367910385132
aF-0.7396106123924255
aF-0.6037575006484985
aF-0.5045280456542969
aF-0.43225693702697754
aF-0.3779289126396179
aF-0.34293919801712036
aF-0.3199706971645355
aF-0.3097893297672272
aF-0.3048405647277832
aF-0.3014119565486908
aF-0.3028116226196289
aF-0.3026638627052307
aF-0.30634674429893494
aF-0.31255707144737244
aF-0.3167986571788788
aF-0.32032209634780884
aF-0.32760268449783325
aF-0.3345561921596527
aF-0.3419588506221771
aF-0.3440474271774292
aF-0.35124310851097107
aF-0.3648681342601776
aF-0.3807411193847656
aF-0.40104928612709045
aF-0.4235451817512512
aF-0.46072137355804443
aF-0.4904814064502716
aF-0.5597043633460999
aF-0.6117649078369141
aF-0.7038712501525879
aF-0.805727481842041
aF-0.9381622076034546
aF-1.1315891742706299
aF-1.325663447380066
aF-1.623813509941101
aF-2.0142810344696045
aF-2.407149076461792
aF-2.9379072189331055
aF-3.5518505573272705
aF-4.251355171203613
aF-5.4162702560424805
aF-6.603744983673096
aF-8.140754699707031
aF-9.796063423156738
aF-9.662571907043457
aF-8.056612014770508
aF-6.647425651550293
aF-5.420243263244629
aF-4.37553596496582
aF-3.380596399307251
aF-2.6524007320404053
aF-2.0679545402526855
aF-1.5462251901626587
aF-1.1455246210098267
aF-0.8662543296813965
aF-0.6330642700195312
aF-0.45877718925476074
aF-0.3299703896045685
aF-0.24612581729888916
aF-0.1829959750175476
aF-0.14418449997901917
aF-0.1209474429488182
aF-0.11879055947065353
aF-0.12312093377113342
aF-0.1355385035276413
aF-0.1442277878522873
aF-0.15688331425189972
aF-0.16334302723407745
aF-0.16989293694496155
aF-0.17121319472789764
aF-0.17382818460464478
aF-0.177798792719841
aF-0.17913411557674408
aF-0.18366345763206482
aF-0.18542741239070892
aF-0.18769465386867523
aF-0.1891840249300003
aF-0.18775305151939392
aF-0.18852683901786804
aF-0.18438033759593964
aF-0.18230211734771729
aF-0.1794261485338211
aF-0.178525909781456
aF-0.1741003841161728
aF-0.17438115179538727
aF-0.17264559864997864
aF-0.1733720600605011
aF-0.16976580023765564
aF-0.16639044880867004
aF-0.16297274827957153
aF-0.1565704196691513
aF-0.14458443224430084
aF-0.13532891869544983
aF-0.12531618773937225
aF-0.11531882733106613
aF-0.10782424360513687
aF-0.09845966100692749
aF-0.09345351904630661
aF-0.08896946907043457
aF-0.08498305082321167
aF-0.08286676555871964
aF-0.07979699969291687
aF-0.07739271968603134
aF-0.07415361702442169
aF-0.07229006290435791
aF-0.07072190195322037
aF-0.07028134912252426
aF-0.07054933905601501
aF-0.07229018956422806
aF-0.07116150110960007
aF-0.06867263466119766
aF-0.06504129618406296
aF-0.061322443187236786
aF-0.05591382458806038
aF-0.05283522605895996
aF-0.049132708460092545
aF-0.04450230300426483
aF-0.0394713319838047
aF-0.03474888205528259
aF-0.03023010678589344
aF-0.02650589495897293
aF-0.02521592751145363
aF-0.027162237092852592
aF-0.028861915692687035
aF-0.03254611790180206
aF-0.03224554657936096
a.