(lp0
F-5.645669460296631
aF-10.851712226867676
aF-9.849861145019531
aF-9.849864959716797
aF-9.812288284301758
aF-9.753241539001465
aF-9.694764137268066
aF-9.598220825195312
aF-9.46446418762207
aF-9.297636032104492
aF-9.089624404907227
aF-8.866805076599121
aF-8.611311912536621
aF-8.341730117797852
aF-8.013328552246094
aF-7.678907871246338
aF-7.351212978363037
aF-7.0079498291015625
aF-6.675897121429443
aF-6.381523132324219
aF-6.099766254425049
aF-5.872112274169922
aF-5.673725128173828
aF-5.507550239562988
aF-5.382697582244873
aF-5.30908727645874
aF-5.290079116821289
aF-5.31976318359375
aF-5.425045490264893
aF-5.578728199005127
aF-5.760913372039795
aF-6.033467769622803
aF-6.334568023681641
aF-6.677202224731445
aF-7.082883358001709
aF-7.488242149353027
aF-7.9494428634643555
aF-8.438718795776367
aF-9.033099174499512
aF-9.701085090637207
aF-9.573019027709961
aF-8.873584747314453
aF-8.160332679748535
aF-7.484481334686279
aF-6.824496746063232
aF-6.192212104797363
aF-5.612553596496582
aF-5.097839832305908
aF-4.662017345428467
aF-4.297644138336182
aF-3.994093656539917
aF-3.7621142864227295
aF-3.6133947372436523
aF-3.5351412296295166
aF-3.5322325229644775
aF-3.61838698387146
aF-3.7887487411499023
aF-4.009856700897217
aF-4.359836101531982
aF-4.7451019287109375
aF-5.19100284576416
aF-5.660952568054199
aF-6.275345325469971
aF-6.92779541015625
aF-7.672453880310059
aF-8.431203842163086
aF-9.335819244384766
aF-9.91690444946289
aF-9.077795028686523
aF-8.191215515136719
aF-7.286860466003418
aF-6.473696708679199
aF-5.773114204406738
aF-5.137114524841309
aF-4.539706707000732
aF-4.0764689445495605
aF-3.6953353881835938
aF-3.3807735443115234
aF-3.142883539199829
aF-3.000507354736328
aF-2.9280295372009277
aF-2.9226763248443604
aF-2.9809699058532715
aF-3.107844829559326
aF-3.300931930541992
aF-3.5756888389587402
aF-3.9952499866485596
aF-4.39028787612915
aF-4.9427571296691895
aF-5.545003890991211
aF-6.250824451446533
aF-6.9913105964660645
aF-7.791187286376953
aF-8.708213806152344
aF-9.454883575439453
aF-9.668158531188965
aF-8.711621284484863
aF-7.854689121246338
aF-7.0222601890563965
aF-6.225557804107666
aF-5.531406879425049
aF-4.907654285430908
aF-4.347567558288574
aF-3.9026377201080322
aF-3.520787000656128
aF-3.2249066829681396
aF-3.015742540359497
aF-2.8822884559631348
aF-2.80853271484375
aF-2.8072450160980225
aF-2.849727153778076
aF-3.016143560409546
aF-3.226430892944336
aF-3.5268335342407227
aF-3.8981502056121826
aF-4.3922200202941895
aF-5.019284248352051
aF-5.65446662902832
aF-6.391822814941406
aF-7.275634288787842
aF-8.195993423461914
aF-9.22087574005127
aF-10.037617683410645
aF-8.99806022644043
aF-7.988994121551514
aF-7.066943645477295
aF-6.222074031829834
aF-5.455580711364746
aF-4.767899036407471
aF-4.1750969886779785
aF-3.697439432144165
aF-3.297987937927246
aF-2.9706814289093018
aF-2.7394981384277344
aF-2.5773067474365234
aF-2.485633611679077
aF-2.461899757385254
aF-2.501993179321289
aF-2.610433340072632
aF-2.789074420928955
aF-3.028404712677002
aF-3.3545641899108887
aF-3.7384960651397705
aF-4.232481002807617
aF-4.842504501342773
aF-5.489136219024658
aF-6.3032965660095215
aF-7.169139385223389
aF-7.965190410614014
aF-8.957378387451172
aF-9.910234451293945
aF-9.305377960205078
aF-8.348917007446289
aF-7.432038307189941
aF-6.571437358856201
aF-5.796450138092041
aF-5.090450286865234
aF-4.487371921539307
aF-3.978915214538574
aF-3.5375308990478516
aF-3.1857621669769287
aF-2.9211788177490234
aF-2.7287559509277344
aF-2.6104326248168945
aF-2.561573028564453
aF-2.5815188884735107
aF-2.6563050746917725
aF-2.8011696338653564
aF-3.021782636642456
aF-3.291529893875122
aF-3.6569976806640625
aF-4.136636257171631
aF-4.585052967071533
aF-5.207638740539551
aF-6.003342628479004
aF-6.708046913146973
aF-7.639281749725342
aF-8.436006546020508
aF-9.46524429321289
aF-9.774893760681152
aF-8.776284217834473
aF-7.82274866104126
aF-6.92435359954834
aF-6.0762176513671875
aF-5.317445278167725
aF-4.64661979675293
aF-4.092339038848877
aF-3.5821287631988525
aF-3.197260618209839
aF-2.8942148685455322
aF-2.671396255493164
aF-2.5030300617218018
aF-2.4004125595092773
aF-2.3724286556243896
aF-2.40360951423645
aF-2.49700665473938
aF-2.675447702407837
aF-2.911231279373169
aF-3.2158851623535156
aF-3.667496919631958
a.