(lp0
F-2.0964309399573722e-08
aF-10.833915710449219
aF-9.830148696899414
aF-9.850029945373535
aF-9.81203842163086
aF-9.696334838867188
aF-9.579879760742188
aF-9.445582389831543
aF-9.311095237731934
aF-9.160423278808594
aF-8.975282669067383
aF-8.75521469116211
aF-8.50179386138916
aF-8.217851638793945
aF-7.931468486785889
aF-7.582170486450195
aF-7.250247478485107
aF-6.8962626457214355
aF-6.575300216674805
aF-6.262394905090332
aF-5.976593017578125
aF-5.727874755859375
aF-5.500521183013916
aF-5.306155204772949
aF-5.157034397125244
aF-5.064870357513428
aF-5.019194602966309
aF-5.034399509429932
aF-5.105707168579102
aF-5.271276473999023
aF-5.4638471603393555
aF-5.745058536529541
aF-6.114751815795898
aF-6.579153060913086
aF-7.263132095336914
aF-7.891493320465088
aF-8.92227840423584
aF-9.921348571777344
aF-9.26169204711914
aF-8.19375991821289
aF-7.173473358154297
aF-6.219922065734863
aF-5.262335777282715
aF-4.404094219207764
aF-3.717282295227051
aF-3.124541759490967
aF-2.5898704528808594
aF-2.191771984100342
aF-1.859816074371338
aF-1.6066888570785522
aF-1.4038076400756836
aF-1.244710087776184
aF-1.1316933631896973
aF-1.0506267547607422
aF-0.9929769039154053
aF-0.9701095223426819
aF-0.9625170230865479
aF-0.9966455698013306
aF-1.0597866773605347
aF-1.16268789768219
aF-1.3185402154922485
aF-1.4996708631515503
aF-1.7421034574508667
aF-2.0189309120178223
aF-2.3761470317840576
aF-2.7968554496765137
aF-3.353947639465332
aF-3.9619243144989014
aF-4.7058424949646
aF-5.4863667488098145
aF-6.477278709411621
aF-7.45313024520874
aF-8.90768051147461
aF-10.404943466186523
aF-8.949764251708984
aF-7.661298751831055
aF-6.449570655822754
aF-5.241064071655273
aF-4.30904483795166
aF-3.4209816455841064
aF-2.708242416381836
aF-2.115125894546509
aF-1.6335185766220093
aF-1.2026959657669067
aF-0.9210395812988281
aF-0.6911982297897339
aF-0.4873895049095154
aF-0.34355640411376953
aF-0.21514427661895752
aF-0.13832353055477142
aF-0.09180204570293427
aF-0.0507328025996685
aF-0.02539728209376335
aF-0.014966207556426525
aF-0.0021530967205762863
aF-0.0004522137460298836
aF-0.002821774687618017
aF-0.006048655137419701
aF-0.006939398590475321
aF-0.012275871820747852
aF-0.00938001275062561
aF-0.009859686717391014
aF-0.009319300763309002
aF-0.007745303213596344
aF-0.006841580383479595
aF-0.011077522300183773
aF-0.014886438846588135
aF-0.014484202489256859
aF-0.00892692431807518
aF-0.0076952907256782055
aF-0.0051659997552633286
aF-0.005116247572004795
aF-0.00909958966076374
aF-0.012670342810451984
aF-0.010015787556767464
aF-0.009269294328987598
aF-0.003674600273370743
aF-0.004295896738767624
aF-0.006741920951753855
aF-0.006405344232916832
aF-0.0013448512181639671
aF-0.0003138055035378784
aF-0.003438110463321209
aF-0.007968378253281116
aF-0.011308644898235798
aF-0.008644411340355873
aF-0.010990689508616924
aF-0.0089224549010396
aF-0.00887956190854311
aF-0.007587979547679424
aF-0.006047041621059179
aF-0.003603454912081361
aF-0.003067535115405917
aF-0.0015936469426378608
aF-0.0015868901973590255
aF-0.0031210603192448616
aF-0.007433698046952486
aF-0.007538921199738979
aF-0.010912110097706318
aF-0.012938308529555798
aF-0.01229191105812788
aF-0.011421434581279755
aF-0.011397356167435646
aF-0.00990793015807867
aF-0.008125556632876396
aF-0.008600438944995403
aF-0.015151402913033962
aF-0.021119453012943268
aF-0.026251642033457756
aF-0.02914700284600258
aF-0.025283366441726685
aF-0.02235584333539009
aF-0.022040333598852158
aF-0.01603713445365429
aF-0.009960044175386429
aF-0.004440415184944868
aF-0.0036675995215773582
aF-0.004876766353845596
aF-0.007673777639865875
aF-0.012228700332343578
aF-0.014675804413855076
aF-0.016972554847598076
aF-0.016250118613243103
aF-0.015877019613981247
aF-0.014722228981554508
aF-0.012941068038344383
aF-0.011559095233678818
aF-0.010976236313581467
aF-0.010942995548248291
aF-0.011609532870352268
aF-0.013316120021045208
aF-0.01418790128082037
aF-0.017267322167754173
aF-0.01937207207083702
aF-0.02237837016582489
aF-0.021510109305381775
aF-0.02091914787888527
aF-0.019489042460918427
aF-0.01787712424993515
aF-0.016777403652668
aF-0.018111780285835266
aF-0.01750461384654045
aF-0.017556795850396156
aF-0.01747751422226429
aF-0.017562631517648697
aF-0.017500735819339752
aF-0.019273316487669945
aF-0.02110508643090725
aF-0.022206833586096764
aF-0.020013710483908653
aF-0.019378138706088066
aF-0.017913170158863068
aF-0.013138231821358204
aF-0.01064859889447689
aF-0.007108096964657307
aF-0.007103983778506517
aF-0.009403154253959656
aF-0.01252118032425642
aF-0.02156541310250759
aF-0.023101583123207092
aF-0.023068051785230637
aF-10.813344955444336
aF-9.810539245605469
aF-9.790959358215332
aF-9.715079307556152
aF-9.635927200317383
aF-9.558197975158691
aF-9.426448822021484
aF-9.29238224029541
aF-9.124214172363281
aF-8.935975074768066
aF-8.717698097229004
aF-8.450809478759766
aF-8.177986145019531
aF-7.882900714874268
aF-7.571305751800537
aF-7.2516326904296875
aF-6.9339375495910645
aF-6.62447452545166
aF-6.297092914581299
aF-6.017699241638184
aF-5.737163066864014
aF-5.489757537841797
aF-5.304051876068115
aF-5.157402038574219
aF-5.0669660568237305
aF-5.020596027374268
aF-5.020544052124023
aF-5.047556400299072
aF-5.136397838592529
aF-5.283984661102295
aF-5.445469379425049
aF-5.694222450256348
aF-6.010164260864258
aF-6.462095260620117
aF-6.898726940155029
aF-7.555418968200684
aF-8.235060691833496
aF-9.167038917541504
aF-10.03033447265625
aF-9.008784294128418
aF-7.954644203186035
aF-6.918008804321289
aF-5.986024856567383
aF-5.1381402015686035
aF-4.391587734222412
aF-3.712773561477661
aF-3.1547021865844727
aF-2.6731762886047363
aF-2.2845301628112793
aF-1.9506703615188599
aF-1.6955311298370361
aF-1.5072224140167236
aF-1.3566434383392334
aF-1.2492705583572388
aF-1.1791949272155762
aF-1.150723934173584
aF-1.1727429628372192
aF-1.216287612915039
aF-1.300296425819397
aF-1.4299557209014893
aF-1.5732661485671997
aF-1.8012360334396362
aF-2.0836079120635986
aF-2.3893823623657227
aF-2.820168972015381
aF-3.2360663414001465
aF-3.922861099243164
aF-4.630309104919434
aF-5.46437931060791
aF-6.324993133544922
aF-7.335321426391602
aF-8.38719654083252
aF-9.759148597717285
aF-9.476934432983398
aF-8.121809005737305
aF-6.867645740509033
aF-5.677822113037109
aF-4.789413928985596
aF-3.8252968788146973
aF-3.049377679824829
aF-2.499138116836548
aF-1.9277901649475098
aF-1.5005546808242798
aF-1.1505084037780762
aF-0.9223856329917908
aF-0.7216758131980896
aF-0.5411607623100281
aF-0.4304980933666229
aF-0.31774139404296875
aF-0.2411244809627533
aF-0.1852971315383911
aF-0.14615947008132935
aF-0.11841517686843872
aF-0.0983986034989357
aF-0.08515617996454239
aF-0.0767056792974472
aF-0.07119668275117874
aF-0.06694440543651581
aF-0.059008944779634476
aF-0.051942527294158936
aF-0.04385437071323395
aF-0.034580033272504807
aF-0.026700183749198914
aF-0.01994701847434044
aF-0.014010787010192871
aF-0.010064191184937954
aF-0.007916542701423168
aF-0.008772050961852074
aF-0.011737756431102753
aF-0.008076673373579979
aF-0.007389790378510952
aF-0.006833596620708704
aF-0.009105652570724487
aF-0.010296638123691082
aF-0.01068221777677536
aF-0.005415980238467455
aF-0.00433152774348855
aF-0.003969309851527214
aF-0.002147468738257885
aF-0.0028670665342360735
aF-0.0009048675419762731
aF-0.00022308396000880748
aF-0.0002975607058033347
aF-0.00029993485077284276
aF-0.0010990218725055456
aF-0.0014213478425517678
aF-0.0024259225465357304
aF-0.0010635852813720703
aF-0.0010970410658046603
aF-0.0012333146296441555
aF-0.0015656016767024994
aF-0.0006073160911910236
aF-0.0008333668229170144
aF-0.0009998665191233158
aF-0.0009124937932938337
aF-0.0004957228084094822
aF-0.00048037810483947396
aF-0.0016816745046526194
aF-0.003260710509493947
aF-0.00045975754619576037
aF-0.0005751778953708708
aF-0.003158288775011897
aF-0.003059317823499441
aF-0.0066403052769601345
aF-0.00607531052082777
aF-0.007657377514988184
aF-0.006130415014922619
aF-0.005339983385056257
aF-0.005910634994506836
aF-0.005839263089001179
aF-0.002908997470512986
aF-0.0019756110850721598
aF-0.00813512597233057
aF-0.010215393267571926
aF-0.015760954469442368
aF-0.017009928822517395
aF-0.015424384735524654
aF-0.01687178760766983
aF-0.015753626823425293
aF-0.013888103887438774
aF-0.01255886536091566
aF-0.010968758724629879
aF-0.009129556827247143
aF-0.007071451749652624
aF-0.006077746395021677
aF-0.00801619328558445
aF-0.01043619867414236
aF-0.012256571091711521
aF-0.011955207213759422
aF-0.010784215293824673
aF-0.009858652018010616
aF-0.008089045993983746
aF-0.006536641623824835
aF-0.0033849526662379503
aF-0.002698955126106739
aF-0.0013341258745640516
aF-0.0013924213126301765
aF-0.00036816601641476154
aF-0.0015563007909804583
aF-0.002440611133351922
aF-0.0033845193684101105
aF-0.0034940834157168865
aF-0.005632906686514616
aF-0.004339527804404497
aF-0.003853714093565941
aF-0.004064579959958792
aF-0.003264162689447403
aF-0.0025252734776586294
aF-0.0017967827152460814
aF-0.005451662931591272
aF-0.0021102861501276493
aF-0.0002825194096658379
aF-0.0016808093059808016
aF-0.006500930525362492
aF-0.012480798177421093
aF-0.01750948466360569
aF-0.015060646459460258
aF-0.014255207031965256
aF-0.01224597543478012
aF-0.010184327140450478
aF-10.793683052062988
aF-9.790817260742188
aF-9.772123336791992
aF-9.695348739624023
aF-9.598530769348145
aF-9.447309494018555
aF-9.275904655456543
aF-9.055036544799805
aF-8.79610824584961
aF-8.507577896118164
aF-8.217096328735352
aF-7.889593124389648
aF-7.530783653259277
aF-7.1868720054626465
aF-6.805004596710205
aF-6.443604946136475
aF-6.122138500213623
aF-5.825623989105225
aF-5.555055141448975
aF-5.339062690734863
aF-5.1602277755737305
aF-5.014936923980713
aF-4.939569473266602
aF-4.909299373626709
aF-4.9365010261535645
aF-5.008257865905762
aF-5.108774662017822
aF-5.2711710929870605
aF-5.464505195617676
aF-5.7453389167785645
aF-6.07545804977417
aF-6.463960647583008
aF-7.024713039398193
aF-7.565186023712158
aF-8.423277854919434
aF-9.263772964477539
aF-9.882637023925781
aF-8.895442008972168
aF-7.881078243255615
aF-6.839958667755127
aF-5.959855079650879
aF-5.0700531005859375
aF-4.298236846923828
aF-3.654541492462158
aF-3.099327564239502
aF-2.6158711910247803
aF-2.2392847537994385
aF-1.9151593446731567
aF-1.6756137609481812
aF-1.4902676343917847
aF-1.3511148691177368
aF-1.2538678646087646
aF-1.194058895111084
aF-1.1790904998779297
aF-1.1987930536270142
aF-1.2691935300827026
aF-1.3333934545516968
aF-1.4778536558151245
aF-1.654388189315796
aF-1.8760055303573608
aF-2.135773181915283
aF-2.503945827484131
aF-2.924154758453369
aF-3.5002896785736084
aF-4.1427693367004395
aF-4.800586223602295
aF-5.606140613555908
aF-6.644845962524414
aF-7.734809398651123
aF-8.854987144470215
aF-10.257791519165039
aF-9.044868469238281
aF-7.784221172332764
aF-6.524562358856201
aF-5.462859630584717
aF-4.504040718078613
aF-3.627626419067383
aF-2.91879940032959
aF-2.334486961364746
aF-1.7857286930084229
aF-1.4028246402740479
aF-1.0979645252227783
aF-0.8489918112754822
aF-0.6626402139663696
aF-0.5122917890548706
aF-0.39590370655059814
aF-0.3037729263305664
aF-0.2311985194683075
aF-0.18533048033714294
aF-0.14667975902557373
aF-0.12322000414133072
aF-0.10859452933073044
aF-0.09842021763324738
aF-0.09179798513650894
aF-0.08887936174869537
aF-0.08492216467857361
aF-0.08264384418725967
aF-0.07554171234369278
aF-0.06882338225841522
aF-0.06403202563524246
aF-0.056162573397159576
aF-0.050455957651138306
aF-0.04599142074584961
aF-0.041691120713949203
aF-0.037732090801000595
aF-0.03274190425872803
aF-0.028178134933114052
aF-0.024102745577692986
aF-0.019994612783193588
aF-0.016477011144161224
aF-0.013824607245624065
aF-0.014973852783441544
aF-0.010383818298578262
aF-0.008691493421792984
aF-0.008028085343539715
aF-0.0060117486864328384
aF-0.0037350065540522337
aF-0.0023075006902217865
aF-0.001458148006349802
aF-0.0019253056962043047
aF-0.0014464372070506215
aF-0.0016688574105501175
aF-0.0013873501447960734
aF-0.0015617853496223688
aF-0.0042435540817677975
aF-0.0022019068710505962
aF-0.0003211451694369316
aF-0.0009353497298434377
aF-0.002698215888813138
aF-0.004159112460911274
aF-0.005161955952644348
aF-0.001177266356535256
aF-0.0021048809867352247
aF-0.00587169174104929
aF-0.013327355496585369
aF-0.013925614766776562
aF-0.017133988440036774
aF-0.015508357435464859
aF-0.013878346420824528
aF-0.013739150017499924
aF-0.0125504145398736
aF-0.011143049225211143
aF-0.010639647953212261
aF-0.010650308802723885
aF-0.01402031909674406
aF-0.012326469644904137
aF-0.013032231479883194
aF-0.011615404859185219
aF-0.009165767580270767
aF-0.00806509517133236
aF-0.007311649154871702
aF-0.0057012951001524925
aF-0.005508524365723133
aF-0.0029908304568380117
aF-0.0004837472806684673
aF-0.0004972672322764993
aF-0.0038885020185261965
aF-0.006418320350348949
aF-0.012265251018106937
aF-0.019743433222174644
aF-0.027066074311733246
aF-0.027313929051160812
aF-0.026718638837337494
aF-0.028054719790816307
aF-0.022617606446146965
aF-0.020132724195718765
aF-0.017421437427401543
aF-0.013969523832201958
aF-0.006259706802666187
aF-0.004658062476664782
aF-0.004485247656702995
aF-0.006618359591811895
aF-0.009447514079511166
aF-0.016880271956324577
aF-0.02016722597181797
aF-0.028146786615252495
aF-0.025425374507904053
aF-0.025388896465301514
aF-0.023320628330111504
aF-0.01971186138689518
aF-0.015873299911618233
aF-0.013929258100688457
aF-0.01105132233351469
aF-0.005666300188750029
aF-0.005368751008063555
aF-0.00937927607446909
aF-0.021890532225370407
aF-0.025773804634809494
aF-0.03104924038052559
aF-0.032213468104600906
aF-0.030750665813684464
aF-0.027076849713921547
aF-0.02421368472278118
aF-0.021219952031970024
aF-0.016483573243021965
aF-0.011743666604161263
aF-0.009590471163392067
aF-0.0117949228733778
aF-0.02015497162938118
aF-0.024203667417168617
aF-10.793681144714355
aF-9.790789604187012
aF-9.772183418273926
aF-9.713949203491211
aF-9.617606163024902
aF-9.485749244689941
aF-9.314899444580078
aF-9.109037399291992
aF-8.867941856384277
aF-8.581774711608887
aF-8.25919246673584
aF-7.896081447601318
aF-7.530406475067139
aF-7.160405158996582
aF-6.797359466552734
aF-6.454850196838379
aF-6.137070178985596
aF-5.841054916381836
aF-5.5818352699279785
aF-5.355618476867676
aF-5.188366889953613
aF-5.068883895874023
aF-4.979814529418945
aF-4.9514546394348145
aF-4.9637131690979
aF-5.035696983337402
aF-5.151739597320557
aF-5.33161735534668
aF-5.557682037353516
aF-5.872802734375
aF-6.1802825927734375
aF-6.7025146484375
aF-7.241721153259277
aF-7.908941745758057
aF-8.804728507995605
aF-9.729998588562012
aF-9.439915657043457
aF-8.425196647644043
aF-7.382800102233887
aF-6.350003719329834
aF-5.514533996582031
aF-4.686436653137207
aF-3.9671080112457275
aF-3.3629817962646484
aF-2.8582751750946045
aF-2.430054187774658
aF-2.0747289657592773
aF-1.8072562217712402
aF-1.5953878164291382
aF-1.4343082904815674
aF-1.3080567121505737
aF-1.224349021911621
aF-1.193476676940918
aF-1.1989986896514893
aF-1.2432957887649536
aF-1.3298426866531372
aF-1.4598808288574219
aF-1.5922993421554565
aF-1.8392294645309448
aF-2.0912728309631348
aF-2.43953800201416
aF-2.8612570762634277
aF-3.29860782623291
aF-3.961942434310913
aF-4.637441635131836
aF-5.517860412597656
aF-6.450212478637695
aF-7.435598373413086
aF-8.523731231689453
aF-10.055658340454102
aF-9.274150848388672
aF-7.9954633712768555
aF-6.7903289794921875
aF-5.604270935058594
aF-4.630622386932373
aF-3.7563438415527344
aF-2.9890289306640625
aF-2.3963937759399414
aF-1.8956005573272705
aF-1.4685620069503784
aF-1.137458086013794
aF-0.9058611989021301
aF-0.7044728398323059
aF-0.537523627281189
aF-0.41766440868377686
aF-0.32458120584487915
aF-0.2460971623659134
aF-0.19676968455314636
aF-0.15754394233226776
aF-0.12694619596004486
aF-0.1041312888264656
aF-0.08574432879686356
aF-0.07301533967256546
aF-0.06318674236536026
aF-0.055501218885183334
aF-0.05272860825061798
aF-0.04992645978927612
aF-0.04987409710884094
aF-0.049645353108644485
aF-0.04930170997977257
aF-0.04529735818505287
aF-0.04025314748287201
aF-0.034297820180654526
aF-0.027606023475527763
aF-0.023925917223095894
aF-0.016258008778095245
aF-0.009240450337529182
aF-0.003976745065301657
aF-0.0025055157020688057
aF-0.0029106452129781246
aF-0.003042969387024641
aF-0.002991012530401349
aF-0.0023736609145998955
aF-0.0022428538650274277
aF-0.0021376509685069323
aF-0.0034734471701085567
aF-0.001855482580140233
aF-0.0018995142308995128
aF-0.0006022503948770463
aF-0.0006921552121639252
aF-0.003976566717028618
aF-0.00559918163344264
aF-0.009582173079252243
aF-0.009631249122321606
aF-0.0066235787235200405
aF-0.006349707022309303
aF-0.00550825335085392
aF-0.005269628018140793
aF-0.004863031208515167
aF-0.005305224098265171
aF-0.0014987345784902573
aF-0.004626166075468063
aF-0.0031296254601329565
aF-0.0023439666256308556
aF-0.00273510511033237
aF-0.002236917382106185
aF-0.0024002701975405216
aF-0.0021592096891254187
aF-0.002444004872813821
aF-0.0016669126925989985
aF-0.0005329567356966436
aF-0.004832935519516468
aF-0.0008167680935002863
aF-0.001724405330605805
aF-0.0016781778540462255
aF-0.005956254433840513
aF-0.011326383799314499
aF-0.011563863605260849
aF-0.00790590513497591
aF-0.0067296139895915985
aF-0.007042690180242062
aF-0.005342166870832443
aF-0.003828875720500946
aF-0.003645005403086543
aF-0.0008018024382181466
aF-0.0006690901936963201
aF-0.004094806499779224
aF-0.008066581562161446
aF-0.019016603007912636
aF-0.024852480739355087
aF-0.02521565929055214
aF-0.025889720767736435
aF-0.02256142534315586
aF-0.020136304199695587
aF-0.017515163868665695
aF-0.013369323685765266
aF-0.01115991547703743
aF-0.006717181298881769
aF-0.0057029277086257935
aF-0.005457492545247078
aF-0.0127190463244915
aF-0.01794777810573578
aF-0.023853503167629242
aF-0.02259451523423195
aF-0.020977457985281944
aF-0.020774973556399345
aF-0.017283093184232712
aF-0.013644763268530369
aF-0.01266878005117178
aF-0.009148208424448967
aF-0.006901421584188938
aF-0.005775563884526491
aF-0.010901720263063908
aF-0.012565015815198421
aF-0.013693504966795444
aF-0.015530391596257687
aF-0.012364484369754791
aF-0.010479225777089596
aF-0.010875479318201542
aF-0.008776036091148853
aF-0.007692042738199234
aF-0.0033061520662158728
aF-0.0009231324074789882
aF-0.00019277018145658076
aF-0.0037107046227902174
aF-0.005042518489062786
aF-0.004347640089690685
aF-0.003761269384995103
aF-0.003629192477092147
aF-0.001926508964970708
aF-10.774042129516602
aF-9.77114486694336
aF-9.77114486694336
aF-9.694931030273438
aF-9.599048614501953
aF-9.52043628692627
aF-9.405662536621094
aF-9.256552696228027
aF-9.06878662109375
aF-8.832365989685059
aF-8.560599327087402
aF-8.257174491882324
aF-7.9098100662231445
aF-7.548369884490967
aF-7.16538667678833
aF-6.761443138122559
aF-6.383525848388672
aF-6.025847434997559
aF-5.698678970336914
aF-5.4011054039001465
aF-5.157103538513184
aF-4.95498514175415
aF-4.806909084320068
aF-4.707352161407471
aF-4.650038242340088
aF-4.635148525238037
aF-4.674241065979004
aF-4.758784294128418
aF-4.887272357940674
aF-5.077391624450684
aF-5.329863548278809
aF-5.6511406898498535
aF-5.987104415893555
aF-6.430315017700195
aF-7.020407199859619
aF-7.6176886558532715
aF-8.407755851745605
aF-9.401822090148926
aF-9.757600784301758
aF-8.688310623168945
aF-7.6356048583984375
aF-6.599318981170654
aF-5.677937984466553
aF-4.800360202789307
aF-4.049874782562256
aF-3.420294761657715
aF-2.868140935897827
aF-2.4418880939483643
aF-2.0801877975463867
aF-1.7771750688552856
aF-1.544934868812561
aF-1.3575246334075928
aF-1.2251964807510376
aF-1.1292401552200317
aF-1.061421275138855
aF-1.0286848545074463
aF-1.026559591293335
aF-1.059862494468689
aF-1.1072700023651123
aF-1.1985982656478882
aF-1.3205511569976807
aF-1.4912246465682983
aF-1.703026294708252
aF-2.0075571537017822
aF-2.3416683673858643
aF-2.7663865089416504
aF-3.2437691688537598
aF-3.9418187141418457
aF-4.5403666496276855
aF-5.482540607452393
aF-6.388208866119385
aF-7.45275354385376
aF-8.564496040344238
aF-9.881603240966797
aF-9.345717430114746
aF-7.99417781829834
aF-6.733697891235352
aF-5.602284908294678
aF-4.604898452758789
aF-3.756497621536255
aF-2.9889700412750244
aF-2.4037015438079834
aF-1.856475591659546
aF-1.4776281118392944
aF-1.1412075757980347
aF-0.8905672430992126
aF-0.6834669709205627
aF-0.5286751389503479
aF-0.3966125547885895
aF-0.30070722103118896
aF-0.23069284856319427
aF-0.17253100872039795
aF-0.13491933047771454
aF-0.11039850860834122
aF-0.09548096358776093
aF-0.08620990812778473
aF-0.082264244556427
aF-0.07883917540311813
aF-0.07082276046276093
aF-0.065689317882061
aF-0.05423656105995178
aF-0.044106319546699524
aF-0.03742038086056709
aF-0.028323477134108543
aF-0.015170701779425144
aF-0.0089951753616333
aF-0.004771261475980282
aF-0.006005060393363237
aF-0.010257327929139137
aF-0.008649436756968498
aF-0.010394533164799213
aF-0.007546793203800917
aF-0.006411733105778694
aF-0.005790607072412968
aF-0.0060667735524475574
aF-0.0040639243088662624
aF-0.003713418962433934
aF-0.0012812017230316997
aF-0.00121826131362468
aF-0.0007846485823392868
aF-0.0006200099596753716
aF-0.0017534518847241998
aF-0.0032361417543143034
aF-0.0072057838551700115
aF-0.010472430847585201
aF-0.015148351900279522
aF-0.014866428449749947
aF-0.014444572851061821
aF-0.013375385664403439
aF-0.010971179232001305
aF-0.009488914161920547
aF-0.01069870125502348
aF-0.010599745437502861
aF-0.006714062299579382
aF-0.0018071081722155213
aF-0.0020195632241666317
aF-0.009671098552644253
aF-0.026622069999575615
aF-0.0378635935485363
aF-0.04417595639824867
aF-0.057723551988601685
aF-0.06624524295330048
aF-0.07086384296417236
aF-0.07367110997438431
aF-0.07553990930318832
aF-0.07667447626590729
aF-0.07690652459859848
aF-0.07734750956296921
aF-0.07565248757600784
aF-0.06964801251888275
aF-0.06321217119693756
aF-0.05590521916747093
aF-0.047512300312519073
aF-0.03904500976204872
aF-0.03404037281870842
aF-0.032165076583623886
aF-0.03497900813817978
aF-0.03907591849565506
aF-0.046199191361665726
aF-0.05251424387097359
aF-0.05187930911779404
aF-0.053522590547800064
aF-0.05169404670596123
aF-0.050454117357730865
aF-0.04862523451447487
aF-0.04823324456810951
aF-0.04840754717588425
aF-0.04844849929213524
aF-0.04950348287820816
aF-0.04789545387029648
aF-0.042517900466918945
aF-0.03783867880702019
aF-0.03216548636555672
aF-0.0250883586704731
aF-0.01970452256500721
aF-0.01660824380815029
aF-0.01593850925564766
aF-0.01368690375238657
aF-0.014382902532815933
aF-0.013935702852904797
aF-0.015571064315736294
aF-0.015217368490993977
aF-0.015034645795822144
aF-0.015053178183734417
aF-0.014354142360389233
aF-0.014341802336275578
aF-0.015277089551091194
aF-0.017902720719575882
aF-0.019121859222650528
aF-0.02193317748606205
aF-0.025196755304932594
aF-0.021810192614793777
aF-0.022865306586027145
aF-0.019931914284825325
aF-0.017966410145163536
aF-0.016325974836945534
aF-0.013507495634257793
aF-0.012049272656440735
aF-0.011465130373835564
a.