(lp0
F-0.0049439179711043835
aF-10.83035945892334
aF-9.830245018005371
aF-9.830185890197754
aF-9.849958419799805
aF-9.869750022888184
aF-9.869643211364746
aF-9.850347518920898
aF-9.830587387084961
aF-9.791473388671875
aF-9.732996940612793
aF-9.674493789672852
aF-9.560495376586914
aF-9.445145606994629
aF-9.310830116271973
aF-9.160422325134277
aF-8.959309577941895
aF-8.735910415649414
aF-8.484396934509277
aF-8.214581489562988
aF-7.917795658111572
aF-7.578584671020508
aF-7.2369914054870605
aF-6.904103755950928
aF-6.603878974914551
aF-6.330465793609619
aF-6.076765537261963
aF-5.858252048492432
aF-5.684823989868164
aF-5.545865535736084
aF-5.4680938720703125
aF-5.42348575592041
aF-5.436470031738281
aF-5.511235237121582
aF-5.633359432220459
aF-5.8035783767700195
aF-6.005450248718262
aF-6.298671722412109
aF-6.6045732498168945
aF-6.995389938354492
aF-7.468428134918213
aF-8.053241729736328
aF-8.679890632629395
aF-9.393965721130371
aF-9.697919845581055
aF-8.799159049987793
aF-8.02444839477539
aF-7.205770969390869
aF-6.3443474769592285
aF-5.642907619476318
aF-5.034092426300049
aF-4.402958393096924
aF-3.8339900970458984
aF-3.1973211765289307
aF-2.903625011444092
aF-2.7233567237854004
aF-2.6180379390716553
aF-2.5806708335876465
aF-2.611828088760376
aF-2.710958957672119
aF-2.880340099334717
aF-3.113199234008789
aF-3.4312031269073486
aF-3.8054842948913574
aF-4.290049076080322
aF-4.784390449523926
aF-5.495896339416504
aF-6.253599643707275
aF-6.933626651763916
aF-7.979710578918457
aF-8.819297790527344
aF-9.881148338317871
aF-9.269647598266602
aF-8.168084144592285
aF-7.201976299285889
aF-6.292820930480957
aF-5.460855007171631
aF-4.751424312591553
aF-4.083698749542236
aF-3.5298495292663574
aF-3.082355260848999
aF-2.731990337371826
aF-2.440370559692383
aF-2.2378900051116943
aF-2.0912811756134033
aF-2.0149834156036377
aF-2.0020265579223633
aF-2.0397298336029053
aF-2.148552179336548
aF-2.3105337619781494
aF-2.7754690647125244
aF-3.1851086616516113
aF-3.579724073410034
aF-4.211987018585205
aF-4.923497200012207
aF-5.641688346862793
aF-6.563924312591553
aF-7.385501384735107
aF-8.414878845214844
aF-9.498099327087402
aF-9.6798677444458
aF-8.520849227905273
aF-7.466094017028809
aF-6.464858531951904
aF-5.539839267730713
aF-4.6971635818481445
aF-3.9626781940460205
aF-3.34580397605896
aF-2.857684373855591
aF-2.4429314136505127
aF-2.1215341091156006
aF-1.864096999168396
aF-1.674950122833252
aF-1.5409919023513794
aF-1.4586576223373413
aF-1.4225809574127197
aF-1.4202927350997925
aF-1.469781517982483
aF-1.5529650449752808
aF-1.6941601037979126
aF-1.898303747177124
aF-2.130314826965332
aF-2.4978394508361816
aF-2.8724288940429688
aF-3.351005792617798
aF-3.9076390266418457
aF-4.648404598236084
aF-5.3968987464904785
aF-6.321064472198486
aF-7.262932777404785
aF-8.538518905639648
aF-9.38085651397705
aF-9.771649360656738
aF-8.571431159973145
aF-7.421059608459473
aF-6.433708190917969
aF-5.5140509605407715
aF-4.705652713775635
aF-4.039405345916748
aF-3.4390101432800293
aF-2.9623138904571533
aF-2.5756051540374756
aF-2.2684619426727295
aF-2.032808780670166
aF-1.8633219003677368
aF-1.7689565420150757
aF-1.7138980627059937
aF-1.7179151773452759
aF-1.7638813257217407
aF-1.8654052019119263
aF-2.0531134605407715
aF-2.27876877784729
aF-2.5872530937194824
aF-2.948270082473755
aF-3.4153592586517334
aF-3.952507495880127
aF-4.6024041175842285
aF-5.349059104919434
aF-6.212802886962891
aF-7.153284549713135
aF-8.14098834991455
aF-9.314138412475586
aF-9.93542194366455
aF-8.758200645446777
aF-7.66562557220459
aF-6.673140048980713
aF-5.65503454208374
aF-4.798036575317383
aF-4.040097236633301
aF-3.445753335952759
aF-2.970309019088745
aF-2.527437925338745
aF-2.166901111602783
aF-1.8780734539031982
aF-1.6533806324005127
aF-1.4879310131072998
aF-1.391858696937561
aF-1.3565962314605713
aF-1.3625507354736328
aF-1.4274778366088867
aF-1.5259236097335815
aF-1.6620887517929077
aF-1.85191810131073
aF-2.085932731628418
aF-2.4338531494140625
aF-2.7768900394439697
aF-3.2995548248291016
aF-3.8557589054107666
aF-4.537912368774414
aF-5.346166610717773
aF-6.244477272033691
aF-7.207660675048828
aF-8.232373237609863
aF-9.299416542053223
aF-9.898829460144043
aF-8.703129768371582
aF-7.5778584480285645
aF-6.5627264976501465
aF-5.663313865661621
aF-4.866629600524902
a.