(lp0
F-0.0021294294856488705
aF-0.00982282031327486
aF-0.0006816178793087602
aF-7.233944052131847e-05
aF-0.0007146029965952039
aF-0.004361165687441826
aF-0.007887405343353748
aF-0.014358230866491795
aF-0.018930694088339806
aF-0.021544883027672768
aF-0.019501684233546257
aF-0.01947205699980259
aF-0.020161809399724007
aF-0.018690144643187523
aF-0.017215576022863388
aF-0.015018058940768242
aF-0.012599424459040165
aF-0.009987764060497284
aF-0.008063815534114838
aF-0.0073053571395576
aF-0.010265380144119263
aF-0.015284511260688305
aF-0.023838838562369347
aF-0.025845596566796303
aF-0.03227552771568298
aF-0.030575472861528397
aF-0.02783273719251156
aF-0.026359789073467255
aF-0.022471308708190918
aF-0.018041035160422325
aF-0.015208134427666664
aF-0.011800337582826614
aF-0.009318610653281212
aF-0.00655721127986908
aF-0.006134751718491316
aF-0.009351763874292374
aF-0.011413640342652798
aF-0.019111864268779755
aF-0.02148282341659069
aF-0.020864758640527725
aF-0.02224537543952465
aF-0.0214699599891901
aF-0.019865956157445908
aF-0.01989099569618702
aF-0.016953349113464355
aF-0.015917528420686722
aF-0.015187213197350502
aF-0.015252581797540188
aF-0.017289962619543076
aF-0.018673794344067574
aF-0.022480133920907974
aF-0.022595155984163284
aF-0.02432510443031788
aF-0.02668089233338833
aF-0.02495213970541954
aF-0.024387119337916374
aF-0.023051029071211815
aF-0.02125720866024494
aF-0.01950446330010891
aF-0.01781412772834301
aF-0.01854824461042881
aF-0.020826511085033417
aF-0.021920273080468178
aF-0.022058045491576195
aF-0.02012575976550579
aF-0.018066447228193283
aF-0.015096343122422695
aF-0.012085093185305595
aF-0.009118237532675266
aF-0.008063717745244503
aF-0.009699583984911442
aF-0.011556710116565228
aF-0.0169058907777071
aF-0.013546319678425789
aF-0.013115322217345238
aF-0.011592129245400429
aF-0.010264197364449501
aF-0.00676032854244113
aF-0.0053083812817931175
aF-0.006484383717179298
aF-0.009928857907652855
aF-0.006764053832739592
aF-0.006441746838390827
aF-0.005810917820781469
aF-0.005484492983669043
aF-0.003559224074706435
aF-0.0018438911065459251
aF-0.0024832356721162796
aF-0.0068062772043049335
aF-0.007654391694813967
aF-0.010095890611410141
aF-0.008172906935214996
aF-0.008446604013442993
aF-0.007109807804226875
aF-0.005729256197810173
aF-0.005505266133695841
aF-0.0031373666133731604
aF-0.002699338598176837
aF-0.001447381917387247
aF-0.0005083214491605759
aF-0.0011296712327748537
aF-0.002400462282821536
aF-0.0030405395664274693
aF-0.0031143378000706434
aF-0.004577702842652798
aF-0.0031397489365190268
aF-0.0022206599824130535
aF-0.004017247352749109
aF-0.010398335754871368
aF-0.015096532180905342
aF-0.018971741199493408
aF-0.019998079165816307
aF-0.017516817897558212
aF-0.01686960458755493
aF-0.015497290529310703
aF-0.012277497909963131
aF-0.010300983674824238
aF-0.009033623151481152
aF-0.007127875927835703
aF-0.006408763118088245
aF-0.009018109180033207
aF-0.008922683075070381
aF-0.011067424900829792
aF-0.012982837855815887
aF-0.012181133963167667
aF-0.012432745657861233
aF-0.012145965360105038
aF-0.01262497715651989
aF-0.01221921481192112
aF-0.012504193931818008
aF-0.0130659444257617
aF-0.013540255837142467
aF-0.015491713769733906
aF-0.014016231521964073
aF-0.012885421514511108
aF-0.011636502109467983
aF-0.009870362468063831
aF-0.0075935013592243195
aF-0.00626779580488801
aF-0.006661498919129372
aF-0.010070421732962132
aF-0.010349891148507595
aF-0.010663967579603195
aF-0.010161587037146091
aF-0.009392138570547104
aF-0.008583366870880127
aF-0.0065549081191420555
aF-0.007153977639973164
aF-0.005781310610473156
aF-0.0056309024803340435
aF-0.004715082235634327
aF-0.004410425666719675
aF-0.003998303785920143
aF-0.005330326501280069
aF-0.007838292978703976
aF-0.01001280453056097
aF-0.011296059004962444
aF-0.012355535291135311
aF-0.012214996851980686
aF-0.012186538428068161
aF-0.012174185365438461
aF-0.013217149302363396
aF-0.013890231028199196
aF-0.014742409810423851
aF-0.01516969408839941
aF-0.01611228846013546
aF-0.01602252386510372
aF-0.016306914389133453
aF-0.01854865811765194
aF-0.016597948968410492
aF-0.016949674114584923
aF-0.014727532863616943
aF-0.014001337811350822
aF-0.011624845676124096
aF-0.010221105068922043
aF-0.009245392866432667
aF-0.008390989154577255
aF-0.00936036929488182
aF-0.009621268138289452
aF-0.011897968128323555
aF-0.011499960906803608
aF-0.01318416278809309
aF-0.015930011868476868
aF-0.020427603274583817
aF-0.01999961957335472
aF-0.0202224962413311
aF-0.01799277402460575
aF-0.015921838581562042
aF-0.014045649208128452
aF-0.010047554038465023
aF-0.007725890725851059
aF-0.005791499745100737
aF-0.0031395850237458944
aF-0.003292490029707551
aF-0.0017106900922954082
aF-0.0026411304716020823
aF-0.006864781491458416
aF-0.013456922024488449
aF-0.017251940444111824
aF-0.01779363490641117
aF-0.015102637000381947
aF-10.872519493103027
aF-9.86961555480957
aF-9.85034465789795
aF-9.791786193847656
aF-9.695655822753906
aF-9.598966598510742
aF-9.484518051147461
aF-9.350457191467285
aF-9.16415023803711
aF-8.95916748046875
aF-8.658135414123535
aF-8.346165657043457
aF-8.012306213378906
aF-7.652275085449219
aF-7.305354595184326
aF-6.919909954071045
aF-6.5674591064453125
aF-6.221535682678223
aF-5.930729389190674
aF-5.670448303222656
aF-5.454880237579346
aF-5.276229381561279
aF-5.165779113769531
aF-5.093154430389404
aF-5.0763139724731445
aF-5.1193084716796875
aF-5.207958698272705
aF-5.356633186340332
aF-5.552590370178223
aF-5.85432243347168
aF-6.145667552947998
aF-6.564460754394531
aF-7.124176502227783
aF-7.762369632720947
aF-8.475936889648438
aF-9.413555145263672
aF-9.818552017211914
aF-8.842591285705566
aF-7.859013080596924
aF-6.923360347747803
aF-6.009552478790283
aF-5.1916327476501465
aF-4.483026027679443
aF-3.8560335636138916
aF-3.327002763748169
aF-2.8802318572998047
aF-2.5333166122436523
aF-2.2408361434936523
aF-2.0388436317443848
aF-1.8979321718215942
aF-1.8177506923675537
aF-1.7797656059265137
aF-1.7954552173614502
aF-1.858116865158081
aF-1.9595507383346558
aF-2.103656768798828
aF-2.3726537227630615
aF-2.6615285873413086
aF-3.0172278881073
aF-3.495208501815796
aF-3.9975063800811768
aF-4.733748912811279
aF-5.391253471374512
aF-6.3664870262146
aF-7.313748359680176
aF-8.445422172546387
aF-9.703344345092773
aF-9.50112247467041
aF-8.173206329345703
aF-6.981070041656494
aF-5.8767619132995605
aF-4.864658355712891
aF-3.9758498668670654
aF-3.210286855697632
aF-2.5604629516601562
aF-2.0717885494232178
aF-1.7025790214538574
aF-1.3768982887268066
aF-1.1184931993484497
aF-0.9155406951904297
aF-0.7620773911476135
aF-0.6401455402374268
aF-0.5493310689926147
aF-0.47635072469711304
aF-0.42433667182922363
aF-0.3846076726913452
aF-0.35981419682502747
aF-0.3404105305671692
aF-0.32815322279930115
aF-0.31719067692756653
aF-0.31243863701820374
aF-0.30917683243751526
aF-0.3125886023044586
aF-0.3233726918697357
aF-0.33371302485466003
aF-0.35053983330726624
aF-0.3655025362968445
aF-0.39536812901496887
aF-0.423139363527298
aF-0.4520195722579956
aF-0.4992426633834839
aF-0.5319015383720398
aF-0.5792107582092285
aF-0.6575960516929626
aF-0.730248212814331
aF-0.839746356010437
aF-0.9739887118339539
aF-1.1596945524215698
aF-1.3611468076705933
aF-1.6768498420715332
aF-2.049729585647583
aF-2.45487380027771
aF-2.899315595626831
aF-3.618783473968506
aF-4.430877208709717
aF-5.254364490509033
aF-6.181101322174072
aF-7.465156078338623
aF-8.762392044067383
aF-10.12069320678711
aF-9.146066665649414
aF-7.708541393280029
aF-6.482198238372803
aF-5.3383870124816895
aF-4.280705451965332
aF-3.4581997394561768
aF-2.6227777004241943
aF-2.0290236473083496
aF-1.59217369556427
aF-1.2053308486938477
aF-0.9042661786079407
aF-0.6968422532081604
aF-0.5053683519363403
aF-0.3215106725692749
aF-0.24427121877670288
aF-0.16404922306537628
aF-0.09535088390111923
aF-0.05722079426050186
aF-0.03139518201351166
aF-0.01430329866707325
aF-0.00806901790201664
aF-0.009153276681900024
aF-0.015786301344633102
aF-0.033048879355192184
aF-0.042434487491846085
aF-0.04853052645921707
aF-0.05680185556411743
aF-0.05377655103802681
aF-0.05138644576072693
aF-0.04810027405619621
aF-0.04139997437596321
aF-0.034736767411231995
aF-0.029950059950351715
aF-0.024199919775128365
aF-0.020399238914251328
aF-0.019414927810430527
aF-0.01834242232143879
aF-0.021115947514772415
aF-0.021063880994915962
aF-0.023248160257935524
aF-0.022425733506679535
aF-0.02113136276602745
aF-0.019346557557582855
aF-0.016648216173052788
aF-0.015334720723330975
aF-0.018202723935246468
aF-0.021131234243512154
aF-0.025560440495610237
aF-0.0254360418766737
aF-0.02638772688806057
aF-0.02479957789182663
aF-0.023684680461883545
aF-0.02334962785243988
aF-0.02275455929338932
aF-0.022163577377796173
aF-0.02144542522728443
aF-0.019073862582445145
aF-0.01663568615913391
aF-0.016047455370426178
aF-0.012753759510815144
aF-0.012814192101359367
aF-0.010531537234783173
aF-0.009279304184019566
aF-0.008335944265127182
aF-0.007763633970171213
aF-0.0038673286326229572
aF-0.0018293973989784718
aF-0.006268858443945646
aF-0.009853952564299107
aF-0.0143123222514987
aF-0.012885390780866146
aF-0.01219910103827715
aF-0.010586343705654144
aF-0.009637175127863884
aF-0.008612642996013165
aF-0.005340880714356899
aF-0.003570765955373645
aF-0.003101698588579893
aF-0.006495993584394455
aF-0.011381290853023529
aF-10.833064079284668
aF-9.830225944519043
aF-9.830158233642578
aF-9.832509994506836
aF-9.717845916748047
aF-9.617353439331055
aF-9.466493606567383
aF-9.29483699798584
aF-9.056926727294922
aF-8.814010620117188
aF-8.557343482971191
aF-8.271437644958496
aF-7.956827163696289
aF-7.62754487991333
aF-7.26278018951416
aF-6.908818244934082
aF-6.567251682281494
aF-6.233628749847412
aF-5.922368049621582
aF-5.656009674072266
aF-5.426976203918457
aF-5.222642421722412
aF-5.0846052169799805
aF-5.022842884063721
aF-5.007081985473633
aF-5.0336408615112305
aF-5.120460510253906
aF-5.238053798675537
aF-5.418306350708008
aF-5.700329303741455
aF-6.029279708862305
aF-6.457180500030518
aF-6.986143112182617
aF-7.553659915924072
aF-8.537836074829102
aF-9.285694122314453
aF-9.843605041503906
aF-8.849312782287598
aF-7.889293670654297
aF-6.923459053039551
aF-5.993022441864014
aF-5.127969741821289
aF-4.394209861755371
aF-3.7336056232452393
aF-3.2116544246673584
aF-2.7689943313598633
aF-2.4051625728607178
aF-2.1299092769622803
aF-1.9136022329330444
aF-1.7616595029830933
aF-1.6785222291946411
aF-1.640337586402893
aF-1.663893222808838
aF-1.724653720855713
aF-1.8320355415344238
aF-1.993410587310791
aF-2.2357988357543945
aF-2.463961124420166
aF-2.859187364578247
aF-3.3508074283599854
aF-3.8865036964416504
aF-4.566315650939941
aF-5.460741996765137
aF-6.1087236404418945
aF-7.326475620269775
aF-8.43282699584961
aF-9.727601051330566
aF-9.518342018127441
aF-8.208650588989258
aF-6.9681572914123535
aF-5.876774787902832
aF-4.865647315979004
aF-3.916362762451172
aF-3.168095588684082
aF-2.5226523876190186
aF-2.064669132232666
aF-1.6407314538955688
aF-1.3223670721054077
aF-1.0804225206375122
aF-0.8692401051521301
aF-0.710735559463501
aF-0.5868016481399536
aF-0.48654165863990784
aF-0.41241490840911865
aF-0.3506369888782501
aF-0.2979453504085541
aF-0.25775206089019775
aF-0.22442157566547394
aF-0.20425136387348175
aF-0.19340650737285614
aF-0.18161699175834656
aF-0.18130895495414734
aF-0.1777537614107132
aF-0.17858314514160156
aF-0.17858314514160156
aF-0.17569808661937714
aF-0.1651732474565506
aF-0.15992523729801178
aF-0.1497417390346527
aF-0.1454247385263443
aF-0.14385387301445007
aF-0.1381150186061859
aF-0.1360393762588501
aF-0.13046813011169434
aF-0.12513867020606995
aF-0.12085682153701782
aF-0.1178678348660469
aF-0.11670302599668503
aF-0.1131376326084137
aF-0.11003522574901581
aF-0.10592995584011078
aF-0.1024886816740036
aF-0.09401916712522507
aF-0.09343554079532623
aF-0.08480595797300339
aF-0.08081565797328949
aF-0.07605855911970139
aF-0.07030337303876877
aF-0.0674530416727066
aF-0.06326362490653992
aF-0.0653199553489685
aF-0.06015334650874138
aF-0.06194746866822243
aF-0.05766413360834122
aF-0.05973561108112335
aF-0.05725512281060219
aF-0.05238107219338417
aF-0.05065018683671951
aF-0.04504813998937607
aF-0.03584656864404678
aF-0.028599655255675316
aF-0.02745199203491211
aF-0.020397888496518135
aF-0.01682979241013527
aF-0.006052503362298012
aF-0.0014813230372965336
aF-7.757486031323424e-08
aF-0.0007069956627674401
aF-0.0004397209268063307
aF-0.0005168421776033938
aF-0.0007326042396016419
aF-0.0009485849877819419
aF-0.0014312558341771364
aF-0.0006181228091008961
aF-0.001112832804210484
aF-0.001344184624031186
aF-0.00011291199189145118
aF-3.790396294789389e-05
aF-0.0012091266689822078
aF-0.0006278817891143262
aF-0.0008673218544572592
aF-0.0005141792353242636
aF-0.0004927332047373056
aF-0.0005200936575420201
aF-0.002228383906185627
aF-0.0011165539035573602
aF-0.0006463094032369554
aF-0.0014967892784625292
aF-0.0005421714158728719
aF-0.0008278678287751973
aF-0.0018972224788740277
aF-0.002107413252815604
aF-0.0037509440444409847
aF-0.0023857131600379944
aF-0.001860368181951344
aF-0.00428330572322011
aF-0.00689221965149045
aF-0.005332551896572113
aF-0.004638036247342825
aF-0.0027864044532179832
aF-0.0031807299237698317
aF-0.0025759933050721884
aF-0.0022499787155538797
aF-0.0036186010111123323
aF-0.002760478761047125
aF-0.004295508377254009
aF-0.0011683135526254773
aF-0.002036712132394314
aF-0.0020076243672519922
aF-0.0009340493706986308
aF-0.0019382128957659006
aF-0.00607612868770957
aF-0.007933689281344414
aF-0.009489286690950394
aF-0.00943668931722641
aF-0.009112891741096973
aF-0.008429544977843761
aF-0.0075639053247869015
aF-0.006816410925239325
aF-0.006574043072760105
aF-0.00739327073097229
aF-0.00728863850235939
aF-0.009729299694299698
aF-0.011488666757941246
aF-0.011940457858145237
aF-0.015559648163616657
aF-0.014754753559827805
aF-0.01525388564914465
aF-0.015133239328861237
a.