(lp0
F-0.00010120039223693311
aF-9.869586944580078
aF-9.869587898254395
aF-9.86972713470459
aF-9.849950790405273
aF-9.849906921386719
aF-9.830255508422852
aF-9.810626029968262
aF-9.810539245605469
aF-9.810632705688477
aF-9.810477256774902
aF-9.830279350280762
aF-9.849983215332031
aF-9.849968910217285
aF-9.849987030029297
aF-9.850257873535156
aF-9.830317497253418
aF-9.810550689697266
aF-9.753508567810059
aF-9.693644523620605
aF-9.635337829589844
aF-9.540909767150879
aF-9.44302749633789
aF-9.31118392944336
aF-9.143057823181152
aF-8.97257137298584
aF-8.755022048950195
aF-8.532782554626465
aF-8.269407272338867
aF-7.985123634338379
aF-7.703059673309326
aF-7.413731098175049
aF-7.113112926483154
aF-6.8427534103393555
aF-6.569303035736084
aF-6.323871612548828
aF-6.1014323234558105
aF-5.901432037353516
aF-5.741684913635254
aF-5.646005630493164
aF-5.585819244384766
aF-5.582998752593994
aF-5.6278910636901855
aF-5.720221519470215
aF-5.876345157623291
aF-6.09984827041626
aF-6.37435245513916
aF-6.725396156311035
aF-7.1547040939331055
aF-7.737691879272461
aF-8.426183700561523
aF-9.23998737335205
aF-9.977860450744629
aF-9.034867286682129
aF-8.084129333496094
aF-7.17579460144043
aF-6.273385524749756
aF-5.404572486877441
aF-4.6697258949279785
aF-4.071636199951172
aF-3.5451598167419434
aF-3.0805485248565674
aF-2.7141857147216797
aF-2.420452356338501
aF-2.200205087661743
aF-2.0560433864593506
aF-1.957637906074524
aF-1.9322720766067505
aF-1.9572906494140625
aF-2.033489942550659
aF-2.186068058013916
aF-2.364046335220337
aF-2.6815428733825684
aF-3.005012273788452
aF-3.4954967498779297
aF-4.017467498779297
aF-4.724678039550781
aF-5.414535045623779
aF-6.330003261566162
aF-7.269839763641357
aF-8.438959121704102
aF-9.684111595153809
aF-9.531270980834961
aF-8.230382919311523
aF-7.039608478546143
aF-5.905943870544434
aF-4.892223834991455
aF-4.024491786956787
aF-3.317007064819336
aF-2.6568479537963867
aF-2.1495416164398193
aF-1.7263867855072021
aF-1.3842180967330933
aF-1.1177791357040405
aF-0.9251236319541931
aF-0.7658795118331909
aF-0.6498582363128662
aF-0.5609704256057739
aF-0.497296005487442
aF-0.44745466113090515
aF-0.41515666246414185
aF-0.3955605626106262
aF-0.3873915374279022
aF-0.3813011050224304
aF-0.3854199945926666
aF-0.3910179138183594
aF-0.4035567343235016
aF-0.4243219494819641
aF-0.44308024644851685
aF-0.47748321294784546
aF-0.5137887597084045
aF-0.5693308115005493
aF-0.6435574889183044
aF-0.7148550152778625
aF-0.8053403496742249
aF-0.9432209730148315
aF-1.0832479000091553
aF-1.2742812633514404
aF-1.52324640750885
aF-1.8374080657958984
aF-2.2101194858551025
aF-2.638486385345459
aF-3.2355809211730957
aF-3.967653751373291
aF-4.744685649871826
aF-5.648119926452637
aF-6.736369609832764
aF-8.130949020385742
aF-9.267333030700684
aF-9.951672554016113
aF-8.48379135131836
aF-7.106044769287109
aF-5.872841835021973
aF-4.747498035430908
aF-3.8554158210754395
aF-2.984999656677246
aF-2.3147525787353516
aF-1.7664610147476196
aF-1.3319507837295532
aF-0.9985155463218689
aF-0.7492420673370361
aF-0.5161635279655457
aF-0.3763353228569031
aF-0.24237023293972015
aF-0.16224713623523712
aF-0.10321681946516037
aF-0.05692698806524277
aF-0.03985481336712837
aF-0.022247055545449257
aF-0.015915293246507645
aF-0.008817053399980068
aF-0.0070357732474803925
aF-0.005069805309176445
aF-0.008470112457871437
aF-0.01167312916368246
aF-0.01673155650496483
aF-0.018747864291071892
aF-0.014231466688215733
aF-0.017750149592757225
aF-0.013626931235194206
aF-0.014832573011517525
aF-0.012442509643733501
aF-0.010543393902480602
aF-0.009265981614589691
aF-0.006082900334149599
aF-0.005720896180719137
aF-0.007283815648406744
aF-0.012146850116550922
aF-0.01872410625219345
aF-0.026550710201263428
aF-0.03130628541111946
aF-0.03491301089525223
aF-0.0395280197262764
aF-0.04230121523141861
aF-0.03843361884355545
aF-0.03591269627213478
aF-0.03206957131624222
aF-0.026089772582054138
aF-0.021514736115932465
aF-0.017945636063814163
aF-0.01709240861237049
aF-0.016655124723911285
aF-0.017504071816802025
aF-0.01984565146267414
aF-0.02105380780994892
aF-0.023317156359553337
aF-0.023380564525723457
aF-0.022082146257162094
aF-0.020974932238459587
aF-0.019595568999648094
aF-0.01821369305253029
aF-0.01769779995083809
aF-0.020057840272784233
aF-0.024230893701314926
aF-0.022574618458747864
aF-0.025055941194295883
aF-0.022139448672533035
aF-0.019060630351305008
aF-0.01643708534538746
aF-0.014291031286120415
aF-0.005136576946824789
aF-10.813282012939453
aF-9.810554504394531
aF-9.830578804016113
aF-9.851948738098145
aF-9.772734642028809
aF-9.660247802734375
aF-9.541559219360352
aF-9.356440544128418
aF-9.131014823913574
aF-8.871440887451172
aF-8.55056095123291
aF-8.193965911865234
aF-7.786238193511963
aF-7.424463272094727
aF-7.024625778198242
aF-6.639065742492676
aF-6.2740864753723145
aF-5.940550327301025
aF-5.647217273712158
aF-5.3894453048706055
aF-5.169249057769775
aF-5.002921104431152
aF-4.899307727813721
aF-4.852987289428711
aF-4.852133750915527
aF-4.922945022583008
aF-5.054688930511475
aF-5.230712413787842
aF-5.507768630981445
aF-5.831071853637695
aF-6.2521748542785645
aF-6.750962257385254
aF-7.361443042755127
aF-8.088726997375488
aF-8.971281051635742
aF-9.962103843688965
aF-9.222746849060059
aF-8.176383018493652
aF-7.140332221984863
aF-6.195613861083984
aF-5.3444719314575195
aF-4.548183441162109
aF-3.8950188159942627
aF-3.3014559745788574
aF-2.8221187591552734
aF-2.429778814315796
aF-2.135441780090332
aF-1.9066417217254639
aF-1.728325366973877
aF-1.6043552160263062
aF-1.5386581420898438
aF-1.5198094844818115
aF-1.5447181463241577
aF-1.6412620544433594
aF-1.7619379758834839
aF-1.987853765487671
aF-2.2218427658081055
aF-2.563673257827759
aF-2.9394211769104004
aF-3.4676783084869385
aF-4.078749179840088
aF-4.7604804039001465
aF-5.662010669708252
aF-6.527192115783691
aF-7.638096332550049
aF-8.793662071228027
aF-10.211578369140625
aF-9.088703155517578
aF-7.809780597686768
aF-6.576601505279541
aF-5.447347640991211
aF-4.467242240905762
aF-3.684218406677246
aF-2.9693875312805176
aF-2.3655588626861572
aF-1.8874402046203613
aF-1.515830636024475
aF-1.1953153610229492
aF-0.9719555974006653
aF-0.7878468632698059
aF-0.6459209322929382
aF-0.5274773836135864
aF-0.44085705280303955
aF-0.3696976602077484
aF-0.31253984570503235
aF-0.2706666588783264
aF-0.2423456460237503
aF-0.2154982089996338
aF-0.19446642696857452
aF-0.18148374557495117
aF-0.1660023182630539
aF-0.15720483660697937
aF-0.15040042996406555
aF-0.14231935143470764
aF-0.13661910593509674
aF-0.12954114377498627
aF-0.11923636496067047
aF-0.11362798511981964
aF-0.10450484603643417
aF-0.09326881915330887
aF-0.08369938284158707
aF-0.07253700494766235
aF-0.061454322189092636
aF-0.05346083641052246
aF-0.04988788068294525
aF-0.04748750478029251
aF-0.05411504581570625
aF-0.05290687829256058
aF-0.05636979267001152
aF-0.056164879351854324
aF-0.0504741407930851
aF-0.04565613716840744
aF-0.03938565403223038
aF-0.03301215171813965
aF-0.024751510471105576
aF-0.01842919923365116
aF-0.014161949045956135
aF-0.008981455117464066
aF-0.004003203008323908
aF-0.0012716972269117832
aF-0.0026729856617748737
aF-0.003689663950353861
aF-0.0048599992878735065
aF-0.004160709213465452
aF-0.003676628926768899
aF-0.003552338108420372
aF-0.0028380672447383404
aF-0.002061414299532771
aF-0.0012285350821912289
aF-0.0016519182827323675
aF-0.002274458995088935
aF-0.0022345681209117174
aF-0.0016072666039690375
aF-0.0013529532589018345
aF-0.0023055532947182655
aF-0.004356338642537594
aF-0.00441118236631155
aF-0.0034295888617634773
aF-0.0018263779347762465
aF-0.0027820721734315157
aF-0.0021942046005278826
aF-0.003139140782877803
aF-0.00029070809250697494
aF-0.000624762091320008
aF-0.0039000597316771746
aF-0.0064901248551905155
aF-0.01266069058328867
aF-0.011726281605660915
aF-0.012836902402341366
aF-0.01129999291151762
aF-0.010771696455776691
aF-0.010197348892688751
aF-0.009315649047493935
aF-0.008392984047532082
aF-0.009978205896914005
aF-0.010640248656272888
aF-0.011917314492166042
aF-0.013991931453347206
aF-0.01529498677700758
aF-0.01423494704067707
aF-0.01353642251342535
aF-0.012706336565315723
aF-0.010333109647035599
aF-0.008651974610984325
aF-0.006771205458790064
aF-0.005327007733285427
aF-0.004647203721106052
aF-0.004176478832960129
aF-0.00390819925814867
aF-0.0032685305923223495
aF-0.004047319293022156
aF-0.006367622409015894
aF-0.011241402477025986
aF-0.010039829649031162
aF-0.008977251127362251
aF-0.00810062326490879
aF-0.007881643250584602
aF-0.005470268428325653
aF-0.003930389881134033
aF-0.0035636816173791885
aF-0.004715015646070242
aF-0.008254420012235641
aF-0.01163132768124342
aF-0.015355302952229977
aF-0.016645465046167374
aF-0.014915223233401775
aF-0.014174259267747402
aF-0.012911150231957436
aF-0.010477793402969837
aF-0.010940187610685825
aF-0.00918810348957777
aF-0.006089181173592806
aF-0.002399181015789509
aF-0.0005686901276931167
aF-0.004800891503691673
aF-0.010596953332424164
aF-0.02143912948668003
aF-0.02731466479599476
aF-0.024636631831526756
a.