(lp0
F-0.0015047427732497454
aF-10.812582969665527
aF-9.810502052307129
aF-9.791434288024902
aF-9.733271598815918
aF-9.637375831604004
aF-9.521770477294922
aF-9.372048377990723
aF-9.182652473449707
aF-8.97651481628418
aF-8.707541465759277
aF-8.401418685913086
aF-8.09508228302002
aF-7.738976001739502
aF-7.350463390350342
aF-6.965597629547119
aF-6.579530239105225
aF-6.25788688659668
aF-5.918830871582031
aF-5.584496974945068
aF-5.306978702545166
aF-5.095609188079834
aF-4.910442352294922
aF-4.777979373931885
aF-4.691962718963623
aF-4.6494035720825195
aF-4.658230781555176
aF-4.713990211486816
aF-4.812943458557129
aF-5.071773052215576
aF-5.404718399047852
aF-5.950374126434326
aF-6.597305774688721
aF-7.483616828918457
aF-8.258420944213867
aF-9.352614402770996
aF-9.862481117248535
aF-8.830409049987793
aF-7.821924686431885
aF-6.805024147033691
aF-5.881431579589844
aF-5.041235446929932
aF-4.331005096435547
aF-3.7330710887908936
aF-3.1780314445495605
aF-2.7387025356292725
aF-2.379488468170166
aF-2.112363815307617
aF-1.9160116910934448
aF-1.7736873626708984
aF-1.6802436113357544
aF-1.626121997833252
aF-1.6220709085464478
aF-1.656046986579895
aF-1.7158702611923218
aF-1.83504319190979
aF-1.992990255355835
aF-2.2501227855682373
aF-2.503142833709717
aF-2.8226375579833984
aF-3.3179712295532227
aF-3.840048313140869
aF-4.6157379150390625
aF-5.499668121337891
aF-6.5269365310668945
aF-7.908267498016357
aF-9.597795486450195
aF-9.859574317932129
aF-8.412932395935059
aF-7.043093681335449
aF-5.8344807624816895
aF-4.64373254776001
aF-3.754258632659912
aF-3.0246870517730713
aF-2.3462326526641846
aF-1.7892067432403564
aF-1.394196629524231
aF-1.0727487802505493
aF-0.8286460041999817
aF-0.596997857093811
aF-0.42467719316482544
aF-0.3068018853664398
aF-0.20675107836723328
aF-0.14523953199386597
aF-0.09906843304634094
aF-0.0754600465297699
aF-0.06702107191085815
aF-0.07093660533428192
aF-0.07676791399717331
aF-0.08731577545404434
aF-0.09056415408849716
aF-0.091762974858284
aF-0.08897243440151215
aF-0.08193249255418777
aF-0.07361702620983124
aF-0.06514374911785126
aF-0.05607643350958824
aF-0.049043718725442886
aF-0.04521770775318146
aF-0.04293155297636986
aF-0.04144641384482384
aF-0.03926314041018486
aF-0.037245795130729675
aF-0.03660954535007477
aF-0.03529024124145508
aF-0.035694483667612076
aF-0.03646378964185715
aF-0.03486138954758644
aF-0.035826653242111206
aF-0.036273591220378876
aF-0.03335823863744736
aF-0.032847315073013306
aF-0.029643917456269264
aF-0.02668928913772106
aF-0.023638008162379265
aF-0.02200130559504032
aF-0.022439638152718544
aF-0.023602453991770744
aF-0.024295778945088387
aF-0.024064652621746063
aF-0.024071726948022842
aF-0.02290542796254158
aF-0.02316015399992466
aF-0.02158229425549507
aF-0.021038344129920006
aF-0.02028563804924488
aF-0.01940610259771347
aF-0.01842113398015499
aF-0.01537875272333622
aF-0.0139974569901824
aF-0.012499026022851467
aF-0.009354549460113049
aF-0.007411808706820011
aF-0.005597233772277832
aF-0.004528616089373827
aF-0.005639089737087488
aF-0.005326870828866959
aF-0.008254104293882847
aF-0.008536682464182377
aF-0.009406141936779022
aF-0.008882628753781319
aF-0.009132997132837772
aF-0.008936106227338314
aF-0.009135542437434196
aF-0.00903435330837965
aF-0.008106366731226444
aF-0.0072135417722165585
aF-0.005837702192366123
aF-0.005278639495372772
aF-0.0025515740271657705
aF-0.001556864590384066
aF-0.0012842335272580385
aF-0.0020305593498051167
aF-0.0031696404330432415
aF-0.004087657667696476
aF-0.004890877287834883
aF-0.004679955076426268
aF-0.003566216444596648
aF-0.0030374571215361357
aF-0.004790845327079296
aF-0.0044341543689370155
aF-0.002415907336398959
aF-0.0007926548714749515
aF-0.00040756294038146734
aF-0.0025810746010392904
aF-0.008325955830514431
aF-0.009494274854660034
aF-0.010460441000759602
aF-0.011246008798480034
aF-0.008848142810165882
aF-0.007563454564660788
aF-0.006320307031273842
aF-0.006155455484986305
aF-0.003658491652458906
aF-0.0022118149790912867
aF-0.00045765735558234155
aF-0.0010098004713654518
aF-0.0018984641646966338
aF-0.0016320573631674051
aF-0.0021147404331713915
aF-0.0015155200380831957
aF-0.0013219249667599797
aF-0.0011646384373307228
aF-0.0008916324004530907
aF-0.0006379828555509448
aF-0.0008189810323528945
aF-0.0015394334914162755
aF-0.0016071073478087783
aF-0.00220549781806767
aF-0.0014718602178618312
aF-0.0015774477506056428
aF-0.0016900560585781932
aF-0.0010751503286883235
aF-0.0014278151793405414
aF-0.0004256874672137201
aF-0.00011253969569224864
aF-0.0009923657635226846
aF-0.0020850193686783314
aF-0.003851313376799226
aF-0.002819570479914546
aF-0.002840581350028515
aF-0.0020551178604364395
aF-0.002318183658644557
aF-0.0015009568305686116
aF-0.001011172542348504
aF-0.000905838271137327
aF-0.0016644912539049983
aF-0.0017881167586892843
aF-0.0018190656555816531
aF-0.0017258026637136936
aF-0.001896160887554288
aF-0.0011739663314074278
aF-0.0021536312997341156
aF-0.0014375848695635796
aF-0.0014391569420695305
aF-0.00019204677664674819
aF-0.0013001515762880445
aF-0.0034078964963555336
aF-0.006872888654470444
aF-0.005410015117377043
aF-0.0033913571387529373
aF-0.0026172553189098835
aF-0.0034738273825496435
aF-0.005527425557374954
aF-0.004130830988287926
aF-0.0048238784074783325
aF-0.0024899139534682035
aF-0.001720908097922802
aF-0.001616593566723168
aF-0.01713026873767376
aF-0.03744308277964592
aF-0.10458752512931824
aF-0.14962948858737946
aF-0.2470279484987259
aF-0.3689366579055786
aF-0.6152448058128357
aF-0.7512940168380737
aF-1.0254088640213013
aF-1.3555543422698975
aF-1.7577567100524902
aF-2.3572633266448975
aF-2.9773707389831543
aF-3.7263712882995605
aF-4.730588436126709
aF-5.741392135620117
aF-7.2577009201049805
aF-8.97469711303711
aF-10.583233833312988
aF-8.744983673095703
aF-7.17090368270874
aF-5.724647521972656
aF-4.568810939788818
aF-3.4585506916046143
aF-2.6234498023986816
aF-1.9497439861297607
aF-1.4810312986373901
aF-1.0053545236587524
aF-0.7134254574775696
aF-0.44368335604667664
aF-0.3091484010219574
aF-0.21545402705669403
aF-0.13037121295928955
aF-0.11128468066453934
aF-0.11253739148378372
aF-0.11642812192440033
aF-0.12883628904819489
aF-0.16255517303943634
aF-0.20244552195072174
aF-0.2587829828262329
aF-0.3054402768611908
aF-0.35720309615135193
aF-0.4038088321685791
aF-0.47449904680252075
aF-0.5433499813079834
aF-0.6274600625038147
aF-0.7298089265823364
aF-0.8705660104751587
aF-1.0169482231140137
aF-1.2038369178771973
aF-1.4417705535888672
aF-1.7481783628463745
aF-2.0644774436950684
aF-2.5199668407440186
aF-3.014573812484741
aF-3.6133484840393066
aF-4.362345218658447
aF-5.474257469177246
aF-6.523266792297363
aF-8.011475563049316
aF-9.720808982849121
aF-9.753274917602539
aF-8.208540916442871
aF-6.756697654724121
aF-5.447953701019287
aF-4.39711856842041
aF-3.4228031635284424
aF-2.6429896354675293
aF-2.0473361015319824
aF-1.5783390998840332
aF-1.1686913967132568
aF-0.8483694195747375
aF-0.5946071743965149
aF-0.4201756715774536
aF-0.2760503888130188
aF-0.20524930953979492
aF-0.11452528089284897
aF-0.07093267142772675
aF-0.04237382858991623
aF-0.0282914899289608
aF-0.02636023610830307
aF-0.031193463131785393
aF-0.03820929303765297
aF-0.0392937958240509
aF-0.03946289047598839
aF-0.038044292479753494
aF-0.03362995386123657
aF-0.02900453470647335
aF-0.024503445252776146
aF-0.017007336020469666
aF-0.013209547847509384
aF-0.008668161928653717
aF-0.008083881810307503
aF-0.009470860473811626
aF-0.011536739766597748
aF-0.012403934262692928
aF-0.012341978959739208
aF-0.011474494822323322
aF-0.010113204829394817
aF-0.0086452541872859
aF-0.007094827946275473
aF-0.00579005666077137
aF-0.004738884977996349
aF-0.003131664590910077
aF-0.0008603598107583821
aF-0.000362754421075806
aF-4.418396201799624e-05
aF-0.00012448489724192768
aF-0.0001305992336710915
aF-0.0004092868184670806
aF-0.00033084151800721884
aF-0.0004235224914737046
aF-0.0003080680617131293
aF-0.00041062632226385176
aF-0.0005385132390074432
aF-0.002057043369859457
aF-0.002138851908966899
aF-0.0018258949276059866
aF-0.0013075080933049321
aF-0.001209364039823413
aF-0.0011090128682553768
aF-0.0008995395037345588
aF-0.0007998202345333993
aF-0.0008372343727387488
aF-0.0008816662011668086
aF-0.0016832351684570312
aF-0.0011177518172189593
aF-0.0027392785996198654
aF-0.0021067820489406586
aF-0.002327696420252323
aF-0.0019344580359756947
aF-0.001806708867661655
aF-0.0015568385133519769
aF-0.001083867158740759
aF-0.001010125270113349
aF-0.0011220125015825033
aF-0.0012725297128781676
aF-0.001351670827716589
aF-0.0017947448650375009
aF-0.0010777692077681422
aF-0.0009722847025841475
aF-0.0015292140888050199
aF-0.0005931385676376522
aF-0.0005532608483918011
aF-0.00027114403201267123
aF-0.0009497262071818113
aF-0.0007242644787766039
aF-0.000590949843171984
aF-0.0009248975547961891
aF-0.000491684244479984
aF-0.000514282553922385
aF-0.0012736412463709712
aF-0.0002882321714423597
aF-0.0002485425502527505
aF-0.0008860987145453691
aF-0.0012513844994828105
aF-0.0032745967619121075
aF-0.0017243981128558517
aF-0.0016187225701287389
aF-0.002207661746069789
aF-0.002156614325940609
aF-0.002008636249229312
aF-0.0003672455786727369
aF-3.54387448169291e-05
aF-0.0004238808178342879
aF-0.0011631265515461564
aF-0.0018885289318859577
aF-0.0022805407643318176
aF-0.005346405319869518
aF-0.0038217802066355944
aF-0.0029728496447205544
aF-0.002768934005871415
aF-0.0026455498300492764
aF-0.001945666503161192
aF-0.001683380571193993
aF-0.017048589885234833
aF-0.047437068074941635
aF-0.10449208319187164
aF-0.18709848821163177
aF-0.27549582719802856
aF-0.45577678084373474
aF-0.6644701361656189
aF-0.9391992688179016
aF-1.4811140298843384
aF-2.1134839057922363
aF-2.987841844558716
aF-3.9877099990844727
aF-5.461406230926514
aF-7.253529071807861
aF-9.030648231506348
aF-10.738625526428223
aF-8.525029182434082
aF-6.734060287475586
aF-5.229928970336914
aF-3.968139171600342
aF-3.005826950073242
aF-2.2123327255249023
aF-1.6850957870483398
aF-1.2134610414505005
aF-0.8582183718681335
aF-0.5906506776809692
aF-0.3946342468261719
aF-0.27399742603302
aF-0.15358944237232208
aF-0.09685054421424866
aF-0.07923378050327301
aF-0.07175867259502411
aF-0.04929957911372185
aF-0.06206739693880081
aF-0.06821469962596893
aF-0.07137526571750641
aF-0.072268046438694
aF-0.0727660059928894
aF-0.07134304195642471
aF-0.0671086460351944
aF-0.06485043466091156
aF-0.06101769208908081
aF-0.054976802319288254
aF-0.05082295089960098
aF-0.045974504202604294
aF-0.04126733914017677
aF-0.03861721232533455
aF-0.03855440765619278
aF-0.03792354464530945
aF-0.038767360150814056
aF-0.03844160959124565
aF-0.034804921597242355
aF-0.03190303221344948
aF-0.028540395200252533
aF-0.025265293195843697
aF-0.023126469925045967
aF-0.021739665418863297
aF-0.02195134572684765
aF-0.020206324756145477
aF-0.018996406346559525
aF-0.01660725474357605
aF-0.014401243068277836
aF-0.01243782602250576
aF-0.010301033034920692
aF-0.008974099531769753
aF-0.008118029683828354
aF-0.008285574615001678
aF-0.007910031825304031
aF-0.00976276770234108
aF-0.009622655808925629
aF-0.009600995108485222
aF-0.009140216745436192
aF-0.010513581335544586
aF-0.00899268127977848
aF-0.008417928591370583
aF-0.0075654820539057255
aF-0.00652190251275897
aF-0.005310619715601206
aF-0.00446307472884655
aF-0.0043567391112446785
aF-0.004953031428158283
aF-0.007752485107630491
aF-0.009721655398607254
aF-0.010335288941860199
aF-0.010314103215932846
aF-0.009404177777469158
aF-0.008335748687386513
aF-0.007091267965734005
aF-0.006331224925816059
aF-0.0027817634399980307
aF-0.001154970028437674
aF-0.0013391276588663459
aF-0.0027506842743605375
aF-0.0041923620738089085
aF-0.005274766590446234
aF-0.006883459631353617
aF-0.0066403839737176895
aF-0.006425272673368454
aF-0.005636241752654314
aF-0.005117220804095268
aF-0.004545046016573906
aF-0.0038131072651594877
aF-0.0028550107963383198
aF-0.0019365673651918769
aF-0.002339244121685624
aF-0.004623544868081808
aF-0.007875070907175541
aF-0.008683133870363235
aF-0.00799662247300148
aF-0.00719943642616272
aF-0.0068667130544781685
aF-0.005482081789523363
aF-0.0034215000923722982
aF-0.0020652245730161667
aF-0.00110472715459764
aF-0.0008944490109570324
aF-0.0010954526951536536
aF-0.0013292247895151377
aF-0.002135723829269409
aF-0.0029761248733848333
aF-0.0034351558424532413
aF-0.004488734062761068
aF-0.0035676532424986362
aF-0.0034743237774819136
aF-0.0033437686506658792
aF-0.002590585732832551
aF-0.0021821169648319483
aF-0.0019268718315288424
aF-0.0010000815382227302
aF-0.0006519518792629242
aF-0.0010174023918807507
aF-0.0007449743570759892
aF-0.0007365849451161921
aF-0.000716160167939961
aF-0.0004487108963076025
aF-0.0008708851528353989
aF-0.00031264161225408316
aF-0.0002103761216858402
aF-0.00043140107300132513
aF-0.0013095129979774356
aF-0.0018086909549310803
aF-0.003302469151094556
aF-0.0065098595805466175
aF-0.00743664987385273
aF-0.007389753125607967
aF-0.006582118105143309
aF-0.0063868057914078236
aF-0.01162046194076538
aF-0.028001975268125534
aF-0.061701249331235886
aF-0.1089087426662445
aF-0.17289826273918152
aF-0.3267396092414856
aF-0.36861228942871094
aF-0.6601256728172302
aF-0.9198406934738159
aF-1.3113497495651245
aF-1.9040132761001587
aF-2.7308194637298584
aF-3.6994333267211914
aF-5.096743106842041
aF-6.791040897369385
aF-8.80067253112793
aF-10.481104850769043
aF-7.967203140258789
aF-5.908781051635742
aF-4.311797142028809
aF-3.045497179031372
aF-2.129206895828247
aF-1.4377115964889526
aF-1.1388070583343506
aF-0.8143537044525146
aF-0.7889750003814697
aF-0.638477087020874
aF-1.166759967803955
aF-1.4519847631454468
aF-2.0763094425201416
aF-2.9454243183135986
aF-4.052868366241455
aF-5.244662284851074
aF-6.851678371429443
aF-8.626043319702148
aF-10.694746971130371
aF-8.908770561218262
aF-7.162107467651367
aF-5.607397079467773
aF-4.20795202255249
aF-3.180269241333008
aF-2.387491226196289
aF-1.787044644355774
aF-1.318608045578003
aF-0.9669902324676514
aF-0.6483221054077148
aF-0.46111735701560974
aF-0.3008345067501068
aF-0.19237443804740906
aF-0.12328769266605377
aF-0.07044674456119537
aF-0.03366570919752121
aF-0.017208607867360115
aF-0.010512289591133595
aF-0.0038814772851765156
aF-0.0011756992898881435
aF-0.004049552138894796
aF-0.007914846763014793
aF-0.006096564698964357
aF-0.00556114362552762
aF-0.0022593089379370213
aF-0.0022405763156712055
aF-0.006149586755782366
aF-0.006398736499249935
aF-0.007899812422692776
aF-0.005197175312787294
aF-0.004402433522045612
aF-0.003766076173633337
aF-0.0032159623224288225
aF-0.0027565814089030027
aF-0.00264135398901999
aF-0.0017405550461262465
aF-0.0011235045967623591
aF-0.00036379924858920276
aF-0.002370180794969201
aF-0.0016233191126957536
aF-0.0019848919473588467
aF-0.0012245896505191922
aF-0.0021317913196980953
aF-0.0022077716421335936
aF-0.0010966191766783595
aF-0.0005163063178770244
aF-0.00025687363813631237
aF-0.00040353936492465436
aF-0.0020877900533378124
aF-0.0014985804446041584
aF-0.0009737403597682714
aF-0.0005790881114080548
aF-0.001127294497564435
aF-0.0003188164555467665
aF-7.00965101714246e-05
aF-0.0008311765268445015
aF-0.0018389505567029119
aF-0.003429276403039694
aF-0.003181534819304943
aF-0.0016917000757530332
aF-0.0018927896162495017
aF-0.002034480217844248
aF-0.003171740099787712
aF-0.0017062114784494042
aF-0.002219288842752576
aF-0.0007653231150470674
aF-0.0007619743701070547
aF-0.0007223581778816879
aF-0.0005260265315882862
aF-0.00016620873066131026
aF-0.000256937782978639
aF-0.00020644253527279943
aF-8.896574581740424e-05
aF-0.00014520619879476726
aF-0.000131397187942639
aF-0.0003819483972620219
aF-0.0003265928535256535
aF-0.0002086577587760985
aF-0.00013174577907193452
aF-0.0012494169641286135
aF-0.0010332211386412382
aF-0.00238840002566576
aF-0.0009566389489918947
aF-0.0007437430322170258
aF-0.0025956009048968554
aF-0.005003939848393202
aF-0.004807817749679089
aF-0.0022633392363786697
aF-0.0013530609430745244
aF-0.002234035637229681
aF-0.004547533113509417
aF-0.003643358824774623
aF-0.005841247737407684
aF-0.0030414643697440624
aF-0.0035541842225939035
aF-0.0028608208522200584
aF-0.002588405041024089
aF-0.0020315744914114475
aF-0.0018338230438530445
aF-0.0015281500527635217
aF-0.0012513675028458238
aF-0.0018459197599440813
aF-0.0040056584402918816
aF-0.0035530710592865944
aF-0.003958985675126314
aF-0.0035130067262798548
aF-0.0029008444398641586
aF-0.0025644393172115088
aF-0.0020539099350571632
aF-0.0019714816007763147
aF-0.0025418440345674753
aF-0.0018167052185162902
aF-0.001839356729760766
aF-0.0016251460183411837
aF-0.001417938619852066
aF-0.002623880747705698
aF-0.00294528272934258
aF-0.005444984417408705
aF-0.007237997371703386
aF-0.0053649055771529675
aF-0.0054000732488930225
aF-0.004821585491299629
aF-0.004557575564831495
aF-0.0036161988973617554
aF-0.0028822384774684906
aF-0.002025945344939828
aF-0.006459870375692844
aF-0.011818968690931797
aF-0.018556807190179825
aF-0.01786745712161064
aF-0.019921889528632164
aF-0.018215324729681015
aF-0.016184162348508835
aF-0.01436339970678091
aF-0.013369611464440823
aF-0.008206944912672043
aF-0.00519347470253706
aF-0.004388850182294846
aF-0.005814892239868641
aF-0.007674428168684244
aF-0.0117430305108428
aF-0.013883315026760101
aF-0.015748504549264908
aF-0.014434651471674442
aF-0.01334039680659771
aF-0.011595020070672035
aF-0.009812464006245136
aF-0.008493226021528244
aF-0.006102750543504953
aF-0.0052504162304103374
aF-0.004555091727524996
aF-0.005159348249435425
aF-0.004782297182828188
aF-0.004448818042874336
aF-0.004495184402912855
aF-0.004159616772085428
aF-0.004749051295220852
aF-0.005598199088126421
aF-0.007430527824908495
aF-0.006826367229223251
aF-0.008289446122944355
aF-0.007216134108603001
aF-0.006787838879972696
aF-0.006419237237423658
aF-0.005604995414614677
aF-0.004868609365075827
aF-0.004465996753424406
aF-0.00447573559358716
aF-0.004374933894723654
aF-0.006735614035278559
aF-0.005791486240923405
aF-0.007056817878037691
aF-0.006262320559471846
aF-0.006285194773226976
aF-0.006568088661879301
aF-0.0070095364935696125
aF-0.007543855346739292
aF-0.007276090793311596
aF-0.007199434097856283
aF-0.007177495863288641
aF-0.00629978533834219
aF-0.00626573758199811
aF-0.005780065897852182
aF-0.0056882137432694435
aF-0.00568673200905323
aF-0.006431864108890295
aF-0.0077796392142772675
aF-0.009336085058748722
aF-0.01003484521061182
aF-0.010362768545746803
aF-0.011029764078557491
aF-0.010202914476394653
aF-0.010365601629018784
aF-0.010280744172632694
aF-0.011112339794635773
aF-0.010905847884714603
aF-0.010299683548510075
aF-0.010077088139951229
aF-0.008736456744372845
aF-0.007863725535571575
aF-0.007148305885493755
aF-0.006109379231929779
aF-0.005344734992831945
aF-0.004448448773473501
aF-0.004432735964655876
aF-0.0043969787657260895
aF-0.005067798774689436
aF-0.005717120133340359
aF-0.007279151119291782
aF-0.007333190646022558
aF-0.00715780071914196
aF-0.00635013310238719
aF-0.006223379168659449
aF-0.004650729242712259
aF-0.0031264484860002995
aF-0.0022477731108665466
aF-0.003451844910159707
aF-0.004544705152511597
aF-0.006484631914645433
aF-0.006051991600543261
aF-0.0069622681476175785
aF-0.006380464881658554
aF-0.006266375537961721
aF-0.005632077343761921
aF-0.004432637710124254
aF-0.004077968653291464
aF-0.0024706486146897078
aF-0.0028888804372400045
aF-0.004492783918976784
aF-0.008813929744064808
aF-0.011596678756177425
aF-0.013276183046400547
aF-0.012845943681895733
aF-0.013887552544474602
aF-0.01245715282857418
aF-0.011166345328092575
aF-0.009240583516657352
aF-0.0076661743223667145
aF-0.007730552926659584
aF-0.0045948997139930725
aF-0.002455417299643159
aF-0.0013193382183089852
aF-0.003118758089840412
aF-0.004045823588967323
aF-0.006137657444924116
aF-0.006459912285208702
aF-0.006960954517126083
aF-0.006227060221135616
aF-0.005637459922581911
aF-0.005022405181080103
aF-0.003927128855139017
aF-0.0032248124480247498
aF-0.0026176779065281153
aF-0.00336059695109725
aF-0.002174387453123927
aF-0.0023356128949671984
aF-0.00412388239055872
aF-0.0068243928253650665
aF-0.0075134942308068275
aF-0.00909858476370573
aF-0.010274453088641167
aF-0.009030635468661785
aF-0.008390987291932106
aF-0.007616139482706785
aF-0.006049076095223427
aF-0.00474109360948205
aF-0.004366566427052021
aF-0.003189004957675934
aF-0.003003196557983756
aF-0.002527740318328142
aF-0.0025469011161476374
aF-0.002551471348851919
aF-0.002420848933979869
aF-0.002326819347217679
aF-0.0022632814943790436
aF-0.004480727482587099
aF-0.0052254353649914265
aF-0.005704040173441172
aF-0.006117843557149172
aF-0.005230889189988375
aF-0.004688258282840252
aF-0.0037388012278825045
aF-0.005030765198171139
aF-0.0041490886360406876
aF-0.003557377029210329
aF-0.0021197444293648005
aF-0.0002743759541772306
aF-0.0010492062428966165
aF-0.0036248737014830112
aF-0.007147932890802622
aF-0.005295383743941784
aF-0.005634473171085119
aF-0.005949785467237234
aF-0.01409394945949316
aF-0.032530445605516434
aF-0.05424065887928009
aF-0.11194774508476257
aF-0.14854447543621063
aF-0.26269298791885376
aF-0.3902745246887207
aF-0.5945329666137695
aF-0.935817301273346
aF-1.2696468830108643
aF-1.8462046384811401
aF-2.7711527347564697
aF-3.6250345706939697
aF-4.98423433303833
aF-6.655757427215576
aF-8.643412590026855
aF-10.753713607788086
aF-8.218066215515137
aF-6.1910600662231445
aF-4.46211051940918
aF-3.2764291763305664
aF-2.3449153900146484
aF-1.6077682971954346
aF-1.0050194263458252
aF-0.7670018672943115
aF-0.6295080780982971
aF-0.5486648082733154
aF-0.6770779490470886
aF-1.0357731580734253
aF-1.3185615539550781
aF-1.7325937747955322
aF-2.4626522064208984
aF-3.485584020614624
aF-4.619190692901611
aF-5.891779899597168
aF-7.3922858238220215
aF-9.464011192321777
aF-10.13627815246582
aF-8.234968185424805
aF-6.550478935241699
aF-5.106592178344727
aF-4.013357162475586
aF-3.1112358570098877
aF-2.340953826904297
aF-1.7985650300979614
aF-1.2829214334487915
aF-0.9522446990013123
aF-0.6232609152793884
aF-0.43844878673553467
aF-0.3224298059940338
aF-0.19560569524765015
aF-0.09953136742115021
aF-0.07049288600683212
aF-0.03523074835538864
aF-0.024266621097922325
aF-0.013959016650915146
aF-0.010443027131259441
aF-0.007088599260896444
aF-0.00591933261603117
aF-0.0071164933033287525
aF-0.005853082053363323
aF-0.007142788730561733
aF-0.0041742646135389805
aF-0.0013647426385432482
aF-0.0013037164462730289
aF-0.0007505252142436802
aF-0.0016730435891076922
aF-0.002682211110368371
aF-0.0038083745166659355
aF-0.002669938839972019
aF-0.0010638046078383923
aF-0.0011081916745752096
aF-0.0026774255093187094
aF-0.002317069098353386
aF-0.0037887743674218655
aF-0.0018031058134511113
aF-0.002318479586392641
aF-0.0029413271695375443
aF-0.0015131558757275343
aF-0.0015869565540924668
aF-0.0023600133135914803
aF-0.0015104722697287798
aF-0.00045886720181442797
aF-0.0002750753774307668
aF-0.00017813508748076856
aF-0.0001742992753861472
aF-0.000502613780554384
aF-0.0014290068065747619
aF-0.00018076611740980297
aF-0.0005124188028275967
aF-0.0030810616444796324
aF-0.0011401466326788068
aF-0.0030109756626188755
aF-0.0006691020680591464
aF-0.0004630652256309986
aF-0.0017630570800974965
aF-0.0029451637528836727
aF-0.0015455866232514381
aF-0.0019715267699211836
aF-0.0011114542139694095
aF-0.0009941741591319442
aF-0.0010780635057017207
aF-0.0010617084335535765
aF-0.0008414498879574239
aF-0.001852968242019415
aF-0.001852240297012031
aF-0.0025394733529537916
aF-0.001441073720343411
aF-0.0011989204213023186
aF-0.001286155078560114
aF-0.0015084455953910947
aF-0.001473963842727244
aF-0.0003735183272510767
aF-0.00019665187573991716
aF-0.0005302492645569146
aF-0.0017267875373363495
aF-0.0011675544083118439
aF-0.001824740320444107
aF-0.0015540136955678463
aF-0.0014267832739278674
aF-0.0012855372624471784
aF-0.0015298682264983654
aF-0.0009871870279312134
aF-0.0009870391804724932
aF-0.001162407104857266
aF-0.0008909612661227584
aF-0.0008571069338358939
aF-0.0007678687106817961
aF-0.0006871864898130298
aF-0.000709142885170877
aF-0.000724636425729841
aF-0.0007227887399494648
aF-0.0009241927764378488
aF-0.0012756242649629712
aF-0.0012995408615097404
aF-0.0021771611645817757
aF-0.0014212304959073663
aF-0.001423970446921885
aF-0.001324149896390736
aF-0.0010827217483893037
aF-0.000986310187727213
aF-0.0010521032381802797
aF-0.00088021025294438
aF-0.0011479939566925168
aF-0.0007222953718155622
aF-0.0008939519175328314
aF-0.0007577159558422863
aF-0.00044635884114541113
aF-0.0004547349235508591
aF-0.00025499623734503984
aF-0.00025237369118258357
aF-0.0003414943639654666
aF-0.0012731330934911966
aF-0.0005451398901641369
aF-0.0008059063693508506
aF-0.0006587071693502367
aF-0.0008034977945499122
aF-0.00034164986573159695
aF-0.0002490338811185211
aF-0.0002423436235403642
aF-0.0001189281974802725
aF-8.956746751209721e-05
aF-0.0002525427262298763
aF-0.0008518678951077163
aF-0.0006211414001882076
aF-0.0011866895947605371
aF-0.0011484294664114714
aF-0.001191576011478901
aF-0.0011105502489954233
aF-0.0010407550726085901
aF-0.0017482185503467917
aF-0.0020646185148507357
aF-0.0029701252933591604
aF-0.003220366081222892
aF-0.003071264363825321
aF-0.0033980412408709526
aF-0.002662936458364129
aF-0.002075372263789177
aF-0.0027021595742553473
aF-0.0008980559068731964
aF-0.0010497384937480092
aF-0.00020946940639987588
aF-0.00020514344214461744
aF-0.0015624554362148046
aF-0.00198712688870728
aF-0.0008900935063138604
aF-0.0008011606987565756
aF-0.0014312457060441375
aF-0.00206284923478961
aF-0.0005119995912536979
aF-0.0007486964459531009
aF-0.00010063710942631587
aF-0.0015947124920785427
aF-0.0021947473287582397
aF-0.0018075499683618546
aF-0.002060163300484419
aF-0.0012436127290129662
aF-0.0011310443514958024
aF-0.0010360517771914601
aF-0.0011237290455028415
aF-0.0009684651740826666
aF-0.0012232246808707714
aF-0.0011223199544474483
aF-0.0006039233412593603
aF-0.0005639003356918693
aF-0.00060857372591272
aF-0.0012129892129451036
aF-0.0018933441024273634
aF-0.0015891807852312922
aF-0.0007253266521729529
aF-0.0014655613340437412
aF-0.0005782199441455305
aF-0.0006731433677487075
aF-0.000890675000846386
aF-0.0010460076155140996
aF-0.00099715287797153
aF-0.00042239492177031934
aF-0.00035669314092956483
aF-0.00045225853682495654
aF-0.0008335882448591292
aF-0.0009045597398653626
aF-0.001448092283681035
aF-0.0027757890056818724
aF-0.0018366067670285702
aF-0.002825186587870121
aF-0.0027945912443101406
aF-0.002221857663244009
aF-0.0020793904550373554
aF-0.0015625671949237585
aF-0.0018255171598866582
aF-0.0006664368556812406
aF-0.00046831800136715174
aF-0.00044580199755728245
aF-0.0010350476950407028
aF-0.002471350133419037
aF-0.002092611277475953
aF-0.0020344413351267576
aF-0.0026927569415420294
aF-0.0020887241698801517
aF-0.002073845826089382
aF-0.0017634595278650522
aF-0.0015203839866444468
aF-0.0012975604040548205
aF-0.0011293062707409263
aF-0.0013100013602524996
aF-0.0011246874928474426
aF-0.0013049313565716147
aF-0.0021951012313365936
aF-0.005224959459155798
aF-0.007135154213756323
aF-0.0067109037190675735
aF-0.0077933138236403465
aF-0.006300386041402817
aF-0.005808912217617035
aF-0.00517764687538147
aF-0.003995187114924192
aF-0.003214861499145627
aF-0.002854037331417203
aF-0.0036736067850142717
aF-0.0036549807991832495
aF-0.005165789742022753
aF-0.005657801404595375
aF-0.0053833527490496635
aF-0.006265310570597649
aF-0.0051480624824762344
aF-0.004457664676010609
aF-0.003608692204579711
aF-0.003109161974862218
aF-0.002240242902189493
aF-0.001351865939795971
aF-0.0014503186102956533
aF-0.0010174214839935303
aF-0.0004786432546097785
aF-9.456161205889657e-05
aF-8.800493378657848e-05
aF-0.0004151388711761683
aF-8.886957948561758e-05
aF-0.00028991830185987055
aF-0.0004276114341337234
aF-0.00016581288946326822
aF-0.0001876840542536229
aF-0.0004625975852832198
aF-0.00013925992243457586
aF-0.0005661027389578521
aF-0.00037389376666396856
aF-8.885817806003615e-05
aF-0.0003412757068872452
aF-0.0005448430310934782
aF-0.00036009919131174684
aF-0.0004609377356246114
aF-0.0006405024323612452
aF-0.0011860029771924019
aF-0.0026345085352659225
aF-0.0019221958937123418
aF-0.0015176894376054406
aF-0.0013847423251718283
aF-0.0019441702170297503
aF-0.002363418461754918
aF-0.002304293215274811
aF-0.007133360952138901
aF-0.02228173241019249
aF-0.03701229393482208
aF-0.07175766676664352
aF-0.12095708400011063
aF-0.18458843231201172
aF-0.29872414469718933
aF-0.5649121403694153
aF-0.4789506196975708
aF-0.72999107837677
aF-0.987632691860199
aF-1.2882804870605469
aF-1.5740231275558472
aF-2.0296943187713623
aF-2.513065814971924
aF-3.1935904026031494
aF-3.8448867797851562
aF-4.822360038757324
aF-5.915492534637451
aF-7.356985092163086
aF-9.102219581604004
aF-10.467544555664062
aF-8.850876808166504
aF-7.246600151062012
aF-5.8397216796875
aF-4.622381687164307
aF-3.6133956909179688
aF-2.8279552459716797
aF-2.0922794342041016
aF-1.5611897706985474
aF-1.1680506467819214
aF-0.8339168429374695
aF-0.5630096197128296
aF-0.3835049569606781
aF-0.24911679327487946
aF-0.14821335673332214
aF-0.09953269362449646
aF-0.05758748576045036
aF-0.03223644942045212
aF-0.020527102053165436
aF-0.012459822930395603
aF-0.007694322150200605
aF-0.006422096397727728
aF-0.00612794142216444
aF-0.004904596135020256
aF-0.004966818727552891
aF-0.0023190954234451056
aF-0.0007085936376824975
aF-0.00016417106962762773
aF-0.0023699633311480284
aF-0.005409574136137962
aF-0.003492956515401602
aF-0.004068293143063784
aF-0.002607571892440319
aF-0.0027015581727027893
aF-0.002885491354390979
aF-0.0026168234180659056
aF-0.0019730152562260628
aF-0.00013035214215051383
aF-0.00016225464059971273
aF-0.0012355799553915858
aF-0.002874604659155011
aF-0.0028488514944911003
aF-0.0037984515074640512
aF-0.0023949285969138145
aF-0.001867226674221456
aF-0.00277161062695086
aF-0.002505494514480233
aF-0.0025779088027775288
aF-0.0007495316676795483
aF-0.0011609081411734223
aF-0.0005274223512969911
aF-0.0005674289423041046
aF-0.0016081384383141994
aF-0.004798824433237314
aF-0.008348863571882248
aF-0.010668333619832993
aF-0.010463009588420391
aF-0.009196174331009388
aF-0.007313260342925787
aF-0.006704352796077728
aF-0.005529902409762144
aF-0.0052175032906234264
aF-0.00322776660323143
aF-0.0013427605153992772
aF-0.00023625536414328963
aF-0.0003110365942120552
aF-0.0013528086710721254
aF-0.004705486353486776
aF-0.004406902007758617
aF-0.007078669499605894
aF-0.005783066153526306
aF-0.00577573012560606
aF-0.005782095715403557
aF-0.005342364776879549
aF-0.0057584382593631744
aF-0.005399474408477545
aF-0.005832298658788204
aF-0.00552173750475049
aF-0.00471522519364953
aF-0.004020672757178545
aF-0.003746143076568842
aF-0.0021318227518349886
aF-0.002120102057233453
aF-0.0014904167037457228
aF-0.0005747120594605803
aF-0.002225358271971345
aF-0.0033091644290834665
aF-0.004626607522368431
aF-0.0041749184019863605
aF-0.0043033030815422535
aF-0.003972815349698067
aF-0.0037652552127838135
aF-0.003399580018594861
aF-0.002651961985975504
aF-0.003065030090510845
aF-0.004899121820926666
aF-0.006856550928205252
aF-0.00676356628537178
aF-0.007599291857331991
aF-0.008105951361358166
aF-0.007303014863282442
aF-0.007252469193190336
aF-0.007209044881165028
aF-0.0071958317421376705
aF-0.008245797827839851
aF-0.008919309824705124
aF-0.010532188229262829
aF-0.01062001846730709
aF-0.009640604257583618
aF-0.00903705507516861
aF-0.008081672713160515
aF-0.006563085597008467
aF-0.005594820249825716
aF-0.004888999275863171
aF-0.0044645825400948524
aF-0.005820336285978556
aF-0.004480776377022266
aF-0.004867677576839924
aF-0.004886597394943237
aF-0.0043847705237567425
aF-0.0033456122037023306
aF-0.0029449027497321367
aF-0.002623044652864337
aF-0.003918183036148548
aF-0.004814920015633106
aF-0.0064279986545443535
aF-0.005986561067402363
aF-0.005749158561229706
aF-0.005426871590316296
aF-0.00487993098795414
aF-0.004825734067708254
aF-0.004396872129291296
aF-0.004923589527606964
aF-0.009700763039290905
aF-0.012988947331905365
aF-0.02926325425505638
aF-0.06686913967132568
aF-0.09599032253026962
aF-0.15238484740257263
aF-0.24661217629909515
aF-0.3468640446662903
aF-0.5473191738128662
aF-0.6866812705993652
aF-0.9114810824394226
aF-1.094558596611023
aF-1.5058525800704956
aF-1.9055057764053345
aF-2.4111711978912354
aF-2.9940741062164307
aF-3.7488865852355957
aF-4.691326141357422
aF-5.755792140960693
aF-7.1478400230407715
aF-8.782660484313965
aF-10.46812629699707
aF-9.031813621520996
aF-7.4391021728515625
aF-6.032368183135986
aF-4.748725414276123
aF-3.737269401550293
aF-2.885202407836914
aF-2.196131944656372
aF-1.5113660097122192
aF-1.1729341745376587
aF-0.8256810903549194
aF-0.5539422035217285
aF-0.3753078281879425
aF-0.24354831874370575
aF-0.1653442084789276
aF-0.09220550954341888
aF-0.06438817083835602
aF-0.043814849108457565
aF-0.03503679856657982
aF-0.03258964791893959
aF-0.02780100144445896
aF-0.02592312917113304
aF-0.025465717539191246
aF-0.023616688326001167
aF-0.021814554929733276
aF-0.01949397101998329
aF-0.01743122562766075
aF-0.015027481131255627
aF-0.012642847374081612
aF-0.012026185169816017
aF-0.012687252834439278
aF-0.014048933982849121
aF-0.013044066727161407
aF-0.012189281173050404
aF-0.01099459733814001
aF-0.009156468324363232
aF-0.008649536408483982
aF-0.007299840450286865
aF-0.00831657089293003
aF-0.007393551524728537
aF-0.007196848746389151
aF-0.007293681148439646
aF-0.0068006147630512714
aF-0.0069939205422997475
aF-0.007582418154925108
aF-0.0074035171419382095
aF-0.007250422611832619
aF-0.006815074943006039
aF-0.0062597063370049
aF-0.00626961886882782
aF-0.006078068166971207
aF-0.006376164965331554
aF-0.007796281948685646
aF-0.010997996665537357
aF-0.011065550148487091
aF-0.0112107889726758
aF-0.011678672395646572
aF-0.009854484349489212
aF-0.008666647598147392
aF-0.0077584488317370415
aF-0.005593864247202873
aF-0.004413001239299774
aF-0.0038520724046975374
aF-0.004059894010424614
aF-0.005557351745665073
aF-0.006159031763672829
aF-0.0072913519106805325
aF-0.007333812769502401
aF-0.007525280117988586
aF-0.006853851024061441
aF-0.006273492705076933
aF-0.005662303417921066
aF-0.0047248960472643375
aF-0.003946258220821619
aF-0.0033791055902838707
aF-0.002909611677750945
aF-0.003230238100513816
aF-0.0047807213850319386
aF-0.004039247520267963
aF-0.004690194968134165
aF-0.004129414912313223
aF-0.003710053628310561
aF-0.0039155371487140656
aF-0.0032720144372433424
aF-0.003672422841191292
aF-0.0035733645781874657
aF-0.004177670925855637
aF-0.004928783979266882
aF-0.004871516488492489
aF-0.005373815540224314
aF-0.005319786723703146
aF-0.005815221928060055
aF-0.005957024171948433
aF-0.0065748379565775394
aF-0.0070731728337705135
aF-0.00630945386365056
aF-0.0058889533393085
aF-0.00515403226017952
aF-0.0043638041242957115
aF-0.003918623086065054
aF-0.0033657520543783903
aF-0.003016300965100527
aF-0.002596935024484992
aF-0.0023805382661521435
aF-0.0023242405150085688
aF-0.0023148481268435717
aF-0.0026189980562776327
aF-0.0029613617807626724
aF-0.004168951418250799
aF-0.003673601895570755
aF-0.004038899205625057
aF-0.0038870074786245823
aF-0.003573140362277627
aF-0.0035730137024074793
aF-0.0053547946736216545
aF-0.007300413213670254
aF-0.008195625618100166
aF-0.008021061308681965
aF-0.007750527933239937
aF-0.007494421675801277
aF-0.007409800309687853
aF-0.006792027968913317
aF-0.007033891510218382
aF-0.006980200298130512
aF-0.006361720152199268
aF-0.006226483266800642
aF-0.005948276724666357
aF-0.0054067024029791355
aF-0.004943207371979952
aF-0.0047011305578053
aF-0.004040433093905449
aF-0.004467638209462166
aF-0.004368129651993513
aF-0.004399258643388748
aF-0.004880435299128294
aF-0.005612974986433983
aF-0.006055653095245361
aF-0.008305668830871582
aF-0.007946495898067951
aF-0.007884363643825054
aF-0.00781833752989769
aF-0.007934018969535828
aF-0.0077400216832757
aF-0.00838776770979166
aF-0.008000021800398827
aF-0.00845048576593399
aF-0.007852967828512192
aF-0.0073280963115394115
aF-0.007309689652174711
aF-0.007768757175654173
aF-0.008526341058313847
aF-0.00847229640930891
aF-0.008792671374976635
aF-0.007575203198939562
aF-0.006652868818491697
aF-0.005598197225481272
aF-0.004915609024465084
aF-0.004038541112095118
aF-0.003672948805615306
aF-0.0055714016780257225
aF-0.005484005436301231
aF-0.007878832519054413
aF-0.006091372109949589
aF-0.00546705536544323
aF-0.004761705175042152
aF-0.0039350008592009544
aF-0.0018037715926766396
aF-0.0010169453453272581
aF-0.0007609338499605656
aF-0.0005718617467209697
aF-0.0004031002172268927
aF-0.00046027544885873795
aF-0.00035549953463487327
aF-0.00043195500620640814
aF-0.0002499861875548959
aF-0.00041808985406532884
aF-0.00035927025601267815
aF-0.000262276764260605
aF-0.0002509305195417255
aF-0.0003525117936078459
aF-0.00022408593213185668
aF-0.00017958245007321239
aF-0.00039839622331783175
aF-0.0004027651157230139
aF-0.0006241720402613282
aF-0.0005757096805609763
aF-0.0007571029127575457
aF-0.0006677856435999274
aF-0.0006365054287016392
aF-0.0006403450388461351
aF-0.0007512382580898702
aF-0.0006597617757506669
aF-0.000633243122138083
aF-0.0006503351032733917
aF-0.0006412576185539365
aF-0.0007651466876268387
aF-0.000490265607368201
aF-0.0007335403352044523
aF-0.0007228631875477731
aF-0.0007097064517438412
aF-0.0007166831637732685
aF-0.0009621222852729261
aF-0.0008044267306104302
aF-0.000819300243165344
aF-0.0007557919598184526
aF-0.0007021109340712428
aF-0.0006394377560354769
aF-0.0006322823464870453
aF-0.0007832471164874732
aF-0.0006089832750149071
aF-0.0007830911199562252
aF-0.0011216661660000682
aF-0.0015567640075460076
aF-0.0030911145731806755
aF-0.0020252687390893698
aF-0.0024802256375551224
aF-0.002089673886075616
aF-0.0018137914594262838
aF-0.001558374846354127
aF-0.0011000895174220204
aF-0.0009946515783667564
aF-0.0009199179476127028
aF-0.0011247943621128798
aF-0.001099799876101315
aF-0.0012938063591718674
aF-0.00109967403113842
aF-0.0009933034889400005
aF-0.000988262821920216
aF-0.0013166454154998064
aF-0.0011984077282249928
aF-0.0017358098411932588
aF-0.0012984981294721365
aF-0.0016153408214449883
aF-0.0025267410092055798
aF-0.003342407988384366
aF-0.003188241505995393
aF-0.00357578182592988
aF-0.002966366009786725
aF-0.002583166817203164
aF-0.002031766576692462
aF-0.0019318964332342148
aF-0.001049563055858016
aF-0.0006673479219898582
aF-0.0005102398572489619
aF-0.0007242515566758811
aF-0.0023901951499283314
aF-0.002781737595796585
aF-0.0052062696777284145
aF-0.003934883046895266
aF-0.003199020866304636
aF-0.0034684494603425264
aF-0.003917522728443146
aF-0.003551546949893236
aF-0.0010033044964075089
aF-0.0002391690795775503
aF-0.0018777665682137012
aF-0.003770611947402358
aF-0.007754663471132517
aF-0.004485551733523607
aF-0.004039808176457882
aF-0.0035835423041135073
aF-0.0030980296432971954
aF-0.0022656903602182865
aF-0.0013650336768478155
aF-0.0010031629353761673
aF-0.0006428718334063888
aF-0.00063825718825683
aF-0.0008900988614186645
aF-0.0011229219380766153
aF-0.001499414211139083
aF-0.002046365523710847
aF-0.002053244039416313
aF-0.001966119511052966
aF-0.0024288715794682503
aF-0.0026237538550049067
aF-0.0025684996508061886
aF-0.002576569328084588
aF-0.0030731798615306616
aF-0.0029247007332742214
aF-0.0028566073160618544
aF-0.0028579181525856256
aF-0.002894164063036442
aF-0.002893537748605013
aF-0.00362385343760252
aF-0.00432108948007226
aF-0.005491647869348526
aF-0.006135772913694382
aF-0.006595988292247057
aF-0.006467258092015982
aF-0.006213654763996601
aF-0.005957251880317926
aF-0.0054350681602954865
aF-0.005221076775342226
aF-0.005282092839479446
aF-0.0053586820140480995
aF-0.005385953933000565
aF-0.005986475385725498
aF-0.006129167973995209
aF-0.00579657219350338
aF-0.005735078360885382
aF-0.0048749749548733234
aF-0.004514771047979593
aF-0.0036804634146392345
aF-0.002918225945904851
aF-0.002028545830398798
aF-0.0024084809701889753
aF-0.003636735724285245
aF-0.006542598828673363
aF-0.005379721522331238
aF-0.00547764403745532
aF-0.004933310206979513
aF-0.0044364724308252335
aF-0.0034473866689950228
aF-0.002493098611012101
aF-0.001724603702314198
aF-0.001211941591463983
aF-0.0017456149216741323
aF-0.002362664556130767
aF-0.0020478679798543453
aF-0.002204524353146553
aF-0.0017720205942168832
aF-0.0015131052350625396
aF-0.0015724166296422482
aF-0.0013448799727484584
aF-0.000609867216553539
aF-0.0004844753711950034
aF-0.0011848773574456573
aF-0.0023347893729805946
aF-0.0022977753542363644
aF-0.002933722920715809
aF-0.0036352393217384815
aF-0.004421143792569637
aF-0.006511517334729433
aF-0.008234095759689808
aF-0.00989654939621687
aF-0.010277270339429379
aF-0.009746944531798363
aF-0.00877593643963337
aF-0.007584095932543278
aF-0.006519448012113571
aF-0.005243060644716024
aF-0.004138088785111904
aF-0.002893234835937619
aF-0.002335393102839589
aF-0.002054545795544982
aF-0.0019572873134166002
aF-0.002326694317162037
aF-0.0032175546512007713
aF-0.0032928853761404753
aF-0.003654113505035639
aF-0.006394742988049984
aF-0.006901649758219719
aF-0.008474871516227722
aF-0.008820625022053719
aF-0.007829737849533558
aF-0.007390913087874651
aF-0.006770587991923094
aF-0.006582457106560469
aF-0.006056495942175388
aF-0.005696840118616819
aF-0.005734486039727926
aF-0.005889264866709709
aF-0.005684967152774334
aF-0.005888290237635374
aF-0.0057798121124506
aF-0.006004500202834606
aF-0.00586623465642333
aF-0.005828839261084795
aF-0.005311866756528616
aF-0.004869895055890083
aF-0.004484850913286209
aF-0.004086736589670181
aF-0.005006579216569662
aF-0.004380646627396345
aF-0.004764195065945387
aF-0.0043624029494822025
aF-0.004048412665724754
aF-0.00358614232391119
aF-0.002942939754575491
aF-0.0034570617135614157
aF-0.0025320055428892374
aF-0.002962923375889659
aF-0.006132818758487701
aF-0.008730967529118061
aF-0.010626713745296001
aF-0.010055757127702236
aF-0.009592467918992043
aF-0.009587586857378483
aF-0.009009098634123802
aF-0.008412538096308708
aF-0.008387178182601929
aF-0.00830082781612873
aF-0.011019772849977016
aF-0.010704278945922852
aF-0.012182005681097507
aF-0.01252687443047762
aF-0.012821006588637829
aF-0.011111085303127766
aF-0.010373827069997787
aF-0.009116338565945625
aF-0.007678871043026447
aF-0.0068307435140013695
aF-0.0058733271434903145
aF-0.005367531906813383
aF-0.006838301196694374
aF-0.007119716145098209
aF-0.008528168313205242
aF-0.01172691211104393
aF-0.02202356792986393
aF-0.05317148193717003
aF-0.0889405608177185
aF-0.15543119609355927
aF-0.22323442995548248
aF-0.35775527358055115
aF-0.5281621217727661
aF-0.672555685043335
aF-0.8949461579322815
aF-1.0885902643203735
aF-1.4602810144424438
aF-1.8559443950653076
aF-2.346656560897827
aF-2.932488441467285
aF-3.725978136062622
aF-4.539062023162842
aF-5.7250471115112305
aF-7.098941802978516
aF-8.884312629699707
aF-10.380809783935547
aF-9.065840721130371
aF-7.442530632019043
aF-5.964742183685303
aF-4.766972541809082
aF-3.7336220741271973
aF-2.836155414581299
aF-2.2006514072418213
aF-1.5773741006851196
aF-1.14463472366333
aF-0.7972960472106934
aF-0.55735844373703
aF-0.3574414849281311
aF-0.26156237721443176
aF-0.14200875163078308
aF-0.12716732919216156
aF-0.05660557746887207
aF-0.06957943737506866
aF-0.06795211881399155
aF-0.08423777669668198
aF-0.0977785587310791
aF-0.10630790144205093
aF-0.11532102525234222
aF-0.12488263100385666
aF-0.1308405101299286
aF-0.13399271667003632
aF-0.1350632607936859
aF-0.1297115534543991
aF-0.12359713762998581
aF-0.11781653761863708
aF-0.1086474135518074
aF-0.10257353633642197
aF-0.09790552407503128
aF-0.09292273223400116
aF-0.08763254433870316
aF-0.08377624303102493
aF-0.07632992416620255
aF-0.0688026174902916
aF-0.060811325907707214
aF-0.054119206964969635
aF-0.05064954236149788
aF-0.049984585493803024
aF-0.05621419474482536
aF-0.059927262365818024
aF-0.06722631305456161
aF-0.07618150115013123
aF-0.0818043202161789
aF-0.08750668913125992
aF-0.08660755306482315
aF-0.08445774763822556
aF-0.0813731923699379
aF-0.07663649320602417
aF-0.07046928256750107
aF-0.06597503274679184
aF-0.06140751391649246
aF-0.05897068232297897
aF-0.05919269099831581
aF-0.06405419856309891
aF-0.08957771956920624
aF-0.13105137646198273
aF-0.21770018339157104
aF-0.3070177435874939
aF-0.46038955450057983
aF-0.6899334788322449
aF-0.9124019742012024
aF-1.2206443548202515
aF-1.6730998754501343
aF-2.0212881565093994
aF-2.660905599594116
aF-3.3567702770233154
aF-4.365099906921387
aF-5.133028507232666
aF-6.737942695617676
aF-8.056878089904785
aF-9.898282051086426
aF-9.634425163269043
aF-7.952278137207031
aF-6.5324320793151855
aF-5.09789514541626
aF-4.0918169021606445
aF-3.0633976459503174
aF-2.3489086627960205
aF-1.7351336479187012
aF-1.2448196411132812
aF-0.9377123117446899
aF-0.5909513235092163
aF-0.4463740289211273
aF-0.24300792813301086
aF-0.20048968493938446
aF-0.11241048574447632
aF-0.07400615513324738
aF-0.06264442205429077
aF-0.07387565821409225
aF-0.07659891247749329
aF-0.09365662187337875
aF-0.10600865632295609
aF-0.12395766377449036
aF-0.13046617805957794
aF-0.1422690451145172
aF-0.15234892070293427
aF-0.15506313741207123
aF-0.15966667234897614
aF-0.15976279973983765
aF-0.15366388857364655
aF-0.14901497960090637
aF-0.142813578248024
aF-0.13650286197662354
aF-0.13096477091312408
aF-0.12360823154449463
aF-0.11843033134937286
aF-0.11026734858751297
aF-0.10472511500120163
aF-0.09987712651491165
aF-0.0934857651591301
aF-0.08696854114532471
aF-0.07997878640890121
aF-0.07200345396995544
aF-0.06481859087944031
aF-0.05993589758872986
aF-0.05647040903568268
aF-0.05639251694083214
aF-0.05649343132972717
aF-0.05947307497262955
aF-0.05740595608949661
aF-0.0558750182390213
aF-0.05369500443339348
aF-0.05244860798120499
aF-0.051324717700481415
aF-0.050054434686899185
aF-0.04765559360384941
aF-0.04436623677611351
aF-0.041382987052202225
aF-0.03590727597475052
aF-0.0313098281621933
aF-0.02708497643470764
aF-0.02237510122358799
aF-0.01915140636265278
aF-0.019417328760027885
aF-0.02043459378182888
aF-0.02332177758216858
aF-0.02434490993618965
aF-0.023771721869707108
aF-0.023507380858063698
aF-0.021971318870782852
aF-0.02262691780924797
aF-0.02097482793033123
aF-0.021894212812185287
aF-0.020931821316480637
aF-0.02327101118862629
aF-0.022856948897242546
aF-0.022553283721208572
aF-0.02181354910135269
aF-0.030145807191729546
aF-0.05260187387466431
aF-0.09729821979999542
aF-0.16375328600406647
aF-0.2654399275779724
aF-0.4095824062824249
aF-0.5550247430801392
aF-0.8187774419784546
aF-1.0091276168823242
aF-1.236092209815979
aF-1.763663649559021
aF-2.1958889961242676
aF-2.7555222511291504
aF-3.4103267192840576
aF-4.274492263793945
aF-5.305256366729736
aF-6.65983772277832
aF-7.977316856384277
aF-9.718140602111816
aF-9.756913185119629
aF-8.137661933898926
aF-6.601451396942139
aF-5.390523910522461
aF-4.249072074890137
aF-3.3326306343078613
aF-2.4935946464538574
aF-1.9115792512893677
aF-1.3416694402694702
aF-0.9981442093849182
aF-0.7066740989685059
aF-0.4928527772426605
aF-0.3079376816749573
aF-0.19701191782951355
aF-0.12747062742710114
aF-0.07590606808662415
aF-0.04224482551217079
aF-0.033484283834695816
aF-0.019039660692214966
aF-0.015903545543551445
aF-0.013596846722066402
aF-0.012979604303836823
aF-0.011615538969635963
aF-0.010135050863027573
aF-0.008103827945888042
aF-0.006509215570986271
aF-0.006251874379813671
aF-0.006395661737769842
aF-0.010091873817145824
aF-0.011030570603907108
aF-0.009097939357161522
aF-0.008554990403354168
aF-0.007635327521711588
aF-0.006850728765130043
aF-0.0036761416122317314
aF-0.002690379973500967
aF-0.0023076252546161413
aF-0.00326730078086257
aF-0.003792447503656149
aF-0.005667929537594318
aF-0.00395739171653986
aF-0.003739077365025878
aF-0.003360743634402752
aF-0.002660206053406
aF-0.001962801907211542
aF-0.002361346734687686
aF-0.0015824518632143736
aF-0.00038059341022744775
aF-0.00044846246601082385
aF-0.0004043455410283059
aF-0.001587922335602343
aF-0.0015705109108239412
aF-0.003832476679235697
aF-0.004104637075215578
aF-0.0030630305409431458
aF-0.0028664730489253998
aF-0.003340852214023471
aF-0.01287135947495699
aF-0.03832395002245903
aF-0.07039757072925568
aF-0.12283878028392792
aF-0.2110101580619812
aF-0.3039516806602478
aF-0.47535550594329834
aF-0.6099796295166016
aF-0.8331300020217896
aF-1.0226229429244995
aF-1.361851453781128
aF-1.7702555656433105
aF-2.314439296722412
aF-2.75209641456604
aF-3.5782978534698486
aF-4.3258562088012695
aF-5.540675640106201
aF-6.8773088455200195
aF-8.431053161621094
aF-10.242813110351562
aF-9.30103588104248
aF-7.635074615478516
aF-6.22111177444458
aF-4.929714202880859
aF-3.8555541038513184
aF-2.89487361907959
aF-2.181605577468872
aF-1.5894100666046143
aF-1.1446235179901123
aF-0.8215283155441284
aF-0.550041913986206
aF-0.3632471263408661
aF-0.24949856102466583
aF-0.1531209647655487
aF-0.1140328049659729
aF-0.09334918856620789
aF-0.08880153298377991
aF-0.11590426415205002
aF-0.1283048540353775
aF-0.15806709229946136
aF-0.18719886243343353
aF-0.21832682192325592
aF-0.24988678097724915
aF-0.2890170216560364
aF-0.3179910480976105
aF-0.3585264980792999
aF-0.39535802602767944
aF-0.4481641352176666
aF-0.49863460659980774
aF-0.5732426047325134
aF-0.6386127471923828
aF-0.7329543232917786
aF-0.8526507019996643
aF-0.9902229309082031
aF-1.1607308387756348
aF-1.3800541162490845
aF-1.650275468826294
aF-1.9631375074386597
aF-2.331003189086914
aF-2.8484487533569336
aF-3.5360074043273926
aF-4.178968906402588
aF-5.213806629180908
aF-6.222527980804443
aF-7.770418167114258
aF-9.217009544372559
aF-10.157361030578613
aF-8.50222396850586
aF-7.00678014755249
aF-5.750831604003906
aF-4.565059661865234
aF-3.605592727661133
aF-2.7749741077423096
aF-2.142522096633911
aF-1.6287493705749512
aF-1.1889158487319946
aF-0.8818222284317017
aF-0.6147575378417969
aF-0.43156054615974426
aF-0.2987150549888611
aF-0.17841021716594696
aF-0.11460474878549576
aF-0.0609903521835804
aF-0.037237703800201416
aF-0.019184209406375885
aF-0.01441209577023983
aF-0.013971812091767788
aF-0.016379985958337784
aF-0.016585050150752068
aF-0.01724236272275448
aF-0.016864649951457977
aF-0.015764396637678146
aF-0.014161095023155212
aF-0.012226000428199768
aF-0.010300396010279655
aF-0.008647151291370392
aF-0.006531502120196819
aF-0.005584813188761473
aF-0.004992715083062649
aF-0.00490441732108593
aF-0.0052807386964559555
aF-0.006082334090024233
aF-0.005338996183127165
aF-0.004718075972050428
aF-0.004772640764713287
aF-0.0033468117471784353
aF-0.002245201962068677
aF-0.0014285027282312512
aF-0.002613794058561325
aF-0.0029182927682995796
aF-0.004322283901274204
aF-0.0051796287298202515
aF-0.003947960678488016
aF-0.004118625074625015
aF-0.0036936034448444843
aF-0.002622668631374836
aF-0.002482203533872962
aF-0.0013635552022606134
aF-0.0015901762526482344
aF-0.000780370261054486
aF-0.0008726592641323805
aF-0.001992141595110297
aF-0.0021979943849146366
aF-0.0014212634414434433
aF-0.0014039359521120787
aF-0.002090452006086707
aF-0.0011266311630606651
aF-0.001050657476298511
aF-0.00036865813308395445
aF-1.1292527233308647e-05
aF-0.0004034403245896101
aF-0.0001794630370568484
aF-0.0003252330934628844
aF-0.000342443585395813
aF-0.0002501316193956882
aF-0.0004459381161723286
aF-0.00046493796980939806
aF-0.0005032757180742919
aF-0.00035766547080129385
aF-0.0003678801003843546
aF-0.0002485451695974916
aF-0.0010404842905700207
aF-0.00011346824612701312
aF-0.0001399131288053468
aF-9.578020399203524e-05
aF-0.0004519290814641863
aF-0.0002299426996614784
aF-3.9741025830153376e-05
aF-0.00019271158089395612
aF-0.00020447128918021917
aF-8.087567402981222e-05
aF-6.3508991843264084e-06
aF-0.00018985870701726526
aF-0.0001337616704404354
aF-9.640469215810299e-05
aF-0.0003980695328209549
aF-0.00011035447096219286
aF-0.00016812517424114048
aF-0.00030836317455396056
aF-0.00010861077316803858
aF-0.00016135202895384282
aF-0.0001929513964569196
aF-0.0002590185613371432
aF-0.0002017043880186975
aF-0.00021470004867296666
aF-0.00018862377328332514
aF-0.00017116032540798187
aF-0.00019802605675067753
aF-0.0003336195950396359
aF-0.0003129113174509257
aF-0.0001584493147674948
aF-0.0013505483511835337
aF-0.004270568955689669
aF-0.01946769282221794
aF-0.04943787306547165
aF-0.09220302104949951
aF-0.13790364563465118
aF-0.24130557477474213
aF-0.35490986704826355
aF-0.5506131649017334
aF-0.7831827998161316
aF-1.2253648042678833
aF-1.723134994506836
aF-2.5182368755340576
aF-3.3862640857696533
aF-4.8725972175598145
aF-6.433839321136475
aF-8.3507719039917
aF-10.792869567871094
aF-8.594072341918945
aF-6.320671558380127
aF-4.651645183563232
aF-3.381967067718506
aF-2.4490582942962646
aF-1.722275733947754
aF-1.1465235948562622
aF-0.8730959892272949
aF-0.7869420051574707
aF-0.7800452709197998
aF-0.6910607218742371
aF-1.4263266324996948
aF-1.8398230075836182
aF-2.5294857025146484
aF-3.6010870933532715
aF-4.743570327758789
aF-6.273922920227051
aF-7.964023113250732
aF-9.927521705627441
aF-9.320216178894043
aF-7.5156168937683105
aF-6.005881309509277
aF-4.606130599975586
aF-3.4324381351470947
aF-2.5854992866516113
aF-1.81502366065979
aF-1.2211772203445435
aF-0.8796873092651367
aF-0.6362667679786682
aF-0.46389487385749817
aF-0.3519141972064972
aF-0.3862099349498749
aF-0.4270615577697754
aF-0.6178662180900574
aF-0.7942190766334534
aF-1.1772701740264893
aF-1.5959405899047852
aF-2.0682642459869385
aF-2.6793713569641113
aF-3.404622793197632
aF-4.470434665679932
aF-5.541284561157227
aF-7.002871513366699
aF-8.794538497924805
aF-10.476019859313965
aF-9.08296012878418
aF-7.341656684875488
aF-5.97964334487915
aF-4.638009548187256
aF-3.561516761779785
aF-2.632469892501831
aF-1.97806715965271
aF-1.4426891803741455
aF-1.0246927738189697
aF-0.7164076566696167
aF-0.485956072807312
aF-0.3075230121612549
aF-0.22431997954845428
aF-0.16347235441207886
aF-0.1691095381975174
aF-0.19556309282779694
aF-0.21098417043685913
aF-0.279038667678833
aF-0.368237167596817
aF-0.45620572566986084
aF-0.5604516267776489
aF-0.7326536774635315
aF-0.8865295648574829
aF-1.1007479429244995
aF-1.385484218597412
aF-1.6815063953399658
aF-2.0810673236846924
aF-2.6088414192199707
aF-3.1243691444396973
aF-3.891172409057617
aF-4.760626316070557
aF-5.872955322265625
aF-7.109068870544434
aF-8.601733207702637
aF-10.31851863861084
aF-9.140371322631836
aF-7.536694049835205
aF-6.151795387268066
aF-5.092240333557129
aF-3.940826416015625
aF-3.034254550933838
aF-2.378539562225342
aF-1.7754346132278442
aF-1.305701494216919
aF-0.9582948684692383
aF-0.6867302060127258
aF-0.4580262303352356
aF-0.32518628239631653
aF-0.2096811681985855
aF-0.1356128752231598
aF-0.07248324900865555
aF-0.04180118814110756
aF-0.020170671865344048
aF-0.011783551424741745
aF-0.010238396935164928
aF-0.011436773464083672
aF-0.013746427372097969
aF-0.014682494103908539
aF-0.013781853020191193
aF-0.013048647902905941
aF-0.01097511500120163
aF-0.009509600698947906
aF-0.006682104896754026
aF-0.00568918464705348
aF-0.0031171711161732674
aF-0.0027653295546770096
aF-0.0015160109614953399
aF-0.0013652258785441518
aF-0.002114851726219058
aF-0.004367378074675798
aF-0.005420648492872715
aF-0.0033219200558960438
aF-0.0029421388171613216
aF-0.0036589507944881916
aF-0.0026861135847866535
aF-0.0057302904315292835
aF-0.004402365535497665
aF-0.0018948045326396823
aF-0.0011410726001486182
aF-0.0013834439450874925
aF-0.0016476785531267524
aF-0.0016249234322458506
aF-9.368153405375779e-05
aF-0.00016925059026107192
aF-0.00040409353096038103
aF-0.0007367601501755416
aF-0.0021098998840898275
aF-0.0029834979213774204
aF-0.0024592189583927393
aF-0.00370458560064435
aF-0.004797883797436953
aF-0.0050506992265582085
aF-0.005809562746435404
aF-0.005863329395651817
aF-0.005770260933786631
aF-0.005890732631087303
aF-0.005781638901680708
aF-0.00656324066221714
aF-0.0065920655615627766
aF-0.006192761939018965
aF-0.005845401901751757
aF-0.00526977377012372
aF-0.005317045375704765
aF-0.004099495708942413
aF-0.0053941053338348866
aF-0.009897181764245033
aF-0.012391490861773491
aF-0.013600797392427921
aF-0.013557943515479565
aF-0.012279539369046688
aF-0.011506188660860062
aF-0.01039202231913805
aF-0.008664934895932674
aF-0.008300748653709888
aF-0.009502844884991646
aF-0.012691056355834007
aF-0.02421318180859089
aF-0.05900666117668152
aF-0.10364311188459396
aF-0.17127330601215363
aF-0.2547386586666107
aF-0.4129254221916199
aF-0.5954737663269043
aF-0.8887084722518921
aF-1.2572574615478516
aF-1.7548004388809204
aF-2.529796838760376
aF-3.526991128921509
aF-4.954474925994873
aF-6.462365627288818
aF-8.401999473571777
aF-10.812546730041504
aF-8.54222297668457
aF-6.17677116394043
aF-4.56813383102417
aF-3.2764461040496826
aF-2.3449411392211914
aF-1.5357261896133423
aF-1.0153273344039917
aF-0.9901710748672485
aF-0.7209762930870056
aF-0.6925512552261353
aF-0.787402868270874
aF-1.2821567058563232
aF-1.6684857606887817
aF-2.5792298316955566
aF-3.483491897583008
aF-4.526618957519531
aF-6.130616664886475
aF-7.750100135803223
aF-9.889993667602539
aF-9.77919864654541
aF-7.8351850509643555
aF-6.218908309936523
aF-4.758723258972168
aF-3.6088595390319824
aF-2.7575314044952393
aF-2.0827853679656982
aF-1.5193642377853394
aF-1.0408810377120972
aF-0.7706776857376099
aF-0.4804581105709076
aF-0.3433736562728882
aF-0.2009126842021942
aF-0.15742087364196777
aF-0.11848000437021255
aF-0.10292232036590576
aF-0.14668093621730804
aF-0.1733728051185608
aF-0.2058972269296646
aF-0.260151207447052
aF-0.3185065686702728
aF-0.3884904980659485
aF-0.46618062257766724
aF-0.5692888498306274
aF-0.6397624015808105
aF-0.7860785126686096
aF-0.9417246580123901
aF-1.112544298171997
aF-1.3807703256607056
aF-1.6902501583099365
aF-1.9864068031311035
aF-2.4691553115844727
aF-2.9038302898406982
aF-3.6375224590301514
aF-4.465704441070557
aF-5.4629645347595215
aF-6.567216873168945
aF-8.208280563354492
aF-9.818302154541016
aF-9.651097297668457
aF-8.160947799682617
aF-6.76113748550415
aF-5.3928117752075195
aF-4.3483500480651855
aF-3.3801143169403076
aF-2.6209328174591064
aF-2.000006914138794
aF-1.464091420173645
aF-1.081695318222046
aF-0.7719682455062866
aF-0.5474846959114075
aF-0.3782223165035248
aF-0.2368653565645218
aF-0.15567344427108765
aF-0.09618926793336868
aF-0.05031096190214157
aF-0.030655208975076675
aF-0.012431143783032894
aF-0.006556962616741657
aF-0.009740229696035385
aF-0.014613224193453789
aF-0.025257619097828865
aF-0.030500268563628197
aF-0.027608511969447136
aF-0.026339218020439148
aF-0.023611176759004593
aF-0.02054930105805397
aF-0.017246238887310028
aF-0.012234595604240894
aF-0.008123436942696571
aF-0.006044347770512104
aF-0.005021302495151758
aF-0.004777015186846256
aF-0.005322914104908705
aF-0.006228939164429903
aF-0.00547128077596426
aF-0.00507716741412878
aF-0.004382636398077011
aF-0.003346991026774049
aF-0.0034792793449014425
aF-0.0018926067277789116
aF-0.002057197969406843
aF-0.0004549721197690815
aF-0.0001198467580252327
aF-0.0006664518150500953
aF-0.0006237467750906944
aF-0.0016345407348126173
aF-0.000973838847130537
aF-0.0007532183080911636
aF-0.0006176869501359761
aF-0.0009937353897839785
aF-0.0009268880821764469
aF-0.002354628872126341
aF-0.0012785030994564295
aF-0.0019002155167981982
aF-0.0017854549223557115
aF-0.0008013641345314682
aF-0.001337695517577231
aF-0.002917991951107979
aF-0.003558326745405793
aF-0.00320055172778666
aF-0.0008362201624549925
aF-0.0008945740410126746
aF-0.0018977479776367545
aF-0.002105765976011753
aF-0.00175854389090091
aF-0.0014799527125433087
aF-0.0007254850352182984
aF-0.0006908003124408424
aF-0.0007318356656469405
aF-0.0009091030806303024
aF-0.0011199198197573423
aF-0.001293087494559586
aF-0.0015189299592748284
aF-0.0025161555968225002
aF-0.0036864636931568384
aF-0.005303556099534035
aF-0.00468393275514245
aF-0.003955482970923185
aF-0.003560331417247653
aF-0.003979049623012543
aF-0.002686471911147237
aF-0.0011322784703224897
aF-0.0008513893117196858
aF-0.0007539382786490023
aF-0.0021970418747514486
aF-0.002455882029607892
aF-0.0020367642864584923
aF-0.0020211744122207165
aF-0.0017923745326697826
aF-0.001566256512887776
aF-0.001302954275161028
aF-0.0011370143620297313
aF-0.001053383806720376
aF-0.0010267890756949782
aF-0.0010878866305574775
aF-0.0009872808586806059
aF-0.0010961054358631372
aF-0.00151332828681916
aF-0.0012959199957549572
aF-0.00226911180652678
aF-0.002051906194537878
aF-0.002509557642042637
aF-0.0020382727961987257
aF-0.00231216405518353
aF-0.01068531908094883
aF-0.026315880939364433
aF-0.07842860370874405
aF-0.13040971755981445
aF-0.20890715718269348
aF-0.34664416313171387
aF-0.5588884353637695
aF-0.8319603800773621
aF-1.1348732709884644
aF-1.9076534509658813
aF-2.414905548095703
aF-3.3758318424224854
aF-4.768283843994141
aF-6.28755521774292
aF-8.215052604675293
aF-10.616601943969727
aF-8.680838584899902
aF-6.39335823059082
aF-4.579950332641602
aF-3.3722634315490723
aF-2.426389217376709
aF-1.705709457397461
aF-1.1908878087997437
aF-0.8016905188560486
aF-0.7869831323623657
aF-0.8578420877456665
aF-0.812308132648468
aF-1.3836755752563477
aF-1.9632805585861206
aF-2.7500717639923096
aF-3.685256242752075
aF-4.967097282409668
aF-6.477061748504639
aF-8.215055465698242
aF-10.441947937011719
aF-9.193880081176758
aF-7.288290500640869
aF-5.732130527496338
aF-4.341586589813232
aF-3.3162481784820557
aF-2.5335326194763184
aF-1.9342937469482422
aF-1.3888092041015625
aF-0.9986200332641602
aF-0.7053869962692261
aF-0.4615110158920288
aF-0.3148256540298462
aF-0.2033926099538803
aF-0.12226268649101257
aF-0.08976542204618454
aF-0.07196055352687836
aF-0.06948781758546829
aF-0.07698681950569153
aF-0.08856391906738281
aF-0.1028585284948349
aF-0.12720249593257904
aF-0.14186632633209229
aF-0.157818004488945
aF-0.17463569343090057
aF-0.181357279419899
aF-0.19308169186115265
aF-0.1987282931804657
aF-0.20144592225551605
aF-0.20566584169864655
aF-0.20729024708271027
aF-0.2074848711490631
aF-0.20791634917259216
aF-0.20337265729904175
aF-0.20044563710689545
aF-0.19828379154205322
aF-0.19480298459529877
aF-0.2003079205751419
aF-0.20104555785655975
aF-0.20462995767593384
aF-0.2074558585882187
aF-0.20865574479103088
aF-0.21114841103553772
aF-0.20848602056503296
aF-0.20591385662555695
aF-0.19938983023166656
aF-0.18869651854038239
aF-0.17538829147815704
aF-0.1605137288570404
aF-0.14849047362804413
aF-0.1355208158493042
aF-0.12877003848552704
aF-0.12371973693370819
aF-0.11918763816356659
aF-0.11692371964454651
aF-0.11298477649688721
aF-0.11059771478176117
aF-0.10719875246286392
aF-0.09977363049983978
aF-0.09657526761293411
aF-0.0894622653722763
aF-0.08523627370595932
aF-0.08151660114526749
aF-0.07803724706172943
aF-0.07494353502988815
aF-0.07118348777294159
aF-0.06629529595375061
aF-0.05996697396039963
aF-0.05408761277794838
aF-0.05005005747079849
aF-0.046167563647031784
aF-0.04582687467336655
aF-0.04803549498319626
aF-0.05088241025805473
aF-0.05283971130847931
aF-0.05439942702651024
aF-0.05217519402503967
aF-0.049619849771261215
aF-0.045581914484500885
aF-0.040754254907369614
aF-0.03583066165447235
aF-0.031563736498355865
aF-0.027558812871575356
aF-0.02610219083726406
aF-0.026625368744134903
aF-0.026304496452212334
aF-0.027868280187249184
aF-0.02769634500145912
aF-0.025081265717744827
aF-0.023673996329307556
aF-0.02095150575041771
aF-0.018757425248622894
aF-0.017502568662166595
aF-0.016682270914316177
aF-0.018771614879369736
aF-0.020249173045158386
aF-0.026603125035762787
aF-0.026856504380702972
aF-0.026981620118021965
aF-0.024259857833385468
aF-0.0214400477707386
aF-0.018486300483345985
aF-0.015772230923175812
aF-0.009915556758642197
aF-0.00756223127245903
aF-0.00890797097235918
aF-0.015338970348238945
aF-0.020277393981814384
aF-0.023121235892176628
aF-0.02716010808944702
aF-0.02781831845641136
aF-0.026867132633924484
aF-0.025039438158273697
aF-0.021453311666846275
aF-0.018385274335741997
aF-0.016062280163168907
aF-0.010844280943274498
aF-0.005942449439316988
aF-0.003381911898031831
aF-0.004070314113050699
aF-0.007347534876316786
aF-0.008854333311319351
aF-0.008627817034721375
aF-0.009093090891838074
aF-0.007571625988930464
aF-0.006526479031890631
aF-0.00642929133027792
aF-0.0036769527941942215
aF-0.00247804238460958
aF-0.0012852357467636466
aF-0.0016016311710700393
aF-0.0020149818155914545
aF-0.002698112279176712
aF-0.004181929398328066
aF-0.00330849620513618
aF-0.0033142014872282743
aF-0.003016010159626603
aF-0.002588119823485613
aF-0.002158873248845339
aF-0.001613302156329155
aF-0.001355974469333887
aF-0.0008004000992514193
aF-0.0018725929548963904
aF-0.0021247882395982742
aF-0.003574167378246784
aF-0.0035755266435444355
aF-0.0037491940893232822
aF-0.0040411511436104774
aF-0.00397462397813797
aF-0.004453372210264206
aF-0.004793269094079733
aF-0.005180276930332184
aF-0.005494624841958284
aF-0.005222472362220287
aF-0.004870496690273285
aF-0.00445336289703846
aF-0.0040559908375144005
aF-0.004126381129026413
aF-0.004546454641968012
aF-0.0049576545134186745
aF-0.004956542048603296
aF-0.0048221079632639885
aF-0.004840168636292219
aF-0.004467573948204517
aF-0.005007521715015173
aF-0.006110540125519037
aF-0.005786028224974871
aF-0.00618628179654479
aF-0.005314978305250406
aF-0.004871203098446131
aF-0.004907825496047735
aF-0.004165101330727339
aF-0.003947981633245945
aF-0.0067152706906199455
aF-0.006556241307407618
aF-0.009300671517848969
aF-0.009526128880679607
aF-0.01228757668286562
aF-0.010377089492976665
aF-0.01088320929557085
aF-0.009130137041211128
aF-0.007705409545451403
aF-0.006247211713343859
aF-0.00473024370148778
aF-0.0026287296786904335
aF-0.0013557947240769863
aF-0.0009898085845634341
aF-0.0013301157159730792
aF-0.003471499076113105
aF-0.0029073876794427633
aF-0.0036544676404446363
aF-0.004888871684670448
aF-0.0043487572111189365
aF-0.005132518708705902
aF-0.003956727683544159
aF-0.0037301229313015938
aF-0.0030494793318212032
aF-0.001955430256202817
aF-0.0008565891766920686
aF-0.0007725126924924552
aF-0.0020286953076720238
aF-0.0018835737137123942
aF-0.002384922467172146
aF-0.0024735089391469955
aF-0.002084270818158984
aF-0.001989849843084812
aF-0.001680033397860825
aF-0.0015628894325345755
aF-0.001425052178092301
aF-0.0012864817399531603
aF-0.0014141086721792817
aF-0.00141145009547472
aF-0.0015921677695587277
aF-0.001285181613638997
aF-0.0011051221517845988
aF-0.0011364740785211325
aF-0.0006344231078401208
aF-0.0006843469454906881
aF-0.000752016669139266
aF-0.001354500069282949
aF-0.0015885494649410248
aF-0.0012427526526153088
aF-0.00151554006151855
aF-0.0018363834824413061
aF-0.0015532384859398007
aF-0.001095389947295189
aF-0.000901152438018471
aF-0.0009382381686009467
aF-0.0010802681790664792
aF-0.0010134722106158733
aF-0.0021629249677062035
aF-0.002455898094922304
aF-0.0031210770830512047
aF-0.002953631803393364
aF-0.0030027469620108604
aF-0.002903116401284933
aF-0.002624558750540018
aF-0.0026667078491300344
aF-0.0028691657353192568
aF-0.0022210683673620224
aF-0.0022216427605599165
aF-0.0020289146341383457
aF-0.001899030408822
aF-0.001518012722954154
aF-0.0021770717576146126
aF-0.0015541395405307412
aF-0.0016500852070748806
aF-0.0015708404826000333
aF-0.0015425777528434992
aF-0.0011159500572830439
aF-0.0005704759969376028
aF-0.00029101481777615845
aF-0.000789679354056716
aF-0.0016530598513782024
aF-0.0024448351468890905
aF-0.002765580080449581
aF-0.004217152949422598
aF-0.003276197938248515
aF-0.004360138438642025
aF-0.003350155660882592
aF-0.003022937336936593
aF-0.0037523515056818724
aF-0.002982882782816887
aF-0.0031787909101694822
aF-0.0007990034064278007
aF-0.00015282536332961172
aF-0.0010157529031857848
aF-0.003643413307145238
aF-0.003844672115519643
aF-0.004342574626207352
aF-0.0029023687820881605
aF-0.002482527866959572
aF-0.002243857365101576
aF-0.002594294724985957
aF-0.001615829300135374
aF-0.0010872090933844447
aF-0.00039945036405697465
aF-0.0001003080906230025
aF-0.00021046561596449465
aF-0.00032648976775817573
aF-0.00023903718101792037
aF-0.00013274500088300556
aF-0.00015076245472300798
aF-0.00015206009265966713
aF-0.00020159297855570912
aF-8.355354452760366e-07
aF-0.0003332307969685644
aF-0.0004687751061283052
aF-0.0009718725923448801
aF-0.0008583237649872899
aF-0.002326212590560317
aF-0.0017864333931356668
aF-0.002151011722162366
aF-0.0017335094744339585
aF-0.0015450888313353062
aF-0.0013829183299094439
aF-0.0010797433787956834
aF-0.001528564840555191
aF-0.0010784491896629333
aF-0.00142755510751158
aF-0.0015324593987315893
aF-0.0010865727672353387
aF-0.0010736564872786403
aF-0.0012486083433032036
aF-0.0015507903881371021
aF-0.00019724125741049647
aF-0.00017979677068069577
aF-0.001726062735542655
aF-0.0010056027676910162
aF-0.002234706422314048
aF-0.0022288982290774584
aF-0.0024523641914129257
aF-0.0016745938919484615
aF-0.002379931276664138
aF-0.0018054102547466755
aF-0.000925106112845242
aF-0.0006073754047974944
aF-0.00023737728770356625
aF-9.289836452808231e-05
aF-0.00011844676191685721
aF-3.5956087231170386e-05
aF-5.0897913752123713e-05
aF-0.0001326285273535177
aF-0.00018330726015847176
aF-0.00045930809574201703
aF-0.00021332211326807737
aF-0.0010013406863436103
aF-0.0015814625658094883
aF-0.0010332424426451325
aF-0.00043419288704171777
aF-0.0013545325491577387
aF-0.0023249771911650896
aF-0.002096409909427166
aF-0.0015627668472006917
aF-0.0006496854475699365
aF-0.0005792123265564442
aF-0.0006278693908825517
aF-0.0006555530126206577
aF-0.0004064719832967967
aF-0.0002810434380080551
aF-0.00042434645001776516
aF-1.5791956684552133e-05
aF-0.00026407846598885953
aF-0.001054811174981296
aF-0.0013716446701437235
aF-0.0018496278207749128
aF-0.0026072857435792685
aF-0.0034920910838991404
aF-0.004082558210939169
aF-0.004875313490629196
aF-0.004711443558335304
aF-0.005129420198500156
aF-0.003937867935746908
aF-0.0034722790587693453
aF-0.003350940765812993
aF-0.0026657525449991226
aF-0.001222493126988411
aF-0.0006629046984016895
aF-0.0008801661897450686
aF-0.004006394650787115
aF-0.008069263771176338
aF-0.012055795639753342
aF-0.014553828164935112
aF-0.01312472578138113
aF-0.01147292647510767
aF-0.009710399433970451
aF-0.01087242178618908
aF-0.010516716167330742
aF-0.0073256720788776875
aF-0.0044606407172977924
aF-0.0006661894731223583
aF-0.000816951971501112
aF-0.003756473306566477
aF-0.007833624258637428
aF-0.008189553394913673
aF-0.007509111892431974
aF-0.005815420765429735
aF-0.0057492791675031185
aF-0.005211202893406153
aF-0.004382553976029158
aF-0.0034370042849332094
aF-0.002618031343445182
aF-0.0025458578020334244
aF-0.004499673843383789
aF-0.004413623828440905
aF-0.0062104095704853535
aF-0.005754000041633844
aF-0.005497567821294069
aF-0.0047150105237960815
aF-0.0044928379356861115
aF-0.0035716465208679438
aF-0.0027935830876231194
aF-0.0009115419816225767
aF-0.0014736230950802565
aF-0.0018879357958212495
aF-0.0038106648717075586
aF-0.004328425507992506
aF-0.004087283741682768
aF-0.0035832212306559086
aF-0.003362565068528056
aF-0.0025843940675258636
aF-0.0031135710887610912
aF-0.001293783774599433
aF-0.0019600579980760813
aF-0.002348818816244602
aF-0.005721595138311386
aF-0.005934552289545536
aF-0.005234283860772848
aF-0.004777975380420685
aF-0.004490719176828861
aF-0.004017222207039595
aF-0.0032925494015216827
aF-0.0020761103369295597
aF-0.0015342048136517406
aF-0.001498368219472468
aF-0.0014346400275826454
aF-0.001759896520525217
aF-0.0020262536127120256
aF-0.0024726479314267635
aF-0.002783467760309577
aF-0.003490322269499302
aF-0.0037985211238265038
aF-0.0038926396518945694
aF-0.0032386076636612415
aF-0.002909888746216893
aF-0.0037221843376755714
aF-0.0015210214769467711
a.