(lp0
F-5.206366040511057e-07
aF-10.792863845825195
aF-9.791281700134277
aF-9.81054973602295
aF-9.850221633911133
aF-9.830964088439941
aF-9.791152000427246
aF-9.77122974395752
aF-9.75159740447998
aF-9.731987953186035
aF-9.731940269470215
aF-9.73189926147461
aF-9.751945495605469
aF-9.771367073059082
aF-9.791363716125488
aF-9.83209228515625
aF-9.833157539367676
aF-9.717209815979004
aF-9.52963924407959
aF-9.317819595336914
aF-9.043729782104492
aF-8.73169994354248
aF-8.374429702758789
aF-7.975406169891357
aF-7.560155391693115
aF-7.141175270080566
aF-6.717650890350342
aF-6.324943542480469
aF-5.921543598175049
aF-5.590934753417969
aF-5.277932643890381
aF-4.997934818267822
aF-4.788076877593994
aF-4.620787620544434
aF-4.528825759887695
aF-4.474915981292725
aF-4.473859786987305
aF-4.539157390594482
aF-4.665480136871338
aF-4.851414203643799
aF-5.170584201812744
aF-5.627862930297852
aF-6.2818732261657715
aF-6.9515700340271
aF-7.870151996612549
aF-8.847429275512695
aF-9.852031707763672
aF-9.345074653625488
aF-8.268514633178711
aF-7.216733932495117
aF-6.273073673248291
aF-5.392741680145264
aF-4.613173007965088
aF-3.952150583267212
aF-3.3486623764038086
aF-2.876070976257324
aF-2.488138198852539
aF-2.1858229637145996
aF-1.9538819789886475
aF-1.7878079414367676
aF-1.6696388721466064
aF-1.5965955257415771
aF-1.567723035812378
aF-1.5834962129592896
aF-1.632259726524353
aF-1.7309035062789917
aF-1.8775733709335327
aF-2.064650297164917
aF-2.343860387802124
aF-2.664252281188965
aF-3.1414237022399902
aF-3.5734519958496094
aF-4.402952671051025
aF-5.100375175476074
aF-6.351940155029297
aF-7.713196754455566
aF-9.336668014526367
aF-10.129639625549316
aF-8.646255493164062
aF-7.171514511108398
aF-5.944626808166504
aF-4.8309173583984375
aF-3.843006134033203
aF-3.027872323989868
aF-2.397611618041992
aF-1.778210997581482
aF-1.4200528860092163
aF-1.0425772666931152
aF-0.7891185283660889
aF-0.5671297311782837
aF-0.3965853750705719
aF-0.2816036343574524
aF-0.19193021953105927
aF-0.12146209180355072
aF-0.0731000304222107
aF-0.04881725832819939
aF-0.04147664085030556
aF-0.046206455677747726
aF-0.05568045377731323
aF-0.06176744028925896
aF-0.0698491558432579
aF-0.07398975640535355
aF-0.08124576508998871
aF-0.08191066980361938
aF-0.0834360346198082
aF-0.07924208790063858
aF-0.07452094554901123
aF-0.06834112107753754
aF-0.06483349949121475
aF-0.059376735240221024
aF-0.054474156349897385
aF-0.04981520399451256
aF-0.04382052272558212
aF-0.037611592561006546
aF-0.035071101039648056
aF-0.03743378818035126
aF-0.03863576799631119
aF-0.04408806934952736
aF-0.046999260783195496
aF-0.04670896753668785
aF-0.04669506847858429
aF-0.04288708418607712
aF-0.03894539549946785
aF-0.034656886011362076
aF-0.03086475469172001
aF-0.028148885816335678
aF-0.026859229430556297
aF-0.027676235884428024
aF-0.029819270595908165
aF-0.029592474922537804
aF-0.031220151111483574
aF-0.029048068448901176
aF-0.02695489674806595
aF-0.02392914891242981
aF-0.020557653158903122
aF-0.01742294244468212
aF-0.015285768546164036
aF-0.012225071899592876
aF-0.011538365855813026
aF-0.012560871429741383
aF-0.014686895534396172
aF-0.0176397655159235
aF-0.01867537386715412
aF-0.01919718272984028
aF-0.01915377750992775
aF-0.01664206199347973
aF-0.014407615177333355
aF-0.012202499434351921
aF-0.00971758272498846
aF-0.00861728098243475
aF-0.008919422514736652
aF-0.00905865803360939
aF-0.010032999329268932
aF-0.010389468632638454
aF-0.009594348259270191
aF-0.009506011381745338
aF-0.00913694966584444
aF-0.008886613883078098
aF-0.009731733240187168
aF-0.009495548903942108
aF-0.010652446188032627
aF-0.01250334084033966
aF-0.01254033762961626
aF-0.013555919751524925
aF-0.013082070276141167
aF-0.01225625816732645
aF-0.011120111681520939
aF-0.009865895844995975
aF-0.009190469048917294
aF-0.009170166216790676
aF-0.010706889443099499
aF-0.010565673932433128
aF-0.010588059201836586
aF-0.00927470438182354
aF-0.008163702674210072
aF-0.007072882726788521
aF-0.013366471976041794
aF-0.040730081498622894
aF-0.08105673640966415
aF-0.13363254070281982
aF-0.2175128161907196
aF-0.3550460934638977
aF-0.5425409078598022
aF-0.6752885580062866
aF-0.877056360244751
aF-1.1153367757797241
aF-1.4828906059265137
aF-1.9063704013824463
aF-2.3458595275878906
aF-3.101898193359375
aF-3.693101644515991
aF-4.889756202697754
aF-5.885204315185547
aF-7.308211326599121
aF-8.80833625793457
aF-10.626094818115234
aF-8.814569473266602
aF-7.165472984313965
aF-5.797174453735352
aF-4.601122856140137
aF-3.5324954986572266
aF-2.7341089248657227
aF-2.024930238723755
aF-1.4814140796661377
aF-1.0733062028884888
aF-0.7750930786132812
aF-0.5168846845626831
aF-0.36084625124931335
aF-0.21619832515716553
aF-0.1524103730916977
aF-0.0786312147974968
aF-0.059343717992305756
aF-0.04297767952084541
aF-0.03557446226477623
aF-0.04028653725981712
aF-0.03931049257516861
aF-0.042054034769535065
aF-0.04319668561220169
aF-0.042304627597332
aF-0.04098553955554962
aF-0.038995757699012756
aF-0.03787209466099739
aF-0.03473641723394394
aF-0.032538458704948425
aF-0.030838916078209877
aF-0.029578551650047302
aF-0.02923402562737465
aF-0.02963866852223873
aF-0.02795424312353134
aF-0.027080673724412918
aF-0.025913765653967857
aF-0.024898994714021683
aF-0.02528267726302147
aF-0.024843495339155197
aF-0.026808081194758415
aF-0.025865914300084114
aF-0.029718533158302307
aF-0.025761747732758522
aF-0.026180997490882874
aF-0.023579005151987076
aF-0.021738465875387192
aF-0.02008941024541855
aF-0.019317056983709335
aF-0.02008667401969433
aF-0.021176276728510857
aF-0.02116847038269043
aF-0.02153664082288742
aF-0.02035585790872574
aF-0.01865416020154953
aF-0.01755034551024437
aF-0.016216062009334564
aF-0.015200271271169186
aF-0.014510000124573708
aF-0.015331593342125416
aF-0.01675722748041153
aF-0.020312797278165817
aF-0.038479890674352646
aF-0.06606802344322205
aF-0.10870001465082169
aF-0.18144652247428894
aF-0.289851576089859
aF-0.42330172657966614
aF-0.6132345795631409
aF-0.9337463974952698
aF-1.385427713394165
aF-1.9032129049301147
aF-2.8303873538970947
aF-3.9568209648132324
aF-5.173608303070068
aF-7.06640100479126
aF-9.012836456298828
aF-10.269612312316895
aF-7.983748912811279
aF-6.133993625640869
aF-4.7341508865356445
aF-3.5993616580963135
aF-2.471834659576416
aF-1.7850022315979004
aF-1.2639696598052979
aF-0.806275486946106
aF-0.5872542858123779
aF-0.3962332606315613
aF-0.3088566064834595
aF-0.26577094197273254
aF-0.34726592898368835
aF-0.47448477149009705
aF-0.6302688121795654
aF-0.801365852355957
aF-1.1407577991485596
aF-1.514704942703247
aF-1.983947992324829
aF-2.5693747997283936
aF-3.2727556228637695
aF-4.141388893127441
aF-5.181617259979248
aF-6.567663192749023
aF-7.88841438293457
aF-9.80042839050293
aF-9.76009464263916
aF-7.985093593597412
aF-6.5093183517456055
aF-5.1415252685546875
aF-4.0165510177612305
aF-3.079549789428711
aF-2.3229944705963135
aF-1.6325987577438354
aF-1.2135741710662842
aF-0.8664807677268982
aF-0.5316859483718872
aF-0.36424699425697327
aF-0.2696475386619568
aF-0.18180516362190247
aF-0.12008456140756607
aF-0.12743766605854034
aF-0.11008583009243011
aF-0.1451319009065628
aF-0.17052140831947327
aF-0.218550905585289
aF-0.26474428176879883
aF-0.3253139853477478
aF-0.3790227174758911
aF-0.4372005760669708
aF-0.5115285515785217
aF-0.5967592000961304
aF-0.7023137807846069
aF-0.8364875912666321
aF-0.9694303274154663
aF-1.1694825887680054
aF-1.3858532905578613
aF-1.6779922246932983
aF-2.0580506324768066
aF-2.4468047618865967
aF-2.9516842365264893
aF-3.6720755100250244
aF-4.362345218658447
aF-5.420772075653076
aF-6.492354869842529
aF-8.041569709777832
aF-9.685920715332031
aF-9.752205848693848
aF-8.11108684539795
aF-6.724796772003174
aF-5.452940464019775
aF-4.334547519683838
aF-3.457265615463257
aF-2.6296792030334473
aF-2.0356051921844482
aF-1.5011231899261475
aF-1.1138254404067993
aF-0.8109558820724487
aF-0.5783660411834717
aF-0.40697747468948364
aF-0.27855557203292847
aF-0.1785203218460083
aF-0.10648603737354279
aF-0.06495767086744308
aF-0.03677380830049515
aF-0.023305241018533707
aF-0.019892841577529907
aF-0.02080637961626053
aF-0.024802396073937416
aF-0.03000655770301819
aF-0.029449425637722015
aF-0.02870175987482071
aF-0.025557568296790123
aF-0.02232486940920353
aF-0.01892811618745327
aF-0.01418833713978529
aF-0.009706101380288601
aF-0.0056730336509644985
aF-0.004453975707292557
aF-0.005182923283427954
aF-0.008304922841489315
aF-0.008556394837796688
aF-0.009628847241401672
aF-0.009162195026874542
aF-0.009575431235134602
aF-0.009911122731864452
aF-0.008742128498852253
aF-0.007552788592875004
aF-0.006344352383166552
aF-0.00487128458917141
aF-0.0034037388395518064
aF-0.002032436430454254
aF-0.0014450305607169867
aF-0.0013654177309945226
aF-0.0024104088079184294
aF-0.0012489475775510073
aF-0.0010925527894869447
aF-0.0014499388635158539
aF-0.003015665104612708
aF-0.0020456910133361816
aF-0.0032544652931392193
aF-0.009261996485292912
aF-0.0270541962236166
aF-0.05407487601041794
aF-0.10387447476387024
aF-0.16164471209049225
aF-0.24430646002292633
aF-0.3539797067642212
aF-0.5326935648918152
aF-0.801325261592865
aF-1.188132882118225
aF-1.7159899473190308
aF-2.6265387535095215
aF-3.428189992904663
aF-4.740057945251465
aF-6.448495864868164
aF-8.265798568725586
aF-10.714336395263672
aF-8.37073802947998
aF-6.29174280166626
aF-4.369226932525635
aF-3.2208783626556396
aF-2.4114058017730713
aF-1.693092942237854
aF-1.2413309812545776
aF-0.7209920287132263
aF-0.7751013040542603
aF-0.6376027464866638
aF-1.0903509855270386
aF-1.4843944311141968
aF-2.0743913650512695
aF-2.757685661315918
aF-3.8143506050109863
aF-5.089039325714111
aF-6.539057731628418
aF-8.367831230163574
aF-10.403343200683594
aF-9.06853199005127
aF-7.256841659545898
aF-5.68228006362915
aF-4.373749732971191
aF-3.361889600753784
aF-2.6102774143218994
aF-1.8394488096237183
aF-1.3965280055999756
aF-0.9931552410125732
aF-0.705601155757904
aF-0.4774405062198639
aF-0.31788188219070435
aF-0.214793860912323
aF-0.1334613859653473
aF-0.0774923712015152
aF-0.04286319017410278
aF-0.028172103688120842
aF-0.01860668696463108
aF-0.0141511932015419
aF-0.01519028376787901
aF-0.014899767003953457
aF-0.011729157529771328
aF-0.010360999032855034
aF-0.009408910758793354
aF-0.00742066465318203
aF-0.005105170421302319
aF-0.0022886209189891815
aF-0.001477629877626896
aF-0.0025373888202011585
aF-0.0037675132043659687
aF-0.008046355098485947
aF-0.009068665094673634
aF-0.013117175549268723
aF-0.013064702041447163
aF-0.014943409711122513
aF-0.012355713173747063
aF-0.010923320427536964
aF-0.009505869820713997
aF-0.008560581132769585
aF-0.004810579586774111
aF-0.0030190329998731613
aF-0.0032011684961616993
aF-0.004191312938928604
aF-0.007254290860146284
aF-0.0065227653831243515
aF-0.00634927349165082
aF-0.005810079164803028
aF-0.004777505993843079
aF-0.004028751980513334
aF-0.0037885468918830156
aF-0.0028429797384887934
aF-0.0015769166639074683
aF-0.0010510158026590943
aF-0.0015705673722550273
aF-0.004276222083717585
aF-0.0050834049470722675
aF-0.007729826960712671
aF-0.008238396607339382
aF-0.008319531567394733
aF-0.008099445141851902
aF-0.007532482035458088
aF-0.006573622114956379
aF-0.00594361312687397
aF-0.004310559947043657
aF-0.0035712295211851597
aF-0.00320425839163363
aF-0.004357950296252966
aF-0.004555585794150829
aF-0.005978647619485855
aF-0.007862872444093227
aF-0.0078056021593511105
aF-0.009139004163444042
aF-0.007916286587715149
aF-0.007066040299832821
aF-0.006041968706995249
aF-0.005110401660203934
aF-0.0034239839296787977
aF-0.0025909608229994774
aF-0.001885590492747724
aF-0.0016703372821211815
aF-0.001717649633064866
aF-0.0036905119195580482
aF-0.0035861171782016754
aF-0.006424263585358858
aF-0.004518105648458004
aF-0.004439000505954027
aF-0.003951039630919695
aF-0.0036951187066733837
aF-0.0030479051638394594
aF-0.0022103029768913984
aF-0.001221371814608574
aF-0.003304535523056984
aF-0.008516094647347927
aF-0.008931854739785194
aF-0.01179849449545145
aF-0.011645413003861904
aF-0.010865291580557823
aF-0.01067667081952095
aF-0.009187900461256504
aF-0.00775269465520978
aF-0.006546294782310724
aF-0.005319283343851566
aF-0.005049885716289282
aF-0.004557691514492035
aF-0.005288439337164164
aF-0.005331771913915873
aF-0.005855956114828587
aF-0.0067427922040224075
aF-0.0086030513048172
aF-0.009416535496711731
aF-0.011006348766386509
aF-0.008391103707253933
aF-0.007560391444712877
aF-0.007217707112431526
aF-0.0051350099965929985
aF-0.0028019798919558525
aF-0.00258074002340436
aF-0.0012316781794652343
aF-0.0012831013882532716
aF-0.0032866818364709616
aF-0.004837834741920233
aF-0.006073430180549622
aF-0.0055078468285501
aF-0.004485494922846556
aF-0.003694935468956828
aF-0.005496879108250141
aF-0.004895283840596676
aF-0.0036833130288869143
aF-0.0012955765705555677
aF-0.0010705870809033513
aF-0.0004877959727309644
aF-0.0005367306293919683
aF-0.0009203527006320655
aF-0.00038927581044845283
aF-0.0008937136735767126
aF-0.0007570369052700698
aF-0.001258378499187529
aF-0.0012210774002596736
aF-0.0007361905300058424
aF-0.0006655643228441477
aF-0.0012876457767561078
aF-0.002169196028262377
aF-0.0011215911945328116
aF-0.0005965158343315125
aF-0.00020598110859282315
aF-0.00093767826911062
aF-0.0016597907524555922
aF-0.0017126958118751645
aF-0.0013784441398456693
aF-0.0009001139551401138
aF-0.0007366431527771056
aF-0.0007198399398475885
aF-0.0006609579431824386
aF-0.0004028029215987772
aF-0.00016736853285692632
aF-0.00022648723097518086
aF-0.00015059746510814875
aF-0.00017948515596799552
aF-0.00019188942678738385
aF-0.00013040777412243187
aF-9.206412505591288e-05
aF-0.00020885544654447585
aF-0.00010893234866671264
aF-0.00030739401699975133
aF-0.0002368804853176698
aF-0.00034819418215192854
aF-0.0004889507545158267
aF-0.0005863740807399154
aF-0.0007325762417167425
aF-0.00143648951780051
aF-0.0018026576144620776
aF-0.003611107589676976
aF-0.004303069319576025
aF-0.005187396425753832
aF-0.006959894672036171
aF-0.006760381627827883
aF-0.006774278823286295
aF-0.005657906644046307
aF-0.004809390753507614
aF-0.0051767220720648766
aF-0.004937417805194855
aF-0.003057406283915043
aF-0.0016172846080735326
aF-0.00025074524455703795
aF-0.0023901192471385
aF-0.00868401862680912
aF-0.014370025135576725
aF-0.015603980980813503
aF-0.014164718799293041
aF-0.011956563219428062
aF-0.010599709115922451
aF-0.010444684885442257
aF-0.007890389300882816
aF-0.009170535020530224
aF-0.0024481352884322405
aF-0.001240181620232761
aF-9.192716970574111e-05
aF-0.0009017120464704931
aF-0.0021248124539852142
aF-0.0030588083900511265
aF-0.002377165015786886
aF-0.0020204270258545876
aF-0.0016683641588315368
aF-0.0020950862672179937
aF-0.0019212019396945834
aF-0.001363898511044681
aF-0.0004899624618701637
aF-1.2781504665326793e-05
aF-0.00046582098002545536
aF-0.0007940797950141132
aF-0.0025099278427660465
aF-0.002371213398873806
aF-0.0021579228341579437
aF-0.001720924163237214
aF-0.0015571003314107656
aF-0.001623813295736909
aF-0.0015407985774800181
aF-0.0006628994015045464
aF-0.00028955377638339996
aF-0.0013587821740657091
aF-0.0028915219008922577
aF-0.00225962046533823
aF-0.003149301977828145
aF-0.0031302582938224077
aF-0.002944305306300521
aF-0.0029961608815938234
aF-0.0029206271283328533
aF-0.002327804220840335
aF-0.0020902608521282673
aF-0.0017586997710168362
aF-0.0015152250416576862
aF-0.0012923883041366935
aF-0.0011995910899713635
aF-0.001241041929461062
aF-0.0012248512357473373
aF-0.0015545375645160675
aF-0.002602378372102976
aF-0.003164813853800297
aF-0.004561818670481443
aF-0.0036946639884263277
aF-0.004345279186964035
aF-0.0035700330045074224
aF-0.003220757469534874
aF-0.0026419111527502537
aF-0.001729133422486484
aF-0.0015052506932988763
aF-0.0007216615485958755
aF-0.0003661278751678765
aF-0.0006886107730679214
aF-0.0007796771242283285
aF-0.000897796533536166
aF-0.0013616541400551796
aF-0.0009870382491499186
aF-0.0010179700329899788
aF-0.000903982378076762
aF-0.0011091853957623243
aF-0.0011498428648337722
aF-0.0008350002462975681
aF-0.0014256557915359735
aF-0.0017393153393641114
aF-0.0009941880125552416
aF-0.001555870403535664
aF-0.0018861014395952225
aF-0.0015245195245370269
aF-0.0008536899113096297
aF-0.00019722589058801532
aF-0.00026228843489661813
aF-0.0005489440518431365
aF-0.000377975549781695
aF-1.1181103218405042e-05
aF-1.554103073431179e-05
aF-1.1303302926535252e-05
aF-2.022643639065791e-05
aF-0.0004157697840128094
aF-0.0005003625410608947
aF-3.129126343992539e-05
aF-0.0002543313894420862
aF-0.0015726707642897964
aF-0.001241616322658956
aF-0.0027333456091582775
aF-0.0019113861490041018
aF-0.002216573338955641
aF-0.001675696694292128
aF-0.0015329908346757293
aF-0.0014444454573094845
aF-0.0010171434842050076
aF-0.0008109554764814675
aF-0.0007362792966887355
aF-0.0007724337046965957
aF-0.0006649447605013847
aF-0.00013035524170845747
aF-0.00035911452141590416
aF-0.0005489151226356626
aF-0.0010802438482642174
aF-0.0005887278239242733
aF-0.0003615797613747418
aF-0.00034077189047820866
aF-0.0005825798725709319
aF-0.0013125455006957054
aF-0.0004020219494123012
aF-6.531786493724212e-05
aF-0.0007494130404666066
aF-0.00012976389552932233
aF-0.0001007196624414064
aF-3.8962389226071537e-05
aF-0.0003266791463829577
aF-0.00036154300323687494
aF-0.0005397748318500817
aF-0.0001725987676763907
aF-1.091748163162265e-05
aF-0.0005254543502815068
aF-0.0007414920837618411
aF-0.000598616898059845
aF-8.94482946023345e-05
aF-0.0005578608834184706
aF-0.0012245896505191922
aF-0.0011194399558007717
aF-0.0008465333958156407
aF-0.000834115722682327
aF-0.000900647952221334
aF-0.0006328431190922856
aF-0.0005830868030898273
aF-0.0006286593270488083
aF-0.00033759113284759223
aF-0.00041657648398540914
aF-0.00022679379617329687
aF-0.00012684983084909618
aF-3.9719936467008665e-05
aF-0.00010218205716228113
aF-4.289665957912803e-05
aF-5.4065581934992224e-05
aF-0.00010904367081820965
aF-0.0002743779623415321
aF-0.0007281990838237107
aF-0.001022782758809626
aF-0.0005236954311840236
aF-0.0006778654060326517
aF-0.000480499817058444
aF-0.00040617704507894814
aF-0.0005545413005165756
aF-0.0004425774095579982
aF-0.0001822180929593742
aF-0.00020780856721103191
aF-0.0001431267592124641
aF-0.0002667458902578801
aF-0.0005264646024443209
aF-0.00033699514460749924
aF-0.00030898695695213974
aF-0.0017607677727937698
aF-0.0026394007727503777
aF-0.0009106675861403346
aF-0.0008185281185433269
aF-0.0012399826664477587
aF-0.0016468656249344349
aF-0.0004191513580735773
aF-0.0002817890199366957
aF-0.0002453202032484114
aF-0.0001754039985826239
aF-0.0006637278711423278
aF-0.0001679694833001122
aF-0.00020173515076749027
aF-0.0002625224587973207
aF-0.0002250382531201467
aF-0.00019693523063324392
aF-0.00038290550583042204
aF-0.0004727245541289449
aF-0.0010480651399120688
aF-0.0012245847610756755
aF-0.0014821408549323678
aF-0.0011788808042183518
aF-0.0010728175984695554
aF-0.0010133108589798212
aF-0.0011115013621747494
aF-0.0022248090244829655
aF-0.002453000983223319
aF-0.0016801642486825585
aF-0.00042490928899496794
aF-0.0005344362580217421
aF-0.0016241351841017604
aF-0.001933560473844409
aF-0.0007206854643300176
aF-0.0013624331913888454
aF-0.0009945203782990575
aF-0.0008342841756530106
aF-0.0007994525949470699
aF-0.0008821157971397042
aF-0.00044896776671521366
aF-0.00038657276309095323
aF-0.00042029176256619394
aF-0.00031187792774289846
aF-0.0008616378181613982
aF-0.0004763541801366955
aF-0.00043090686085633934
aF-0.0004560100205708295
aF-0.0013900022022426128
aF-0.0017293855780735612
aF-0.0016017036978155375
aF-0.0009954649722203612
aF-0.0007961380761116743
aF-0.0006418837583623827
aF-0.0007753783138468862
aF-0.00026000067009590566
aF-0.0007900332566350698
aF-0.00014690330135636032
aF-9.173967555398121e-05
aF-0.0006675696931779385
aF-0.001222971361130476
aF-0.00075365329394117
aF-0.0009674030006863177
aF-0.000799494911916554
aF-0.0008128921035677195
aF-0.0006357527454383671
aF-0.0009032589732669294
aF-0.0014620342990383506
aF-0.0015225607203319669
aF-0.0022709593176841736
aF-0.0017388127744197845
aF-0.0015584647189825773
aF-0.0012103428598493338
aF-0.0008607692434452474
aF-0.0006641731015406549
aF-0.0005910702748224139
aF-0.0002486058510839939
aF-0.00018044369062408805
aF-9.892731031868607e-05
aF-0.00013552649761550128
aF-6.98075455147773e-05
aF-0.00010088134149555117
aF-0.00014391994045581669
aF-8.67288836161606e-05
aF-0.00020290470274630934
aF-0.00023342001077253371
aF-1.9572229575715028e-05
aF-0.0002794379834085703
aF-0.00015705559053458273
aF-0.0001948647404788062
aF-4.9650352593744174e-05
aF-0.00026747622177936137
aF-9.35655043576844e-05
aF-0.00028209449374116957
aF-0.0007612740155309439
aF-0.0003612916625570506
aF-0.0002531775098759681
aF-0.0006400264101102948
aF-4.429265027283691e-05
aF-0.0003241920785512775
aF-3.307958468212746e-05
aF-0.0006462259334512055
aF-0.0014898421941325068
aF-0.001037043984979391
aF-0.002587453927844763
aF-0.0007295831455849111
aF-0.0006780906114727259
aF-0.0007182562840171158
aF-0.0013046625535935163
aF-0.00039858571835793555
aF-0.0004510427825152874
aF-0.0002552987134549767
aF-0.0002085053565679118
aF-0.00012246062397025526
aF-0.0002950603375211358
aF-0.0001826588559197262
aF-8.11653038113036e-08
aF-0.00014296361769083887
aF-0.00021349194867070764
aF-0.00017690328240860254
aF-0.000427653721999377
aF-0.00010230101179331541
aF-0.0001405312359565869
aF-0.00027787371072918177
aF-0.00020564213627949357
aF-0.0002334493474336341
aF-0.0006972281844355166
aF-0.00010903646034421399
aF-0.00044258078560233116
aF-0.0008930826443247497
aF-0.0011081896955147386
aF-0.002092302544042468
aF-0.0020858366042375565
aF-0.0031406607013195753
aF-0.0016710303025320172
aF-0.0017112272325903177
aF-0.0014227133942767978
aF-0.0022079269401729107
aF-0.0004489801649469882
aF-0.0011197928106412292
aF-0.001924051670357585
aF-0.004118707031011581
aF-0.003210127353668213
aF-0.00323299877345562
aF-0.00309788272716105
aF-0.0026512460317462683
aF-0.002205241471529007
aF-0.001911817817017436
aF-0.0009944753255695105
aF-0.0012264662655070424
aF-0.0008625308983027935
aF-0.0015079544391483068
aF-0.00290318438783288
aF-0.004442697856575251
aF-0.004321431741118431
aF-0.004543354734778404
aF-0.0032811418641358614
aF-0.0027501226868480444
aF-0.004308349918574095
aF-0.004834478255361319
aF-0.0032619915436953306
aF-0.0034482672344893217
aF-0.001629890175536275
aF-0.0012750105233862996
aF-0.0012808501487597823
aF-0.001437005470506847
aF-0.0006964243948459625
aF-0.0005060436087660491
aF-0.0010180099634453654
aF-0.0030871466733515263
aF-0.0013227487215772271
aF-0.0017249493394047022
aF-0.000808334385510534
aF-0.0008046773145906627
aF-0.0007710705394856632
aF-0.0004782906034961343
aF-0.00010051725985249504
aF-1.360985424980754e-05
aF-0.0007373749976977706
aF-0.0004127616120968014
aF-0.00045160987065173686
aF-0.0004585485439747572
aF-0.0007464359514415264
aF-0.0004720498400274664
aF-0.00011585470929276198
aF-0.0005414487677626312
aF-0.001475103315897286
aF-0.0026458140928298235
aF-0.0010776205454021692
aF-0.001009176135994494
aF-0.0015297054778784513
aF-0.0007457730243913829
aF-0.0010292241349816322
aF-0.00018457777332514524
aF-0.0006684036925435066
aF-0.0012742193648591638
aF-0.002702245721593499
aF-0.006636712700128555
aF-0.008825747296214104
aF-0.010761379264295101
aF-0.010554773733019829
aF-0.00957564078271389
aF-0.009162546135485172
aF-0.008100730367004871
aF-0.007000559475272894
aF-0.005584998521953821
aF-0.00489339604973793
aF-0.004900169093161821
aF-0.005325295031070709
aF-0.007051376160234213
aF-0.00825788825750351
aF-0.009355081245303154
aF-0.010443324223160744
aF-0.009642263874411583
aF-0.009358780458569527
aF-0.008372796699404716
aF-0.006509574130177498
aF-0.00539645878598094
aF-0.004119406454265118
aF-0.00401665223762393
aF-0.007020964752882719
aF-0.0061271823942661285
aF-0.0066640740260481834
aF-0.007164741866290569
aF-0.0061162919737398624
aF-0.004968022461980581
aF-10.268705368041992
aF-8.593236923217773
aF-7.87960147857666
aF-7.393263816833496
aF-6.985568046569824
aF-6.606184482574463
aF-6.242220401763916
aF-5.921955108642578
aF-5.644381999969482
aF-5.388407230377197
aF-5.216794490814209
aF-5.047913074493408
aF-4.967519283294678
aF-4.9366044998168945
aF-4.935990333557129
aF-4.990733623504639
aF-5.0924506187438965
aF-5.2397871017456055
aF-5.540035724639893
aF-5.938758850097656
aF-6.429725646972656
aF-7.632187366485596
aF-7.73934268951416
aF-8.791969299316406
aF-9.891117095947266
aF-9.353347778320312
aF-8.369006156921387
aF-7.4120917320251465
aF-6.494358062744141
aF-5.648754119873047
aF-4.888404369354248
aF-4.235187530517578
aF-3.6497364044189453
aF-3.174921751022339
aF-2.7960116863250732
aF-2.48390793800354
aF-2.2321348190307617
aF-2.0438804626464844
aF-1.9059596061706543
aF-1.8262090682983398
aF-1.7958694696426392
aF-1.8113744258880615
aF-1.8760137557983398
aF-1.9781851768493652
aF-2.1575207710266113
aF-2.3385870456695557
aF-2.648210048675537
aF-2.9541916847229004
aF-3.409944534301758
aF-4.022446155548096
aF-4.834499359130859
aF-5.953562259674072
aF-6.990799903869629
aF-8.601757049560547
aF-9.974206924438477
aF-9.341277122497559
aF-7.842426776885986
aF-6.509799003601074
aF-5.295934677124023
aF-4.253940105438232
aF-3.4327216148376465
aF-2.7118475437164307
aF-2.085775852203369
aF-1.6414462327957153
aF-1.2458809614181519
aF-0.9417975544929504
aF-0.7282412648200989
aF-0.5464834570884705
aF-0.4120897650718689
aF-0.3006802499294281
aF-0.22837719321250916
aF-0.1805528849363327
aF-0.1555022895336151
aF-0.14426051080226898
aF-0.14413432776927948
aF-0.14984647929668427
aF-0.16213971376419067
aF-0.16495056450366974
aF-0.17103901505470276
aF-0.173270583152771
aF-0.17088650166988373
aF-0.16317534446716309
aF-0.15290172398090363
aF-0.141306534409523
aF-0.12575900554656982
aF-0.10964947938919067
aF-0.09487388283014297
aF-0.08164304494857788
aF-0.06977050006389618
aF-0.06293345987796783
aF-0.05905265361070633
aF-0.0565590001642704
aF-0.05536362901329994
aF-0.053854409605264664
aF-0.0531613864004612
aF-0.04862431436777115
aF-0.04474973306059837
aF-0.039596520364284515
aF-0.03459583595395088
aF-0.0290116798132658
aF-0.023181527853012085
aF-0.01888713240623474
aF-0.014982190914452076
aF-0.012491932138800621
aF-0.012422457337379456
aF-0.01288708858191967
aF-0.016875119879841805
aF-0.015697764232754707
aF-0.01671617664396763
aF-0.01625291258096695
aF-0.014651879668235779
aF-0.013067352585494518
aF-0.010938625782728195
aF-0.008696227334439754
aF-0.00749238533899188
aF-0.005378568544983864
aF-0.0047500538639724255
aF-0.004017712082713842
aF-0.0033863976132124662
aF-0.0027411668561398983
aF-0.003108412493020296
aF-0.0011601039441302419
aF-0.0013336330885067582
aF-0.0018670097924768925
aF-0.0019178044749423862
aF-0.0027123477775603533
aF-0.0019374206895008683
aF-0.0031084390357136726
aF-0.0015806052833795547
aF-0.0014474575873464346
aF-0.002449065214022994
aF-0.002906093141064048
aF-0.0029437714256346226
aF-0.00361705687828362
aF-0.002752093132585287
aF-0.001945146475918591
aF-0.0023268533404916525
aF-0.0022209989838302135
aF-0.0022263098508119583
aF-0.0023446865379810333
aF-0.002975011942908168
aF-0.0030973306857049465
aF-0.003008747473359108
aF-0.003027172526344657
aF-0.0026364936493337154
aF-0.002298355335369706
aF-0.0018490852089598775
aF-0.0014047124423086643
aF-0.0009106138604693115
aF-0.001087669748812914
aF-0.0014492007903754711
aF-0.002121042227372527
aF-0.0012065209448337555
aF-0.0010798044968396425
aF-0.002501533832401037
aF-0.001718943938612938
aF-0.0004079878272023052
aF-7.369263767031953e-05
aF-0.0007255376549437642
aF-0.0026652105152606964
aF-0.003525288077071309
aF-0.0023288594093173742
aF-0.0030149631202220917
aF-0.0024730530567467213
aF-0.0020275842398405075
aF-0.0018089653458446264
aF-0.0024472300428897142
aF-0.001941776368767023
aF-0.0023790220730006695
aF-0.0022999574430286884
aF-0.0023168486077338457
aF-0.0020705738570541143
aF-0.00208675698377192
aF-0.0026943464763462543
aF-0.003215620294213295
aF-0.0033016230445355177
aF-0.0039470805786550045
aF-0.003601082833483815
aF-0.0041147274896502495
aF-0.0041739726439118385
aF-0.0036555032711476088
aF-0.004253804683685303
aF-0.004719671327620745
aF-0.0077039459720253944
aF-0.012006033211946487
aF-0.018040165305137634
aF-0.020630154758691788
aF-0.01786641590297222
aF-0.01761021837592125
aF-0.015062914229929447
aF-0.012244594283401966
aF-0.012745894491672516
aF-0.010024935007095337
aF-0.005910192150622606
aF-0.0022109728306531906
aF-0.00018414680380374193
aF-0.008573463186621666
aF-0.03219596669077873
aF-0.0746057853102684
aF-0.14716294407844543
aF-0.21840815246105194
aF-0.3345239460468292
aF-0.5511106848716736
aF-0.794622004032135
aF-1.080980896949768
aF-1.3847637176513672
aF-1.815664291381836
aF-2.362355947494507
aF-3.164391040802002
aF-3.938167095184326
aF-4.757436275482178
aF-6.299170017242432
aF-7.665883541107178
aF-9.411865234375
aF-10.125866889953613
aF-8.395424842834473
aF-6.797165870666504
aF-5.398459434509277
aF-4.2195353507995605
aF-3.2956597805023193
aF-2.4557180404663086
aF-1.7947593927383423
aF-1.2894095182418823
aF-0.9216185212135315
aF-0.6427901983261108
aF-0.4343653917312622
aF-0.2586403787136078
aF-0.18448512256145477
aF-0.155315101146698
aF-0.12838377058506012
aF-0.14468656480312347
aF-0.16984128952026367
aF-0.2096480131149292
aF-0.26938411593437195
aF-0.33717429637908936
aF-0.4039633870124817
aF-0.503101646900177
aF-0.5883938074111938
aF-0.7178517580032349
aF-0.8669230341911316
aF-1.030430555343628
aF-1.277241826057434
aF-1.5398533344268799
aF-1.8588894605636597
aF-2.302734851837158
aF-2.843233585357666
aF-3.4484426975250244
aF-4.218675136566162
aF-5.097409725189209
aF-6.582712650299072
aF-7.657545566558838
aF-9.47482681274414
aF-10.001094818115234
aF-8.349494934082031
aF-6.912662029266357
aF-5.577574729919434
aF-4.467419624328613
aF-3.4472196102142334
aF-2.6750247478485107
aF-2.0238966941833496
aF-1.488341212272644
aF-1.1020005941390991
aF-0.76786869764328
aF-0.565492570400238
aF-0.3815554678440094
aF-0.24484258890151978
aF-0.1462707668542862
aF-0.08917589485645294
aF-0.055377013981342316
aF-0.025773169472813606
aF-0.00746496208012104
aF-0.001967540942132473
aF-0.0016641925321891904
aF-0.0070724100805819035
aF-0.011077271774411201
aF-0.013137747533619404
aF-0.011212809942662716
aF-0.009371623396873474
aF-0.008015344850718975
aF-0.007826859131455421
aF-0.0069933440536260605
aF-0.004552702885121107
aF-0.003240712685510516
aF-0.0009025251492857933
aF-0.00026315951254218817
aF-0.0019915481097996235
aF-0.0013101206859573722
aF-0.0020558335818350315
aF-0.001532763591967523
aF-0.001209685462526977
aF-0.0010151185560971498
aF-0.0008496962254866958
aF-0.000507157004904002
aF-0.00046958462917245924
aF-0.00042802069219760597
aF-0.00023459963267669082
aF-0.0003465328481979668
aF-0.0013281952124089003
aF-0.0026728541124612093
aF-0.002823901129886508
aF-0.003490642411634326
aF-0.0020373882725834846
aF-0.001784278079867363
aF-0.002190605504438281
aF-0.002113383263349533
aF-0.003163938643410802
aF-0.0004194274079054594
aF-0.0005903798155486584
aF-0.0010061768116429448
aF-0.0009701430099084973
aF-0.002166162012144923
aF-0.002249745652079582
aF-0.001081779133528471
aF-0.0009873331291601062
aF-0.0011367626721039414
aF-0.0008052355260588229
aF-0.0019571385346353054
aF-0.011093305423855782
aF-0.025575388222932816
aF-0.053308140486478806
aF-0.09236901253461838
aF-0.14414288103580475
aF-0.24361972510814667
aF-0.3398127257823944
aF-0.5354987978935242
aF-0.7864764928817749
aF-1.1385266780853271
aF-1.6990015506744385
aF-2.3627166748046875
aF-3.4915764331817627
aF-4.695716857910156
aF-6.210975646972656
aF-8.29973316192627
aF-10.441954612731934
aF-8.99733829498291
aF-7.240329265594482
aF-5.526883602142334
aF-4.20973014831543
aF-2.9849462509155273
aF-2.1471006870269775
aF-1.5825520753860474
aF-1.1281912326812744
aF-0.7858209609985352
aF-0.5484712719917297
aF-0.37262609601020813
aF-0.25225839018821716
aF-0.1445445418357849
aF-0.09346158802509308
aF-0.05527812987565994
aF-0.04041373357176781
aF-0.03709225729107857
aF-0.030515575781464577
aF-0.030525559559464455
aF-0.028143296018242836
aF-0.0290366318076849
aF-0.02605709433555603
aF-0.024872899055480957
aF-0.02325493097305298
aF-0.02315261773765087
aF-0.02279273234307766
aF-0.023964671418070793
aF-0.024150529876351357
aF-0.02542985789477825
aF-0.029169078916311264
aF-0.02867826074361801
aF-0.02867993339896202
aF-0.02624824084341526
aF-0.023682309314608574
aF-0.020807726308703423
aF-0.01840093545615673
aF-0.0154890650883317
aF-0.01659311167895794
aF-0.018339695408940315
aF-0.022643983364105225
aF-0.024792678654193878
aF-0.029189901426434517
aF-0.029636608436703682
aF-0.0315941646695137
aF-0.028873199597001076
aF-0.026151353493332863
aF-0.022341322153806686
aF-0.019076630473136902
aF-0.017366653308272362
aF-0.016933584585785866
aF-0.017633864656090736
aF-0.01844082400202751
aF-0.01851728744804859
aF-0.01977868378162384
aF-0.02074175514280796
aF-0.020404938608407974
aF-0.0200495608150959
aF-0.02024935558438301
aF-0.019502775743603706
aF-0.018566200509667397
aF-0.019300442188978195
aF-0.01840413361787796
aF-0.018687967211008072
aF-0.017572907730937004
aF-0.016802746802568436
aF-0.01701689139008522
aF-0.016434313729405403
aF-0.016019953414797783
aF-0.016418300569057465
aF-0.015115627087652683
aF-0.01612413115799427
aF-0.029019562527537346
aF-0.056122664362192154
aF-0.10360439121723175
aF-0.17000268399715424
aF-0.27629393339157104
aF-0.4473560154438019
aF-0.6693044304847717
aF-0.9552896022796631
aF-1.4112313985824585
aF-2.0764029026031494
aF-2.791501760482788
aF-3.95713472366333
aF-5.46376895904541
aF-7.206480026245117
aF-9.318288803100586
aF-9.83511734008789
aF-7.526773452758789
aF-5.634420871734619
aF-4.065049648284912
aF-2.991889238357544
aF-2.143767833709717
aF-1.4521015882492065
aF-1.0420717000961304
aF-0.9229235649108887
aF-0.9090438485145569
aF-0.872290849685669
aF-1.1544349193572998
aF-1.9018433094024658
aF-2.760486602783203
aF-3.539144992828369
aF-4.823232650756836
aF-6.331798076629639
aF-7.857272148132324
aF-10.268875122070312
aF-9.193889617919922
aF-7.1317973136901855
aF-5.5939412117004395
aF-4.175674915313721
aF-3.2449090480804443
aF-2.3672068119049072
aF-1.8066474199295044
aF-1.320428490638733
aF-0.952964186668396
aF-0.6920183300971985
aF-0.46943333745002747
aF-0.3036516308784485
aF-0.20545263588428497
aF-0.11974812299013138
aF-0.07037930935621262
aF-0.03955628350377083
aF-0.018955273553729057
aF-0.009081880562007427
aF-0.000577417085878551
aF-0.001152476528659463
aF-0.005265859421342611
aF-0.004158273804932833
aF-0.0037065534852445126
aF-0.0023141889832913876
aF-0.0026674862019717693
aF-0.002621470484882593
aF-0.003420588793233037
aF-0.004892833065241575
aF-0.0069173662923276424
aF-0.0064249527640640736
aF-0.004338247235864401
aF-0.0033050214406102896
aF-0.0034331711940467358
aF-0.004149151965975761
aF-0.0043466235511004925
aF-0.004209068138152361
aF-0.002145021455362439
aF-0.0016459878534078598
aF-0.0010685821762308478
aF-0.0019341388251632452
aF-0.0007863272330723703
aF-0.0005566327017731965
aF-0.00027153585688211024
aF-0.0003107611264567822
aF-0.000384120037779212
aF-0.0003175358287990093
aF-0.0007298450218513608
aF-0.0015183991054072976
aF-0.0009821178391575813
aF-0.0007875619921833277
aF-0.0006645044777542353
aF-0.0008559330017305911
aF-0.000867385184392333
aF-0.000695038354024291
aF-0.0002730577252805233
aF-0.00039996032137423754
aF-0.0002492310886736959
aF-0.00030204924405552447
aF-0.0007182189729064703
aF-0.0002023059205384925
aF-0.0002967165200971067
aF-0.0014811857836320996
aF-0.0016552895540371537
aF-0.0030528935603797436
aF-0.003066111821681261
aF-0.002412067260593176
aF-0.0017893912736326456
aF-0.002235214691609144
aF-0.0030888114124536514
aF-0.004303092136979103
aF-0.003347388468682766
aF-0.0008044695132412016
aF-0.0005826192209497094
aF-0.0021930260118097067
aF-0.0026126799639314413
aF-0.003962438087910414
aF-0.0033379376400262117
aF-0.0017442770767956972
aF-0.0019494005246087909
aF-0.0014476337237283587
aF-0.0024945863988250494
aF-0.004251466132700443
aF-0.005511617287993431
aF-0.0034395556431263685
aF-0.0027779911179095507
aF-0.0020420739892870188
aF-0.001954799983650446
aF-0.002325247274711728
aF-0.001727964961901307
aF-0.0025865177158266306
aF-0.0008551828213967383
aF-0.00018278640345670283
aF-0.00021879879932384938
aF-0.0008188268984667957
aF-0.00014789508713874966
aF-9.94392394204624e-06
aF-0.0006106727523729205
aF-0.0012746935244649649
aF-0.001067705568857491
aF-0.0007617849623784423
aF-0.0009951689280569553
aF-0.0007235704688355327
aF-0.0009448423516005278
aF-0.0003448717761784792
aF-0.000482946983538568
aF-0.00019846897339448333
aF-0.0005237166187725961
aF-0.0004578841326292604
aF-0.001824063598178327
aF-0.0024434777442365885
aF-0.004637112375348806
aF-0.004602782893925905
aF-0.005024757236242294
aF-0.00491549726575613
aF-0.004443474113941193
aF-0.004039335064589977
aF-0.003774606855586171
aF-0.0036917454563081264
aF-0.0038058224599808455
aF-0.00422325637191534
aF-0.0036616616416722536
aF-0.0035949009470641613
aF-0.0030119046568870544
aF-0.002620647894218564
aF-0.002321240957826376
aF-0.002032088115811348
aF-0.001670579076744616
aF-0.0016380985034629703
aF-0.001470981165766716
aF-0.0023506327997893095
aF-0.0019345800392329693
aF-0.0023258747532963753
aF-0.0026520956307649612
aF-0.003979839850217104
aF-0.006056786514818668
aF-0.005798733327537775
aF-0.007263830862939358
aF-0.006425190716981888
aF-0.005854742135852575
aF-0.005140787456184626
aF-0.004452863708138466
aF-0.003342938143759966
aF-0.002297021681442857
aF-0.002252740552648902
aF-0.0019408019725233316
aF-0.0020479895174503326
aF-0.0019474464934319258
aF-0.0017611036309972405
aF-0.0017827708506956697
aF-0.0016696598613634706
aF-0.0019456713926047087
aF-0.0017567022005096078
aF-0.0016736974939703941
aF-0.0017174002714455128
aF-0.0015172885032370687
aF-0.0015331283211708069
aF-0.0021080311853438616
aF-0.0019837149884551764
aF-0.0017208886565640569
aF-0.0015476210974156857
aF-0.0016650431789457798
aF-0.001064856769517064
aF-0.0006311991019174457
aF-0.00024716363986954093
aF-0.0003317248774692416
aF-0.00102526368573308
aF-0.0010067051043733954
aF-0.001431634766049683
aF-0.0018682240042835474
aF-0.0014219259610399604
aF-0.0014291502302512527
aF-0.0012850039638578892
aF-0.0012554649729281664
aF-0.001511886715888977
aF-0.0019098317716270685
aF-0.0018103952752426267
aF-0.0020435515325516462
aF-0.001981326611712575
aF-0.0017844196408987045
aF-0.00171379663515836
aF-0.0016681934939697385
aF-0.0017060404643416405
aF-0.0019404563354328275
aF-0.0022762108128517866
aF-0.00296508870087564
aF-0.0028041803743690252
aF-0.002299016807228327
aF-0.0020118807442486286
aF-0.001802240964025259
aF-0.0013419073075056076
aF-0.000340454513207078
aF-0.00038876381586305797
aF-0.0004829281533602625
aF-0.00162581040058285
aF-0.0026263296604156494
aF-0.0021723913960158825
aF-0.002338285790756345
aF-0.0017589760245755315
aF-0.0015642957296222448
aF-0.0016779375728219748
aF-0.0007789888768456876
aF-0.0005655723507516086
aF-0.00022312899818643928
aF-0.0003127724339719862
aF-0.0012893500970676541
aF-0.0003561404882930219
aF-0.00035530986497178674
aF-0.0005229262751527131
aF-0.0004394050338305533
aF-0.0005912439664825797
aF-0.00010797501454362646
aF-0.001056305831298232
aF-0.0001327752397628501
aF-8.884636918082833e-05
aF-0.00048363112728111446
aF-0.0008582653244957328
aF-0.0005205048364587128
aF-0.0009813958313316107
aF-0.000997359398752451
aF-0.0009271540329791605
aF-0.0011043326230719686
aF-0.0022224802523851395
aF-0.0011519419495016336
aF-0.0009912108071148396
aF-0.000996195012703538
aF-0.0008129609050229192
aF-0.0007293459493666887
aF-0.0003067407524213195
aF-0.0003245849220547825
aF-0.00038454800960607827
aF-7.790813833707944e-05
aF-0.00018345114949624985
aF-0.0010618155356496572
aF-0.0016418136656284332
aF-0.0014163346495479345
aF-0.0022426065988838673
aF-0.001428597723133862
aF-0.0013489880366250873
aF-0.0014015954220667481
aF-0.001031495863571763
aF-0.0009766853181645274
aF-0.001383582828566432
aF-0.0020350406412035227
aF-0.0023255357518792152
aF-0.003729879390448332
aF-0.0029481833335012197
aF-0.003288750071078539
aF-0.003139927051961422
aF-0.002633310155943036
aF-0.002575008198618889
aF-0.0025628835428506136
aF-0.0033086540643125772
aF-0.0032903621904551983
aF-0.004459937568753958
aF-0.005690134130418301
aF-0.007016959600150585
aF-0.007052149157971144
aF-0.007415013387799263
aF-0.0062964195385575294
aF-0.005526439752429724
aF-0.005261261481791735
aF-0.002506137592718005
aF-0.0014444702537730336
aF-0.0020633433014154434
aF-0.0038307381328195333
aF-0.003994163125753403
aF-0.0035690132062882185
aF-0.0028925868682563305
aF-0.002298923907801509
aF-0.002482745563611388
aF-0.002334238262847066
aF-0.0007629549945704639
aF-0.0005868871230632067
aF-0.0005357125191949308
aF-0.0016090587014332414
aF-0.0034902486950159073
aF-0.0037221647799015045
aF-0.0034404094330966473
aF-0.0020757096353918314
aF-0.0025128612760454416
aF-0.003879118710756302
aF-0.00425842497497797
aF-0.004588965326547623
aF-0.0017096693627536297
aF-0.0007358758593909442
aF-0.0010865558870136738
aF-0.002752086613327265
aF-0.004786934237927198
aF-0.003234191332012415
aF-0.003727115225046873
aF-0.0023233010433614254
aF-0.0019357200944796205
aF-0.0021409306209534407
aF-0.0026951900217682123
aF-0.002107520354911685
aF-0.0021946313790977
aF-0.0009157225140370429
aF-0.00048210282693617046
aF-0.000507041288074106
aF-0.003080529160797596
aF-0.0036032714415341616
aF-0.004904826171696186
aF-0.003108498640358448
aF-0.002315237419679761
aF-0.002050862880423665
aF-0.0018056586850434542
aF-0.0011212403187528253
aF-0.0011419715592637658
aF-0.0004702758160419762
aF-0.0004231805505696684
aF-0.0003373695071786642
aF-0.0005028752493672073
aF-0.0004139192751608789
aF-0.00024951103841885924
aF-0.0010998700745403767
aF-0.003292912384495139
aF-0.003896907204762101
aF-0.0029940842650830746
aF-0.003571659792214632
aF-0.002771603874862194
aF-0.0024096895940601826
aF-0.0020395778119564056
aF-0.0012076315470039845
aF-0.00036384104168973863
aF-0.0004476034373510629
aF-0.0008194235851988196
aF-0.0014586631441488862
aF-0.0011236389400437474
aF-0.0013664932921528816
aF-0.001311195781454444
aF-0.0011497857049107552
aF-0.0007753907120786607
aF-0.0010288662742823362
aF-0.0011246223002672195
aF-0.0004093097522854805
aF-1.0539076356508303e-05
aF-0.00010875669249799103
aF-0.00131261779461056
aF-0.0012013211380690336
aF-0.001003142213448882
aF-0.0016349913785234094
aF-0.0009877264965325594
aF-0.001171018579043448
aF-0.0010522289667278528
aF-0.00103491242043674
aF-0.000993926078081131
aF-0.0010057119652628899
aF-0.0004806281067430973
aF-0.0005651320097967982
aF-0.0009344629943370819
aF-0.0011660353047773242
aF-0.0006321363034658134
aF-0.000640364654827863
aF-0.0022946717217564583
aF-0.0013493342557922006
aF-0.001668039825744927
aF-5.519362457562238e-05
aF-0.00108287762850523
aF-0.0021654998417943716
aF-0.004599692299962044
aF-0.002492560539394617
aF-0.0036430449690669775
aF-0.0020774458535015583
aF-0.0018294090405106544
aF-0.0019288400653749704
aF-0.0010446473024785519
aF-0.0007179512758739293
aF-0.00046408578054979444
aF-0.0013236100785434246
aF-0.0022424485068768263
aF-0.0012039465364068747
aF-0.0010027855169028044
aF-0.0009177033789455891
aF-0.0011300371261313558
aF-0.000459859031252563
aF-0.0008566486067138612
aF-0.0010382926557213068
aF-0.0021910974755883217
aF-0.001651016529649496
aF-0.001429797150194645
aF-0.0012941843597218394
aF-0.0014272675616666675
aF-0.0009973895503208041
aF-0.0006083445623517036
aF-0.000660669757053256
aF-0.000495239335577935
aF-0.0001430525881005451
aF-4.631922274711542e-05
aF-5.007772779208608e-05
aF-0.0010914262384176254
aF-0.00024882235447876155
aF-0.00037282382254488766
aF-0.00017950891924556345
aF-0.00037589482963085175
aF-0.0010795197449624538
aF-0.0023845904506742954
aF-0.0018648303812369704
aF-0.0008095739176496863
aF-0.0007618481758981943
aF-0.0015799652319401503
aF-0.006124323699623346
aF-0.0033317336346954107
aF-0.003522178390994668
aF-0.002106532221660018
aF-0.0018005650490522385
aF-0.0015159359900280833
aF-0.0009994222782552242
aF-0.0008429793524555862
aF-0.0007360515301115811
aF-0.0007729310309514403
aF-0.0013678629184141755
aF-0.001396992476657033
aF-0.002555271377786994
aF-0.002502166200429201
aF-0.0023461536038666964
aF-0.0026889401488006115
aF-0.0017189942300319672
aF-0.0012459022691473365
aF-0.0007995076011866331
aF-0.002664583967998624
aF-0.00376706849783659
aF-0.004657828249037266
aF-0.003564087674021721
aF-0.003000004682689905
aF-0.0032095774076879025
aF-0.0034853112883865833
aF-0.0012326391879469156
aF-0.0005137816770002246
aF-0.0002081296406686306
aF-0.0006155475275591016
aF-0.0027607795782387257
aF-0.003864587051793933
aF-0.0051664807833731174
aF-0.005584545899182558
aF-0.004985124338418245
aF-0.0041764723137021065
aF-0.003676282474771142
aF-0.004300402943044901
aF-0.0025424615014344454
aF-0.0012800986878573895
aF-0.0005181261221878231
aF-0.0021773537155240774
aF-0.005845027044415474
aF-0.008690343238413334
aF-0.012338482774794102
aF-0.012093881145119667
aF-0.008884239941835403
aF-0.008133956231176853
aF-0.009052058681845665
aF-0.006136894691735506
aF-0.003031791653484106
aF-0.0016109771095216274
aF-0.000987368868663907
aF-0.0019472760614007711
aF-0.001969305332750082
aF-0.0020844475366175175
aF-0.0019426217768341303
aF-0.0020191343501210213
aF-0.0022440655156970024
aF-0.002029734430834651
aF-0.001723624998703599
aF-0.0015184320509433746
aF-0.001474452787078917
aF-0.0017404664540663362
aF-0.0005142033332958817
aF-0.000677881354931742
aF-0.001057373476214707
aF-0.0019571837037801743
aF-0.0037394706159830093
aF-0.00835509691387415
aF-0.011897536925971508
aF-0.013206031173467636
aF-0.01129590068012476
aF-0.010754602029919624
aF-0.009856793098151684
aF-0.008192844688892365
aF-0.006047579925507307
aF-0.005458751693367958
aF-0.006684943102300167
aF-0.00713064381852746
aF-0.009464933536946774
aF-0.007765291724354029
aF-0.007405830547213554
aF-0.006612494587898254
aF-0.0056222230195999146
aF-0.0049272519536316395
aF-0.003979326691478491
aF-0.0032196587417274714
aF-0.0034128723200410604
aF-0.00418736832216382
aF-0.005458700004965067
aF-0.005883428268134594
aF-0.00584018649533391
aF-0.005195158533751965
aF-0.004845410119742155
aF-0.0039322213269770145
aF-0.0033429472241550684
aF-0.0031359849963337183
aF-0.0026293627452105284
aF-0.0023120243567973375
aF-0.002781357616186142
aF-0.003275689436122775
aF-0.003925677854567766
aF-0.0044761537574231625
aF-0.004025875590741634
aF-0.003954312764108181
aF-0.00394805520772934
aF-0.003670718055218458
aF-0.003585112513974309
aF-0.0036386456340551376
aF-0.00487437192350626
aF-0.005781199783086777
aF-0.007508493028581142
aF-0.009017447009682655
aF-0.008524280041456223
aF-0.009958621114492416
aF-0.01003935094922781
aF-0.009603750891983509
aF-0.010370227508246899
aF-0.009005512110888958
aF-0.008667875081300735
aF-0.007570596877485514
aF-0.00688635790720582
aF-0.0056715733371675014
aF-0.004878140054643154
aF-0.006213705986738205
aF-0.006811679340898991
aF-0.008844452910125256
aF-0.009673054330050945
aF-0.009167573414742947
aF-0.009903804399073124
aF-0.008457417599856853
aF-0.007558116689324379
aF-0.00650180596858263
aF-0.005599759519100189
aF-0.004104851745069027
aF-0.002966922475025058
aF-0.004056455101817846
aF-0.005711914040148258
aF-0.008182714693248272
aF-0.007806369569152594
aF-0.006712732836604118
aF-0.0060625928454101086
aF-0.005514886695891619
aF-0.0036952821537852287
aF-0.0026211088988929987
aF-0.002025575377047062
aF-0.0019350042566657066
aF-0.0021895403042435646
aF-0.002514953725039959
aF-0.003033591201528907
aF-0.004180543124675751
aF-0.004311671946197748
aF-0.004724540747702122
aF-0.004098962061107159
aF-0.0038666820619255304
aF-0.0035696409177035093
aF-0.003396509913727641
aF-0.0038723258767277002
aF-0.0037777747493237257
aF-0.005941600538790226
aF-10.871713638305664
aF-9.870076179504395
aF-9.849947929382324
aF-9.791604995727539
aF-9.732802391052246
aF-9.712396621704102
aF-9.692826271057129
aF-9.673274040222168
aF-9.653739929199219
aF-9.655126571655273
aF-9.653969764709473
aF-9.674666404724121
aF-9.753168106079102
aF-9.874104499816895
aF-9.68553352355957
aF-9.472339630126953
aF-9.2269287109375
aF-8.918301582336426
aF-8.571733474731445
aF-8.199020385742188
aF-7.772769927978516
aF-7.367120265960693
aF-6.9457173347473145
aF-6.513567924499512
aF-6.133359909057617
aF-5.781620025634766
aF-5.463171482086182
aF-5.181396007537842
aF-4.946519374847412
aF-4.75904655456543
aF-4.628887176513672
aF-4.556239604949951
aF-4.527827739715576
aF-4.53698205947876
aF-4.592031955718994
aF-4.719881057739258
aF-4.956505298614502
aF-5.326125621795654
aF-5.880697250366211
aF-6.517707347869873
aF-7.373466491699219
aF-8.338919639587402
aF-9.314383506774902
aF-9.882026672363281
aF-8.799778938293457
aF-7.748488903045654
aF-6.743021488189697
aF-5.8194403648376465
aF-5.034532070159912
aF-4.287748336791992
aF-3.6514453887939453
aF-3.1091673374176025
aF-2.689943313598633
aF-2.342421770095825
aF-2.0686609745025635
aF-1.8697292804718018
aF-1.7316935062408447
aF-1.638150930404663
aF-1.5922271013259888
aF-1.5899360179901123
aF-1.6421501636505127
aF-1.7394198179244995
aF-1.8977649211883545
aF-2.0959722995758057
aF-2.343662977218628
aF-2.6901752948760986
aF-3.0748980045318604
aF-3.595475196838379
aF-4.33514928817749
aF-5.179255962371826
aF-6.16226053237915
aF-7.706657409667969
aF-8.983023643493652
aF-10.343695640563965
aF-8.806761741638184
aF-7.410645484924316
aF-6.123480796813965
aF-4.904051780700684
aF-4.0165205001831055
aF-3.12408709526062
aF-2.4400017261505127
aF-1.9079959392547607
aF-1.4448442459106445
aF-1.0979946851730347
aF-0.7994424700737
aF-0.6118690371513367
aF-0.43039292097091675
aF-0.2980981767177582
aF-0.21178056299686432
aF-0.13973866403102875
aF-0.09262023121118546
aF-0.06449641287326813
aF-0.053778164088726044
aF-0.05763063579797745
aF-0.06614186614751816
aF-0.07883206754922867
aF-0.08295515924692154
aF-0.09382638335227966
aF-0.09690964221954346
aF-0.10076234489679337
aF-0.1021803542971611
aF-0.10455422848463058
aF-0.10468485206365585
aF-0.10366269201040268
aF-0.0991261899471283
aF-0.09786932915449142
aF-0.09406469017267227
aF-0.08890263736248016
aF-0.08704737573862076
aF-0.08090659976005554
aF-0.07717348635196686
aF-0.07200904935598373
aF-0.06868452578783035
aF-0.06604432314634323
aF-0.06387146562337875
aF-0.06570208072662354
aF-0.06602286547422409
aF-0.06386698782444
aF-0.061012279242277145
aF-0.056828781962394714
aF-0.05150599777698517
aF-0.046628437936306
aF-0.04360644891858101
aF-0.04013492166996002
aF-0.037350915372371674
aF-0.036549970507621765
aF-0.033871036022901535
aF-0.0317634753882885
aF-0.029562538489699364
aF-0.028311870992183685
aF-0.026041453704237938
aF-0.024266093969345093
aF-0.02435236983001232
aF-0.02221274934709072
aF-0.02195272408425808
aF-0.02106815204024315
aF-0.020266080275177956
aF-0.01932063139975071
aF-0.02081305719912052
aF-0.01961817592382431
aF-0.01979636773467064
aF-0.01942225731909275
aF-0.017012767493724823
aF-0.01509165856987238
aF-0.013530110009014606
aF-0.009925278834998608
aF-0.007487509865313768
aF-0.006267247721552849
aF-0.008079838007688522
aF-0.008961960673332214
aF-0.01312144473195076
aF-0.013784022070467472
aF-0.016692621633410454
aF-0.014723754487931728
aF-0.01425174344331026
aF-0.013291348703205585
aF-0.011567584238946438
aF-0.009698411449790001
aF-0.008135736919939518
aF-0.008170281536877155
aF-0.007875625044107437
aF-0.008983268402516842
aF-0.008435049094259739
aF-0.007832883857190609
aF-0.00777625385671854
aF-0.008149310015141964
aF-0.008857299573719501
aF-0.008982566185295582
aF-0.008458564057946205
aF-0.008015709929168224
aF-0.007983042858541012
aF-0.007927892729640007
aF-0.00882970541715622
aF-0.007943880744278431
aF-0.0072860633954405785
aF-0.006531177554279566
aF-0.005902466829866171
aF-0.004353873897343874
aF-0.0038868875708431005
aF-0.003396756947040558
aF-0.0030818611849099398
aF-0.0026663325261324644
aF-0.002404229948297143
aF-0.0020957905799150467
aF-0.0017517198575660586
aF-0.00261604692786932
aF-0.014519940130412579
aF-0.04491330310702324
aF-0.09102261811494827
aF-0.15001280605793
aF-0.24333326518535614
aF-0.38663503527641296
aF-0.5664780139923096
aF-0.7029597163200378
aF-1.003065586090088
aF-1.1840229034423828
aF-1.738297700881958
aF-2.072133779525757
aF-2.6577963829040527
aF-3.300971031188965
aF-4.151911735534668
aF-5.088674068450928
aF-6.400792121887207
aF-7.7235589027404785
aF-9.2998685836792
aF-10.10328483581543
aF-8.343038558959961
aF-6.7722063064575195
aF-5.477396011352539
aF-4.30648946762085
aF-3.3386504650115967
aF-2.515514373779297
aF-1.8943135738372803
aF-1.4079087972640991
aF-0.993195116519928
aF-0.7163264751434326
aF-0.4871189594268799
aF-0.2956753969192505
aF-0.21449576318264008
aF-0.13462957739830017
aF-0.08527129143476486
aF-0.047349490225315094
aF-0.031900376081466675
aF-0.025452859699726105
aF-0.018791496753692627
aF-0.01409964170306921
aF-0.013210859149694443
aF-0.011825365014374256
aF-0.009109146893024445
aF-0.0070378463715314865
aF-0.004364770837128162
aF-0.00274280714802444
aF-0.002220757771283388
aF-0.003728838637471199
aF-0.0050427853129804134
aF-0.009587530978024006
aF-0.007428369019180536
aF-0.008135941810905933
aF-0.007115003652870655
aF-0.006312535144388676
aF-0.004778329282999039
aF-0.0045649087987840176
aF-0.004461192525923252
aF-0.006553315557539463
aF-0.006863974966108799
aF-0.007691061589866877
aF-0.007155907806009054
aF-0.006268019787967205
aF-0.005611580330878496
aF-0.006218280643224716
aF-0.0029587375465780497
aF-0.0019442158518359065
aF-0.001959726447239518
aF-0.004224955104291439
aF-0.007399674039334059
aF-0.009503152221441269
aF-0.00781331304460764
aF-0.0073269023559987545
aF-0.0066487775184214115
aF-0.005398696754127741
aF-0.003722733585163951
aF-0.00384170887991786
aF-0.0016169686568900943
aF-0.001210295595228672
aF-0.00033748423447832465
aF-0.00024760785163380206
aF-0.0003730497555807233
aF-0.0002405306586297229
aF-0.00020823421073146164
aF-0.00033863019780255854
aF-0.0009156314772553742
aF-0.0016722350846976042
aF-0.0015996464062482119
aF-0.0017686419887468219
aF-0.001284904545173049
aF-0.0012963576009497046
aF-0.001211510389111936
aF-0.0008171878871507943
aF-0.0006437507108785212
aF-0.0010377223370596766
aF-0.001771965529769659
aF-0.002750468673184514
aF-0.0030996466521173716
aF-0.0031052203848958015
aF-0.0035359179601073265
aF-0.005536678712815046
aF-0.0038252442609518766
aF-0.0032936125062406063
aF-0.004900879692286253
aF-0.003968460019677877
aF-0.002093516057357192
aF-0.00034833536483347416
aF-0.002434944035485387
aF-0.002740285126492381
aF-0.003947506658732891
aF-0.003962032962590456
aF-0.002317280974239111
aF-0.0023144162259995937
aF-0.0023371113929897547
aF-0.0045607187785208225
aF-0.0040820287540555
aF-0.0010188405867666006
aF-0.00063649273943156
aF-0.015934884548187256
aF-0.05713924393057823
aF-0.108086958527565
aF-0.17039890587329865
aF-0.2690548002719879
aF-0.41741693019866943
aF-0.6599321961402893
aF-0.9866520166397095
aF-1.4447530508041382
aF-2.055513620376587
aF-3.024162530899048
aF-3.9763293266296387
aF-5.712540149688721
aF-7.300754547119141
aF-9.629465103149414
aF-9.594109535217285
aF-7.414923191070557
aF-5.647947311401367
aF-4.29865026473999
aF-3.1999661922454834
aF-2.367201089859009
aF-1.5346521139144897
aF-1.1110793352127075
aF-0.7080874443054199
aF-0.6163505911827087
aF-0.32750988006591797
aF-0.3543429374694824
aF-0.2951650321483612
aF-0.41696932911872864
aF-0.5133337378501892
aF-0.7033364772796631
aF-0.9845227599143982
aF-1.3397961854934692
aF-1.7790013551712036
aF-2.2930498123168945
aF-2.98203706741333
aF-3.835906982421875
aF-4.903985023498535
aF-6.087263107299805
aF-7.714768409729004
aF-9.518377304077148
aF-10.09963607788086
aF-8.44952392578125
aF-6.7993245124816895
aF-5.394708156585693
aF-4.266155242919922
aF-3.0168747901916504
aF-2.417468309402466
aF-1.6851813793182373
aF-1.2560133934020996
aF-0.8856631517410278
aF-0.5816376805305481
aF-0.40903913974761963
aF-0.25277572870254517
aF-0.20390982925891876
aF-0.14099366962909698
aF-0.19269253313541412
aF-0.24271517992019653
aF-0.30846548080444336
aF-0.3979174792766571
aF-0.5115743279457092
aF-0.6511698961257935
aF-0.8331481218338013
aF-1.0638887882232666
aF-1.32997465133667
aF-1.6572062969207764
aF-2.063014030456543
aF-2.5893166065216064
aF-3.1734845638275146
aF-3.9489643573760986
aF-4.775266170501709
aF-5.712082862854004
aF-7.402841091156006
aF-8.893752098083496
aF-10.58617115020752
aF-8.89213752746582
aF-7.357604503631592
aF-6.015609264373779
aF-4.740519046783447
aF-3.7932658195495605
aF-2.8513357639312744
aF-2.293076276779175
aF-1.6802008152008057
aF-1.2208716869354248
aF-0.8963891267776489
aF-0.6365166902542114
aF-0.4304632246494293
aF-0.2771594524383545
aF-0.18356873095035553
aF-0.12569749355316162
aF-0.057608649134635925
aF-0.03946301341056824
aF-0.014648932963609695
aF-0.0043095736764371395
aF-0.0010790325468406081
aF-0.003001816337928176
aF-0.00767486309632659
aF-0.012896415777504444
aF-0.015185043215751648
aF-0.013525805436074734
aF-0.013369124382734299
aF-0.012406090274453163
aF-0.01095289271324873
aF-0.009465161710977554
aF-0.007029356434941292
aF-0.004777546506375074
aF-0.0043084933422505856
aF-0.0034774693194776773
aF-0.0033434454817324877
aF-0.0030583085026592016
aF-0.002583572641015053
aF-0.0020483213011175394
aF-0.0016700916457921267
aF-0.0013413247652351856
aF-0.0015653895679861307
aF-0.001127319992519915
aF-0.000890248513314873
aF-0.0008796770707704127
aF-0.0006392764626070857
aF-0.0007695500971749425
aF-0.0003727141593117267
aF-0.00010567373828962445
aF-0.00025701455888338387
aF-0.0001847192907007411
aF-4.405789513839409e-05
aF-0.00010186099098064005
aF-0.00029818128678016365
aF-0.0012514623813331127
aF-0.0010115801123902202
aF-0.0008572896476835012
aF-0.0007333780522458255
aF-0.0006727055297233164
aF-0.0006432238151319325
aF-0.0009979193564504385
aF-0.0004705738101620227
aF-0.0012593050487339497
aF-0.0002117153344443068
aF-0.000175685272552073
aF-0.00041152030462399125
aF-0.0012604439398273826
aF-0.0005357136251404881
aF-0.0017725791549310088
aF-0.0007341617019847035
aF-0.0009712876635603607
aF-0.0008374264580197632
aF-0.0006225703400559723
aF-0.0004464670782908797
aF-0.00044582143891602755
aF-0.0003937792789656669
aF-0.0011391298612579703
aF-0.0008938325918279588
aF-0.0017746014054864645
aF-0.0015149753307923675
aF-0.0018227712716907263
aF-0.0016683468129485846
aF-0.0017279587918892503
aF-0.0016725469613447785
aF-0.0025287922471761703
aF-0.001863347482867539
aF-0.002276483690366149
aF-0.00288913631811738
aF-0.004897464998066425
aF-0.004809389356523752
aF-0.006245696451514959
aF-0.00597298564389348
aF-0.0059393662959337234
aF-0.005747209303081036
aF-0.0051409523002803326
aF-0.0044956328347325325
aF-0.0038250184152275324
aF-0.00295648374594748
aF-0.00303929322399199
aF-0.0023302005138248205
aF-0.001994786784052849
aF-0.0022596828639507294
aF-0.014124267734587193
aF-0.03940141946077347
aF-0.08761322498321533
aF-0.15247191488742828
aF-0.2493325024843216
aF-0.3872503638267517
aF-0.5896434783935547
aF-0.8393867015838623
aF-1.3252087831497192
aF-1.8042964935302734
aF-2.5251829624176025
aF-3.8668253421783447
aF-4.789327621459961
aF-6.640824317932129
aF-8.643416404724121
aF-10.539192199707031
aF-8.000371932983398
aF-6.119752407073975
aF-4.243570804595947
aF-3.0907208919525146
aF-2.2376554012298584
aF-1.4922040700912476
aF-0.9878643155097961
aF-0.8143571615219116
aF-0.7550932765007019
aF-0.7512046098709106
aF-0.8572848439216614
aF-1.5187309980392456
aF-1.9405136108398438
aF-2.8290438652038574
aF-3.6227424144744873
aF-5.117931365966797
aF-6.581291198730469
aF-8.384902954101562
aF-10.34560489654541
aF-9.21187973022461
aF-7.35145378112793
aF-5.769275665283203
aF-4.438070774078369
aF-3.4207284450531006
aF-2.5568418502807617
aF-1.9597482681274414
aF-1.4062106609344482
aF-1.0461795330047607
aF-0.72206050157547
aF-0.47812527418136597
aF-0.3269782066345215
aF-0.20478495955467224
aF-0.12389551103115082
aF-0.07775690406560898
aF-0.05954011157155037
aF-0.03310255706310272
aF-0.03690410777926445
aF-0.0293791014701128
aF-0.03204956650733948
aF-0.033978067338466644
aF-0.03380248323082924
aF-0.030627472326159477
aF-0.027505727484822273
aF-0.02423330582678318
aF-0.020018206909298897
aF-0.015942979604005814
aF-0.014342324808239937
aF-0.015425427816808224
aF-0.019718006253242493
aF-0.02129955403506756
aF-0.026718903332948685
aF-0.025388458743691444
aF-0.026500385254621506
aF-0.024987922981381416
aF-0.023862645030021667
aF-0.02128470502793789
aF-0.019779786467552185
aF-0.01743742823600769
aF-0.015593087300658226
aF-0.014303334057331085
aF-0.013554325327277184
aF-0.012944774702191353
aF-0.013753830455243587
aF-0.01282346062362194
aF-0.013708150014281273
aF-0.013520672917366028
aF-0.013309084810316563
aF-0.014815056696534157
aF-0.01562626101076603
aF-0.016737740486860275
aF-0.014699146151542664
aF-0.012912312522530556
aF-0.011200335808098316
aF-0.009176713414490223
aF-0.0065463813953101635
aF-0.003500503720715642
aF-0.0019432243425399065
aF-0.0016620825044810772
aF-0.0017979081021621823
aF-0.00274913152679801
aF-0.0033532720990478992
aF-0.003619251074269414
aF-0.004422544501721859
aF-0.0035788696259260178
aF-0.003815707052126527
aF-0.0034396022092550993
aF-0.002489964012056589
aF-0.002013213699683547
aF-0.0011620091972872615
aF-0.000937086355406791
aF-0.000841017288621515
aF-0.00037417683051899076
aF-0.00017961727280635387
aF-0.0007310997461900115
aF-0.0008477317751385272
aF-0.0013555375626310706
aF-0.0015810836339369416
aF-0.002152912551537156
aF-0.0016881217015907168
aF-0.0021804384887218475
aF-0.002005168469622731
aF-0.0025146796833723783
aF-0.002274035243317485
aF-0.002269851742312312
aF-0.0027283953968435526
aF-0.0026181458961218596
aF-0.002974035916849971
aF-0.002856004983186722
aF-0.0031133510638028383
aF-0.002929538954049349
aF-0.0036253302823752165
aF-0.0032505018170922995
aF-0.002987855114042759
aF-0.0026194665115326643
aF-0.0030251226853579283
aF-0.00202523753978312
aF-0.002311409218236804
aF-0.002249556127935648
aF-0.001881253207102418
aF-0.0021222790237516165
aF-0.002661739243194461
aF-0.0040659354999661446
aF-0.004907646682113409
aF-0.004504299256950617
aF-0.005643243435770273
aF-0.005838398821651936
aF-0.004886073991656303
aF-0.0047906748950481415
aF-0.004849256947636604
aF-0.004451835062354803
aF-0.00459229527041316
aF-0.004403674043715
aF-0.0041054002940654755
aF-0.004516651853919029
aF-0.00580967403948307
aF-0.006788474973291159
aF-0.007382651325315237
aF-0.0068486714735627174
aF-0.0062883286736905575
aF-0.005599640775471926
aF-0.005164756905287504
aF-0.0035723084583878517
aF-0.0029628360643982887
aF-0.003545290557667613
aF-0.00437939865514636
aF-0.005824021529406309
aF-0.005507412366569042
aF-0.006801396142691374
aF-0.006261656526476145
aF-0.005140041932463646
aF-0.004385992418974638
aF-0.004583677276968956
aF-0.00289728376083076
aF-0.0017973718931898475
aF-0.0007372776162810624
aF-0.0014840599615126848
aF-0.004118091892451048
aF-0.003923770971596241
aF-0.005291377194225788
aF-0.00472380593419075
aF-0.004353422671556473
aF-0.004114085342735052
aF-0.003480382962152362
aF-0.0028430374804884195
aF-0.0026055709458887577
aF-0.003703356022015214
aF-0.005180738400667906
aF-0.004890709184110165
aF-0.0051812645979225636
aF-0.004625331610441208
aF-0.00401798402890563
aF-0.003201767336577177
aF-0.0028927840758115053
aF-0.0014474476920440793
aF-0.000695130554959178
aF-0.0005897001828998327
aF-0.0007541143568232656
aF-0.001445855014026165
aF-0.0017859857762232423
aF-0.0030927122570574284
aF-0.004330452065914869
aF-0.004445206839591265
aF-0.006088537629693747
aF-0.005782376043498516
aF-0.00633251154795289
aF-0.007850855588912964
aF-0.008301162160933018
aF-0.009619591757655144
aF-0.010980932973325253
aF-0.010916228406131268
aF-0.010457820259034634
aF-0.009300717152655125
aF-0.00827791728079319
aF-0.007692174986004829
aF-0.005168273113667965
aF-0.004128004424273968
aF-0.0029593612998723984
aF-0.0036319822538644075
aF-0.003741743741557002
aF-0.005019905511289835
aF-0.00561132887378335
aF-0.005328360479325056
aF-0.00536091485992074
aF-0.004446282517164946
aF-0.003945257980376482
aF-0.0034826549235731363
aF-0.0024537357967346907
aF-0.0020210060756653547
aF-0.0035294247791171074
aF-0.0029676135163754225
aF-0.00616798922419548
aF-0.004448216874152422
aF-0.005445300601422787
aF-0.004454457201063633
aF-0.004749923944473267
aF-0.004015638027340174
aF-0.003842863254249096
aF-0.003089500591158867
aF-0.0026234423276036978
aF-0.0022970910649746656
aF-0.0018190229311585426
aF-0.0013952467124909163
aF-0.0009001720463857055
aF-0.0008425219566561282
aF-0.0006459461292251945
aF-0.0011363792000338435
aF-0.0012891117949038744
aF-0.0020030445884913206
aF-0.0017848496790975332
aF-0.0017672779504209757
aF-0.0012867398327216506
aF-0.0019242462003603578
aF-0.0014139533741399646
aF-0.0008880937239155173
aF-0.0007427057134918869
aF-0.002082780934870243
aF-0.0055945077911019325
aF-0.005990324076265097
aF-0.007640043739229441
aF-0.006502850446850061
aF-0.004734633024781942
aF-0.00563396280631423
aF-0.006878478452563286
aF-0.005758612882345915
aF-0.0017314499709755182
aF-0.000259845721302554
aF-0.0009791093179956079
aF-0.001939863432198763
aF-0.0034625944681465626
aF-0.00533144548535347
aF-0.003735551843419671
aF-0.004712599329650402
aF-0.0035659128334373236
aF-0.003534630173817277
aF-0.0026363052893429995
aF-0.0022797640413045883
aF-0.001980550354346633
aF-0.001193327596411109
aF-0.0011648350628092885
aF-0.00011182411253685132
aF-0.0004734912363346666
aF-0.0006277274806052446
aF-0.0009838537080213428
aF-0.0015425505116581917
aF-0.0007188142044469714
aF-0.0010018304456025362
aF-0.0006409144261851907
aF-0.0014498824020847678
aF-0.0009124595671892166
aF-1.0339478649257217e-05
aF-0.00011895952775375918
aF-0.002065482083708048
aF-0.0030219194013625383
aF-0.002250379417091608
aF-0.0035060227382928133
aF-0.0030367716681212187
aF-0.0025292574428021908
aF-0.0023971861228346825
aF-0.0020260766614228487
aF-0.001906523946672678
aF-0.0013729730853810906
aF-0.0010000319452956319
aF-0.0012501461897045374
aF-0.0008035514038056135
aF-0.0011239632731303573
aF-0.0011454678606241941
aF-0.0009880672441795468
aF-0.000993393245153129
aF-0.0008900756947696209
aF-0.0008180160657502711
aF-0.0009844591841101646
aF-0.000799716857727617
aF-0.0010776912095025182
aF-0.0010686976602301002
aF-0.000805706309620291
aF-0.0008931704214774072
aF-0.0008149569621309638
aF-0.0008091131458058953
aF-0.0009146361262537539
aF-0.0008357165497727692
aF-0.0008355307509191334
aF-0.0008065146976150572
aF-0.0011342320358380675
aF-0.0006689396104775369
aF-0.000684627506416291
aF-0.0014127660542726517
aF-0.002483628923073411
aF-0.0030604777857661247
aF-0.003344755619764328
aF-0.005542993079870939
aF-0.004535558633506298
aF-0.005916820373386145
aF-0.00735089648514986
aF-0.006261834409087896
aF-0.00581743149086833
aF-0.005212098825722933
aF-0.00445376755669713
aF-0.004038639832288027
aF-0.0036564255133271217
aF-0.003710330231115222
aF-0.004082546569406986
aF-0.004902671556919813
aF-0.004952499642968178
aF-0.005555006675422192
aF-0.00522244069725275
aF-0.005503250285983086
aF-0.005320737138390541
aF-0.004889544099569321
aF-0.004311102442443371
aF-0.0035906240809708834
aF-0.0030555562116205692
aF-0.002030841773375869
aF-0.0015126649523153901
aF-0.0012891468359157443
aF-0.001192703959532082
aF-0.0012905038893222809
aF-0.0016651768237352371
aF-0.0022627294529229403
aF-0.0026020805817097425
aF-0.0024588301312178373
aF-0.0022247103042900562
aF-0.0023336433805525303
aF-0.002215450396761298
aF-0.0028527278918772936
aF-0.0019980783108621836
aF-0.0020879958756268024
aF-0.0018417956307530403
aF-0.001660131267271936
aF-0.001077940221875906
aF-0.001923173083923757
aF-0.0034878577571362257
aF-0.002642052946612239
aF-0.0025135523173958063
aF-0.0021784352138638496
aF-0.0018219114281237125
aF-0.0009228352573700249
aF-0.0011216161074116826
aF-0.0014022678369656205
aF-0.00203231000341475
aF-0.003063380951061845
aF-0.0037478129379451275
aF-0.0035355594009160995
aF-0.003228509798645973
aF-0.003689115634188056
aF-0.002585179638117552
aF-0.0021063676103949547
aF-0.00239365897141397
aF-0.00118923035915941
aF-0.0007314961403608322
aF-0.0002462330739945173
aF-0.00026781533961184323
aF-0.0006060428568162024
aF-0.0008591310470364988
aF-0.0011661779135465622
aF-0.0014147261390462518
aF-0.0012861144496127963
aF-0.002680787118151784
aF-0.001669839140959084
aF-0.0016975825419649482
aF-0.0015666522085666656
aF-0.0015489519573748112
aF-0.0009372809436172247
aF-0.0009158598841167986
aF-0.0008271676488220692
aF-0.00034025186323560774
aF-0.00034448312362655997
aF-0.0012149011017754674
aF-0.0009132401319220662
aF-0.0009812037460505962
aF-0.0007477372419089079
aF-0.001630747108720243
aF-0.0008840858354233205
aF-0.0008183279423974454
aF-0.0007304101600311697
aF-0.000860626227222383
aF-0.0003661599475890398
aF-0.00047623159480281174
aF-9.064987534657121e-05
aF-0.0004937926423735917
aF-0.00035925963311456144
aF-0.00044972565956413746
aF-0.00024937698617577553
aF-0.00018192145216744393
aF-0.0003478978469502181
aF-0.0009288991568610072
aF-0.0013296488905325532
aF-0.001622711424715817
aF-0.0021796952933073044
aF-0.002830064157024026
aF-0.0035493208561092615
aF-0.003505156608298421
aF-0.003283801954239607
aF-0.003047758713364601
aF-0.002390911802649498
aF-0.0020646904595196247
aF-0.001955194165930152
aF-0.00284787081182003
aF-0.003443309338763356
aF-0.00402635894715786
aF-0.004097271244972944
aF-0.0034257362131029367
aF-0.0031088741961866617
aF-0.002304650843143463
aF-0.0014310029800981283
aF-0.0014406173722818494
aF-0.0008326773531734943
aF-0.0017523177666589618
aF-0.0033976593986153603
aF-0.006151010747998953
aF-0.005990553181618452
aF-0.005014562979340553
aF-0.004627350717782974
aF-0.004882069304585457
aF-0.0035815949086099863
aF-0.0026694675907492638
aF-0.0009537881123833358
aF-0.0005256100557744503
aF-0.0018374761566519737
aF-0.001803334802389145
aF-0.003396641230210662
aF-0.005321170669049025
aF-0.006948450114578009
aF-0.006349532399326563
aF-0.006291627883911133
aF-0.005672784522175789
aF-0.004737350158393383
aF-0.003950395155698061
aF-0.003327846061438322
aF-0.003906276077032089
aF-0.004974859766662121
aF-0.005415348336100578
aF-0.005389788653701544
aF-0.0056380233727395535
aF-0.005009286105632782
aF-0.004326017573475838
aF-0.0035762584302574396
aF-0.0029440305661410093
aF-0.002305202418938279
aF-0.0023917972575873137
aF-0.0017026407876983285
aF-0.0016789160436019301
aF-0.0016863502096384764
aF-0.0015649211127310991
aF-0.002159260446205735
aF-0.0022276905365288258
aF-0.0022510814014822245
aF-0.0020800798665732145
aF-0.0019195096101611853
aF-0.0015132986009120941
aF-0.0012995789293199778
aF-0.000637001940049231
aF-0.00025029596872627735
aF-0.00017577926337253302
aF-0.0003689707082230598
aF-0.00033511119545437396
aF-0.0005065540317445993
aF-0.0005960908601991832
aF-0.0005076705710962415
aF-0.00048566257464699447
aF-0.0004844460927415639
aF-0.0006909601506777108
aF-0.00039121348527260125
aF-0.0006987500819377601
aF-0.0004638910759240389
aF-0.00037816757685504854
aF-0.001011973712593317
aF-0.00023412294103763998
aF-0.0002856514183804393
aF-0.001171504962258041
aF-0.00208360911346972
aF-0.004232147242873907
aF-0.007007177919149399
aF-0.008531386964023113
aF-0.008811064064502716
aF-0.00954125914722681
aF-0.008970411494374275
aF-0.00842397939413786
aF-0.007285470608621836
aF-0.005753860343247652
aF-0.007101370021700859
aF-0.0032235581893473864
aF-0.0008714506402611732
aF-0.0018469210481271148
aF-0.0034469799138605595
aF-0.004194256383925676
aF-0.005261187441647053
aF-10.07942008972168
aF-9.447629928588867
aF-7.625050067901611
aF-6.3324761390686035
aF-5.322795391082764
aF-4.365644454956055
aF-3.5879688262939453
aF-2.9991283416748047
aF-2.4756505489349365
aF-1.9943394660949707
aF-1.614222526550293
aF-1.3497705459594727
aF-1.114331603050232
aF-0.9390928149223328
aF-0.7940754294395447
aF-0.6898329854011536
aF-0.617241621017456
aF-0.5656759142875671
aF-0.5298523902893066
aF-0.5132004022598267
aF-0.5103817582130432
aF-0.5151055455207825
aF-0.530860424041748
aF-0.5665831565856934
aF-0.6008628606796265
aF-0.660571813583374
aF-0.7334896922111511
aF-0.8204332590103149
aF-0.9421581029891968
aF-1.0788557529449463
aF-1.2509746551513672
aF-1.4828344583511353
aF-1.7755149602890015
aF-2.0777978897094727
aF-2.4627888202667236
aF-3.0319740772247314
aF-3.55187726020813
aF-4.465704441070557
aF-5.110252857208252
aF-6.554891109466553
aF-7.80033540725708
aF-9.517078399658203
aF-9.936556816101074
aF-8.353105545043945
aF-6.949747085571289
aF-5.534404754638672
aF-4.416062831878662
aF-3.569669485092163
aF-2.7620012760162354
aF-2.086052894592285
aF-1.6606650352478027
aF-1.2221033573150635
aF-0.9019636511802673
aF-0.6575403809547424
aF-0.44993481040000916
aF-0.33993208408355713
aF-0.22641578316688538
aF-0.1454397439956665
aF-0.09570806473493576
aF-0.0647721141576767
aF-0.05533292517066002
aF-0.05492504686117172
aF-0.06612666696310043
aF-0.0710921436548233
aF-0.06897810101509094
aF-0.06565026938915253
aF-0.0601361058652401
aF-0.054127175360918045
aF-0.048248276114463806
aF-0.045113954693078995
aF-0.0417899489402771
aF-0.04040434584021568
aF-0.03593533858656883
aF-0.033670052886009216
aF-0.029469439759850502
aF-0.025080444291234016
aF-0.020548177883028984
aF-0.016705043613910675
aF-0.012872554361820221
aF-0.010360758751630783
aF-0.00812502857297659
aF-0.007146131247282028
aF-0.006314975209534168
aF-0.008806366473436356
aF-0.006868374068289995
aF-0.00876384973526001
aF-0.00750824436545372
aF-0.006708079949021339
aF-0.005635828245431185
aF-0.004985126666724682
aF-0.003799395402893424
aF-0.0026564747095108032
aF-0.0013634358765557408
aF-0.0012391915079206228
aF-0.0021895612590014935
aF-0.004588112235069275
aF-0.003804052947089076
aF-0.0028007577639073133
aF-0.0024994031991809607
aF-0.0034209182485938072
aF-0.005589850712567568
aF-0.0065847341902554035
aF-0.0026299345772713423
aF-0.0021337631624192
aF-0.0013600412057712674
aF-0.0013005617074668407
aF-0.0010524046374484897
aF-0.0016700922278687358
aF-0.0009659943752922118
aF-0.001481400104239583
aF-0.0013024916406720877
aF-0.0007693967781960964
aF-0.0005946240271441638
aF-0.0013149543665349483
aF-0.0018951066303998232
aF-0.0014959897380322218
aF-0.000686920655425638
aF-0.00043084073695354164
aF-0.0011633257381618023
aF-0.0020197476260364056
aF-0.0014793422305956483
aF-0.0005911066546104848
aF-0.000621162704192102
aF-0.002269219607114792
aF-0.0037688324227929115
aF-0.0036018667742609978
aF-0.005622006952762604
aF-0.004409022629261017
aF-0.004504566080868244
aF-0.0032918353099375963
aF-0.003137751016765833
aF-0.0038276768755167723
aF-0.00240998319350183
aF-0.0012899404391646385
aF-0.00029529602034017444
aF-0.0008783405064605176
aF-0.001770057831890881
aF-0.002681611804291606
aF-0.0027560286689549685
aF-0.002931578317657113
aF-0.002247985452413559
aF-0.0023290254175662994
aF-0.00211021164432168
aF-0.0010091038420796394
aF-0.0013992689782753587
aF-0.001064394717104733
aF-0.002015531761571765
aF-0.0041173179633915424
aF-0.005485652945935726
aF-0.00592909287661314
aF-0.008699324913322926
aF-0.007453861180692911
aF-0.00811092834919691
aF-0.006444461178034544
aF-0.005962953437119722
aF-0.005426561459898949
aF-0.0042694793082773685
aF-0.0011562556028366089
aF-0.0002860530512407422
aF-0.0021351310424506664
aF-0.0025001142639666796
aF-0.004008478485047817
aF-0.003999445587396622
aF-0.0025996442418545485
aF-0.0024101980961859226
aF-0.005510187242180109
aF-0.019967375323176384
aF-0.04499216750264168
aF-0.08566675335168839
aF-0.14058730006217957
aF-0.2115403413772583
aF-0.3188405930995941
aF-0.4053414762020111
aF-0.5107883214950562
aF-0.648511528968811
aF-0.8213545083999634
aF-1.0640618801116943
aF-1.302530288696289
aF-1.6418594121932983
aF-2.029003858566284
aF-2.638094425201416
aF-3.063685178756714
aF-3.8666374683380127
aF-4.696507453918457
aF-5.8706464767456055
aF-7.198601722717285
aF-8.703401565551758
aF-10.291001319885254
aF-9.126969337463379
aF-7.570525646209717
aF-6.108575820922852
aF-4.9079203605651855
aF-3.8566718101501465
aF-2.931532382965088
aF-2.300969123840332
aF-1.7008442878723145
aF-1.261852741241455
aF-0.9311568737030029
aF-0.6441424489021301
aF-0.43868497014045715
aF-0.2987421452999115
aF-0.19286313652992249
aF-0.12010468542575836
aF-0.06774187833070755
aF-0.03779808431863785
aF-0.017305344343185425
aF-0.005183576140552759
aF-0.0013055558083578944
aF-0.0031328469049185514
aF-0.008748839609324932
aF-0.012250235304236412
aF-0.011329223401844501
aF-0.010661252774298191
aF-0.010761748999357224
aF-0.008730732835829258
aF-0.007168594282120466
aF-0.0065985554829239845
aF-0.004723557736724615
aF-0.005613336339592934
aF-0.003873843001201749
aF-0.0029222900047898293
aF-0.0009413379011675715
aF-0.0005624674377031624
aF-0.0016574017936363816
aF-0.00245808158069849
aF-0.0013668981846421957
aF-0.0005038879462517798
aF-0.0004519127542153001
aF-0.0014724181964993477
aF-0.003915589768439531
aF-0.0042631784453988075
aF-0.0054047591984272
aF-0.004609658382833004
aF-0.004121305420994759
aF-0.0035830247215926647
aF-0.0029590963385999203
aF-0.0028024171479046345
aF-0.002446722239255905
aF-0.0017968716565519571
aF-0.0015189815312623978
aF-0.0013497286709025502
aF-0.0014086789451539516
aF-0.0006853994564153254
aF-0.0007200484396889806
aF-0.0017246163915842772
aF-0.0021599323954433203
aF-0.004002512898296118
aF-0.0043793777003884315
aF-0.004056935198605061
aF-0.006321857683360577
aF-0.005853232927620411
aF-0.006604589521884918
aF-0.0068398392759263515
aF-0.005814642645418644
aF-0.005172543693333864
aF-0.004404258914291859
aF-0.004000166896730661
aF-0.0032817604951560497
aF-0.003197962651029229
aF-0.005339713767170906
aF-0.006607592571526766
aF-0.008697936311364174
aF-0.012656456790864468
aF-0.012590368278324604
aF-0.012642047367990017
aF-0.01209128089249134
aF-0.011119991540908813
aF-0.009952408261597157
aF-0.009055732749402523
aF-0.009008103981614113
aF-0.009894738905131817
aF-0.011372072622179985
aF-0.013247999362647533
aF-0.01320802140980959
aF-0.01386755146086216
aF-0.014976885169744492
aF-0.012890350073575974
aF-0.011815961450338364
aF-0.011100188829004765
aF-0.009116030298173428
aF-0.00824930053204298
aF-0.006624310743063688
aF-0.005141643341630697
aF-0.004446815233677626
aF-0.003462288063019514
aF-0.002312716329470277
aF-0.0022221077233552933
aF-0.004883881658315659
aF-0.02210872992873192
aF-0.05093168467283249
aF-0.10314557701349258
aF-0.1556725651025772
aF-0.24165399372577667
aF-0.37964534759521484
aF-0.6102169752120972
aF-0.8821633458137512
aF-1.2550734281539917
aF-1.8754162788391113
aF-2.6202728748321533
aF-3.7911601066589355
aF-5.040308952331543
aF-6.851678371429443
aF-8.678221702575684
aF-10.519814491271973
aF-8.201233863830566
aF-6.262867450714111
aF-4.857770919799805
aF-3.637343645095825
aF-2.5875308513641357
aF-1.8820936679840088
aF-1.2622417211532593
aF-0.9299008250236511
aF-0.5722438097000122
aF-0.4196178913116455
aF-0.34024789929389954
aF-0.40478819608688354
aF-0.38374993205070496
aF-0.5968440175056458
aF-0.8703141808509827
aF-1.0713515281677246
aF-1.4833455085754395
aF-2.045700788497925
aF-2.4505348205566406
aF-3.5840988159179688
aF-4.404998779296875
aF-5.471052169799805
aF-6.9083170890808105
aF-8.635964393615723
aF-10.339646339416504
aF-9.208550453186035
aF-7.4748358726501465
aF-6.006254196166992
aF-4.733490467071533
aF-3.6579644680023193
aF-2.7349343299865723
aF-2.03389573097229
aF-1.4680068492889404
aF-1.031534194946289
aF-0.7200947403907776
aF-0.45067378878593445
aF-0.33421018719673157
aF-0.22334638237953186
aF-0.1876879185438156
aF-0.15672695636749268
aF-0.15997029840946198
aF-0.23563089966773987
aF-0.29795077443122864
aF-0.38709673285484314
aF-0.49921879172325134
aF-0.6306147575378418
aF-0.8113183975219727
aF-1.0083048343658447
aF-1.2753715515136719
aF-1.6038888692855835
aF-2.0032036304473877
aF-2.4130311012268066
aF-3.0772955417633057
aF-3.773527145385742
aF-4.65498161315918
aF-5.770211696624756
aF-7.010849952697754
aF-8.814568519592285
aF-10.236742973327637
aF-9.157303810119629
aF-7.536508083343506
aF-6.135519504547119
aF-4.9847211837768555
aF-3.8547215461730957
aF-2.9996306896209717
aF-2.2841298580169678
aF-1.7082350254058838
aF-1.2862348556518555
aF-0.9209704995155334
aF-0.6325590014457703
aF-0.43206873536109924
aF-0.2768910527229309
aF-0.18651804327964783
aF-0.11441396176815033
aF-0.06347465515136719
aF-0.030134717002511024
aF-0.017530927434563637
aF-0.004842065274715424
aF-0.001579157542437315
aF-0.0001464054366806522
aF-0.0008569330675527453
aF-0.0010524203535169363
aF-0.0014882158720865846
aF-0.0010578030487522483
aF-0.0014064584393054247
aF-0.0007740317960269749
aF-0.0008936476660892367
aF-0.0015183291397988796
aF-0.0018497036071494222
aF-0.0008617855492047966
aF-0.000801934627816081
aF-0.0005937718087807298
aF-0.0005008943262510002
aF-0.000861115928273648
aF-0.0003556596639100462
aF-0.00019697126117534935
aF-0.00026656751288101077
aF-0.00035406960523687303
aF-0.00026524055283516645
aF-0.00027275230968371034
aF-0.0005741433124057949
aF-0.000615346769336611
aF-0.0007254142547026277
aF-0.0009328112355433404
aF-0.0016259177355095744
aF-0.0008019028464332223
aF-0.0010928419651463628
aF-0.0008934889337979257
aF-0.0009757904917933047
aF-0.0016084134113043547
aF-0.0011186242336407304
aF-0.002694742986932397
aF-0.00063361442880705
aF-0.00048187997890636325
aF-0.0012417957186698914
aF-0.0009079255978576839
aF-0.002485110657289624
aF-0.0007180746179074049
aF-0.0005891110049560666
aF-0.0004836290318053216
aF-0.0008237691363319755
aF-0.0003802830760832876
aF-0.00025002306210808456
aF-0.00045127765042707324
aF-0.0018698463682085276
aF-0.0020926399156451225
aF-0.002502565970644355
aF-0.001693153870292008
aF-0.0015162363415583968
aF-0.001351911691017449
aF-0.0009132907725870609
aF-0.0008464374695904553
aF-0.0005057866801507771
aF-0.0005503474385477602
aF-0.00042390983435325325
aF-0.0004801830800715834
aF-0.0011569684138521552
aF-0.0012214446906000376
aF-0.00593007355928421
aF-0.020049532875418663
aF-0.04643223434686661
aF-0.07267327606678009
aF-0.1263638734817505
aF-0.17912927269935608
aF-0.2958153486251831
aF-0.46510016918182373
aF-0.6665437817573547
aF-1.0007309913635254
aF-1.4442451000213623
aF-2.0954246520996094
aF-3.0979721546173096
aF-4.241901397705078
aF-5.559972763061523
aF-7.332337856292725
aF-9.445718765258789
aF-9.891209602355957
aF-7.510731220245361
aF-5.661494255065918
aF-4.109225749969482
aF-2.9741904735565186
aF-2.1068007946014404
aF-1.4156020879745483
aF-1.0653711557388306
aF-0.9251753687858582
aF-0.5438194274902344
aF-0.6458545327186584
aF-1.1196180582046509
aF-1.2729403972625732
aF-1.8152751922607422
aF-2.71563458442688
aF-3.5814626216888428
aF-4.873438358306885
aF-6.32234525680542
aF-8.097346305847168
aF-10.078450202941895
aF-9.447498321533203
aF-7.6233978271484375
aF-5.992650032043457
aF-4.522770404815674
aF-3.522963523864746
aF-2.708361864089966
aF-2.1597647666931152
aF-1.6671218872070312
aF-1.3196254968643188
aF-1.0061213970184326
aF-0.7559824585914612
aF-0.5749385952949524
aF-0.4375323951244354
aF-0.3353844881057739
aF-0.2666394114494324
aF-0.21597003936767578
aF-0.18594831228256226
aF-0.17278259992599487
aF-0.16978499293327332
aF-0.1707754284143448
aF-0.1722576916217804
aF-0.1725579798221588
aF-0.16673637926578522
aF-0.1609305441379547
aF-0.15423481166362762
aF-0.14615876972675323
aF-0.13824023306369781
aF-0.13084626197814941
aF-0.12331034243106842
aF-0.11735404282808304
aF-0.10544216632843018
aF-0.09703490138053894
aF-0.08893643319606781
aF-0.07922273129224777
aF-0.07147545367479324
aF-0.06526659429073334
aF-0.05924959480762482
aF-0.05393635854125023
aF-0.04924733191728592
aF-0.04546783119440079
aF-0.04278659075498581
aF-0.042640212923288345
aF-0.039358288049697876
aF-0.04083262011408806
aF-0.03772011771798134
aF-0.03519471362233162
aF-0.032496437430381775
aF-0.029363254085183144
aF-0.02549947425723076
aF-0.02397935278713703
aF-0.02155001275241375
aF-0.020388951525092125
aF-0.019802270457148552
aF-0.018883127719163895
aF-0.018123498186469078
aF-0.017158247530460358
aF-0.014488783665001392
aF-0.012212670408189297
aF-0.010008341632783413
aF-0.007494146935641766
aF-0.0058553265407681465
aF-0.0035768530797213316
aF-0.0020481785759329796
aF-0.0011358663905411959
aF-0.000988123589195311
aF-0.0008379886858165264
aF-0.0011415870394557714
aF-0.0018806186271831393
aF-0.0022522311192005873
aF-0.0014716904843226075
aF-0.001294070272706449
aF-0.00144754268694669
aF-0.0020954511128365993
aF-0.0008420152589678764
aF-0.0015967750223353505
aF-0.0006396691896952689
aF-0.0004461087810341269
aF-0.0004887226386927068
aF-0.0004227182944305241
aF-0.00039694446604698896
aF-0.0003557062882464379
aF-0.0003916870045941323
aF-0.0006431087385863066
aF-0.000728362356312573
aF-0.0008921833941712976
aF-0.0008073336794041097
aF-0.0010805916972458363
aF-0.001042278134264052
aF-0.001308238715864718
aF-0.0019133526366204023
aF-0.0014900044770911336
aF-0.0018407240277156234
aF-0.0015576649457216263
aF-0.0014655138365924358
aF-0.001441140309907496
aF-0.002257209736853838
aF-0.003989824093878269
aF-0.0032654432579874992
aF-0.0032955871429294348
aF-0.0030983739998191595
aF-0.002804555231705308
aF-0.0021112223621457815
aF-0.0023124797735363245
aF-0.00195415411144495
aF-0.0019366289488971233
aF-0.002323416993021965
aF-0.0022209095768630505
aF-0.002497920533642173
aF-0.0031501902267336845
aF-0.003864118130877614
aF-0.003446330549195409
aF-0.003118460299447179
aF-0.002243264112621546
aF-0.0031936666928231716
aF-0.0015863641165196896
aF-0.0004802498733624816
aF-2.49398362939246e-05
aF-1.0511545042390935e-05
aF-0.0001724229077808559
aF-0.0005649643717333674
aF-0.0003476796264294535
aF-0.00029560376424342394
aF-0.0005549599300138652
aF-0.0007004934013821185
aF-0.0007683937437832355
aF-0.0016989882569760084
aF-0.0014755678130313754
aF-0.002087916014716029
aF-0.0016714961966499686
aF-0.0015169403050094843
aF-0.001442979322746396
aF-0.0013729247730225325
aF-0.0012635653838515282
aF-0.0015422451542690396
aF-0.0018011473584920168
aF-0.0022700380068272352
aF-0.002378014149144292
aF-0.0022282428108155727
aF-0.002341642277315259
aF-0.002228261437267065
aF-0.0020317425951361656
aF-0.0020240657031536102
aF-0.0029836513567715883
aF-0.002327337395399809
aF-0.0022330922074615955
aF-0.002099324483424425
aF-0.0015118852024897933
aF-0.0017784066731110215
aF-0.0011943239951506257
aF-0.0018026180332526565
aF-0.002348181791603565
aF-0.005007674917578697
aF-0.005063745193183422
aF-0.006036692764610052
aF-0.0063780671916902065
aF-0.005406612530350685
aF-0.005907148588448763
aF-0.005055888555943966
aF-0.005245471838861704
aF-0.004780653864145279
aF-0.0047947983257472515
aF-0.005378119181841612
aF-0.005230384413152933
aF-0.005440245848149061
aF-0.005967021454125643
aF-0.006552711594849825
aF-0.0068055614829063416
aF-0.0068338001146912575
aF-0.007251800503581762
aF-0.006772506050765514
aF-0.0062608495354652405
aF-0.006348425522446632
aF-0.006297374609857798
aF-0.007395956665277481
aF-0.007316042203456163
aF-0.009145093150436878
aF-0.010417526587843895
aF-0.010951017029583454
aF-0.010946197435259819
aF-0.009263727813959122
aF-0.008050646632909775
aF-0.006677874363958836
aF-0.006057375576347113
aF-0.0034769701305776834
aF-0.0022392477840185165
aF-0.0018320318777114153
aF-0.002306778449565172
aF-0.003208774607628584
aF-0.0036194983404129744
aF-0.004221037961542606
aF-0.004762027412652969
aF-0.0042670187540352345
aF-0.003758799284696579
aF-0.003349956125020981
aF-0.003174962941557169
aF-0.003976619802415371
aF-0.0019207231234759092
aF-0.0005745170637965202
aF-0.00013322714949026704
aF-0.0011758205946534872
aF-0.0024199921172112226
aF-0.005243483930826187
aF-0.006530561484396458
aF-0.004345596302300692
aF-0.00451664300635457
aF-0.0040662409737706184
aF-0.0033732035662978888
aF-0.00251945317722857
aF-0.0021010192576795816
aF-0.0011676602298393846
aF-0.0010191190522164106
aF-0.0010786001803353429
aF-0.0013818832812830806
aF-0.001299393712542951
aF-0.0024154616985470057
aF-0.001293530804105103
aF-0.0010778603609651327
aF-0.0009941791649907827
aF-0.0011747264070436358
aF-0.0005573055241256952
aF-0.00037343750591389835
aF-0.0004210921179037541
aF-0.00021487250342033803
aF-3.085949629166862e-07
aF-0.0009193753357976675
aF-0.0010754952672868967
aF-0.0008626761264167726
aF-0.0014412845484912395
aF-0.0012520638993009925
aF-0.0009952662512660027
aF-0.0010176277719438076
aF-0.0008918129024095833
aF-0.0008786557009443641
aF-0.0006433647940866649
aF-0.0007856841548345983
aF-0.0006578863831236959
aF-0.00048364722169935703
aF-0.0007485678652301431
aF-0.00035871690488420427
aF-0.00048396355123259127
aF-0.0005310201668180525
aF-0.00017794195446185768
aF-0.00023031144519336522
aF-0.00017374593880958855
aF-0.00017964567814487964
aF-0.0007485110545530915
aF-0.0008603051537647843
aF-0.0007327537168748677
aF-0.0010049305856227875
aF-0.0010873188730329275
aF-0.0013184533454477787
aF-0.0012999866157770157
aF-0.0015175590524449944
aF-0.0014241560129448771
aF-0.0012995529687032104
aF-0.0012571575352922082
aF-0.0015509800286963582
aF-0.0014216924319043756
aF-0.0014214686816558242
aF-0.00263515068218112
aF-0.002032550983130932
aF-0.0027151613030582666
aF-0.002252661157399416
aF-0.00202555232681334
aF-0.0017588475020602345
aF-0.001833698945119977
aF-0.0018182916101068258
aF-0.0022418638691306114
aF-0.002564598573371768
aF-0.001828236156143248
aF-0.0016694184159860015
aF-0.0013566111447289586
aF-0.0019716036040335894
aF-0.0008188033825717866
aF-0.0001896567700896412
aF-0.0002482506388332695
aF-0.0014492798363789916
aF-0.0027522239834070206
aF-0.0027245909441262484
aF-0.001785192871466279
aF-0.0017261491157114506
aF-0.001976731000468135
aF-0.001228149514645338
aF-0.0008514035725966096
aF-0.0007231254712678492
aF-0.00047688811901025474
aF-0.00029072538018226624
aF-7.438466127496213e-05
aF-4.660225022234954e-05
aF-0.0005210557719692588
aF-0.0006092088297009468
aF-0.0010948125272989273
aF-0.0018028642516583204
aF-0.0008204260375350714
aF-0.0009692962048575282
aF-0.0012453747913241386
aF-0.0006616329774260521
aF-0.0005864394479431212
aF-0.0009408593759872019
aF-0.0006703328108415008
aF-0.0003564540238585323
aF-0.00017214064428117126
aF-0.000529977900441736
aF-0.00038417099858634174
aF-0.0005136357503943145
aF-5.251890979707241e-05
aF-0.0002508708566892892
aF-0.00014270619431044906
aF-0.0005345038371160626
aF-0.00021256467152852565
aF-0.00013435438449960202
aF-0.00011567802721401677
aF-0.0006175364833325148
aF-0.001433684374205768
aF-0.0025970120914280415
aF-0.0017351649003103375
aF-0.0020135031081736088
aF-0.0015146932564675808
aF-0.0015302717220038176
aF-0.00164059700910002
aF-0.0013963785022497177
aF-0.000387106672860682
aF-2.834867700585164e-05
aF-0.0005923727876506746
aF-0.001984068425372243
aF-0.0046867565251886845
aF-0.0031672518234699965
aF-0.004439964424818754
aF-0.004446269012987614
aF-0.0036483879666775465
aF-0.0035414756275713444
aF-0.0031702169217169285
aF-0.0023548335302621126
aF-0.0025969245471060276
aF-0.0014032031176611781
aF-0.000351236027199775
aF-0.00047496918705292046
aF-0.0016245207516476512
aF-0.0036369545850902796
aF-0.0030648522078990936
aF-0.004059806000441313
aF-0.0034884230699390173
aF-0.0036545908078551292
aF-0.0033685783855617046
aF-0.0029206140898168087
aF-0.002319300314411521
aF-0.0033349287696182728
aF-0.0038487163837999105
aF-0.004120266530662775
aF-0.003814353607594967
aF-0.003270123153924942
aF-0.0027727193664759398
aF-0.002788164187222719
aF-0.0012993430718779564
aF-0.00047451764112338424
aF-0.00039525769534520805
aF-0.00036963028833270073
aF-0.0005957458633929491
aF-0.00128391501493752
aF-0.0014591976068913937
aF-0.0010769624495878816
aF-0.0010810747044160962
aF-0.0009739222005009651
aF-0.002428544918075204
aF-0.0027319539804011583
aF-0.00128711829893291
aF-0.000421327305957675
aF-0.0009002771694213152
aF-0.00228706281632185
aF-0.002693687565624714
aF-0.0040768845938146114
aF-0.0038162434939295053
aF-0.005120991263538599
aF-0.004131398629397154
aF-0.004019675776362419
aF-0.003539486089721322
aF-0.0031600240617990494
aF-0.003247987013310194
aF-0.0012291683815419674
aF-0.0004521131922956556
aF-0.00012707200949080288
aF-0.0005807479610666633
aF-0.000738520291633904
aF-0.0021992253605276346
aF-0.003470527706667781
aF-0.004305141977965832
aF-0.004560790956020355
aF-0.0034400334116071463
aF-0.002942958613857627
aF-0.003047283971682191
aF-0.0034260887186974287
aF-0.0016000901814550161
aF-0.0006237243651412427
aF-0.00016666963347233832
aF-0.001128646545112133
aF-0.0027173629496246576
aF-0.0031121643260121346
aF-0.003475949866697192
aF-0.002969826338812709
aF-0.0028525220695883036
aF-0.002611839910969138
aF-0.002446376020088792
aF-0.002190480474382639
aF-0.00335966469720006
aF-0.002775815548375249
aF-0.003190453862771392
aF-0.0027533413376659155
aF-0.0023521180264651775
aF-0.0018857797840610147
aF-0.0014619610738009214
aF-0.0010786084458231926
aF-0.0010242760181427002
aF-0.0010441439226269722
aF-0.0010344753973186016
aF-0.0011565384920686483
aF-0.0009920536540448666
aF-0.0009872502414509654
aF-0.0009048718493431807
aF-0.0009273731848224998
aF-0.0008032299811020494
aF-0.0014969026669859886
aF-0.000987780513241887
aF-0.0011119571281597018
aF-0.0008946973830461502
aF-0.0010430733673274517
aF-0.0005895420326851308
aF-0.0007594539783895016
aF-0.00031656690407544374
aF-0.0006229110877029598
aF-0.00010149928129976615
aF-0.0001438036997569725
aF-0.0007327228086069226
aF-0.0007451060228049755
aF-0.0011275169672444463
aF-0.0006470945081673563
aF-0.0010360493324697018
aF-0.0006424798630177975
aF-0.0006445854087360203
aF-0.0004513793101068586
aF-0.001267534913495183
aF-0.00022023393830750138
aF-0.000572491786442697
aF-0.0008577204425819218
aF-0.0009973365813493729
aF-0.0007393606938421726
aF-0.0008983150473795831
aF-0.0009210112621076405
aF-0.0011084729339927435
aF-0.0010063773952424526
aF-0.001353225321508944
aF-0.0010025262599810958
aF-0.0012252398300915956
aF-0.0010636860970407724
aF-0.000859238556586206
aF-0.0006718204240314662
aF-0.00069561752025038
aF-0.0009084003395400941
aF-0.0004878240288235247
aF-0.0003461413143668324
aF-0.00026054936461150646
aF-0.0011187188792973757
aF-0.0007810620591044426
aF-0.0015986822545528412
aF-0.0021187106613069773
aF-0.0010798632865771651
aF-0.0012227363185957074
aF-0.0011721800547093153
aF-0.0013525852700695395
aF-0.003031023545190692
aF-0.0029310539830476046
aF-0.002022174885496497
aF-0.0009655782487243414
aF-0.0010703584412112832
aF-0.0031922184862196445
aF-0.007005595602095127
aF-0.008440155535936356
aF-0.006886720657348633
aF-0.0041207182221114635
aF-0.00360002089291811
aF-0.004006100818514824
aF-0.004226308781653643
aF-0.0037996864411979914
aF-0.0031121091451495886
aF-0.00031478606979362667
aF-0.00015421448915731162
aF-0.003481062361970544
aF-0.003454780438914895
aF-0.007924237288534641
aF-0.0037303450517356396
aF-0.004472366999834776
aF-0.0029324486386030912
aF-0.002969487803056836
aF-0.0047451648861169815
aF-0.0023836446925997734
aF-0.0008564810850657523
aF-0.0005216926801949739
aF-0.0002525071322452277
aF-0.00020394838065840304
aF-0.00030479682027362287
aF-0.00010920418571913615
aF-0.00035400892375037074
aF-0.0006613320438191295
aF-0.0010534607572481036
aF-0.0015220959903672338
aF-0.0032536934595555067
aF-0.0011504733702167869
aF-0.0010147817665711045
aF-0.001338608912192285
aF-0.0015608947724103928
aF-0.0022553757298737764
aF-0.002921096282079816
aF-0.0015167852398008108
aF-0.0009384602890349925
aF-0.0007891359855420887
aF-0.0013584564439952374
aF-0.002074255608022213
aF-0.0017901299288496375
aF-0.0006334698409773409
aF-0.0007216024678200483
aF-0.0006535173743031919
a.