(lp0
F-9.885882172966376e-05
aF-10.832240104675293
aF-9.830490112304688
aF-9.830294609069824
aF-9.850672721862793
aF-9.791781425476074
aF-9.771265983581543
aF-9.75159740447998
aF-9.731987953186035
aF-9.712396621704102
aF-9.692826271057129
aF-9.69349193572998
aF-9.693119049072266
aF-9.712934494018555
aF-9.772846221923828
aF-9.872678756713867
aF-9.719314575195312
aF-9.564903259277344
aF-9.340417861938477
aF-9.07948112487793
aF-8.768092155456543
aF-8.412041664123535
aF-8.010818481445312
aF-7.581664562225342
aF-7.15790319442749
aF-6.688644886016846
aF-6.245283126831055
aF-5.872349739074707
aF-5.519374847412109
aF-5.191612243652344
aF-4.924288272857666
aF-4.698911190032959
aF-4.538405418395996
aF-4.425393581390381
aF-4.381323337554932
aF-4.381715297698975
aF-4.431908130645752
aF-4.542691707611084
aF-4.727856636047363
aF-5.043295860290527
aF-5.495423316955566
aF-6.076013088226318
aF-6.827978610992432
aF-7.662423610687256
aF-8.673644065856934
aF-9.71633243560791
aF-9.447033882141113
aF-8.32374095916748
aF-7.305682182312012
aF-6.348526477813721
aF-5.421017646789551
aF-4.62601375579834
aF-3.9358460903167725
aF-3.356555938720703
aF-2.881542205810547
aF-2.4971694946289062
aF-2.176191806793213
aF-1.9404630661010742
aF-1.7710541486740112
aF-1.6542038917541504
aF-1.594302773475647
aF-1.574782133102417
aF-1.591402530670166
aF-1.6513714790344238
aF-1.7576040029525757
aF-1.9033700227737427
aF-2.079249382019043
aF-2.3630106449127197
aF-2.6688199043273926
aF-3.064091444015503
aF-3.5838379859924316
aF-4.213583946228027
aF-5.195808410644531
aF-6.185824394226074
aF-7.551158428192139
aF-9.055051803588867
aF-10.353568077087402
aF-8.82075309753418
aF-7.312531471252441
aF-6.135722637176514
aF-4.96142578125
aF-3.954540252685547
aF-3.1618049144744873
aF-2.5017902851104736
aF-1.9316942691802979
aF-1.465466856956482
aF-1.118941307067871
aF-0.8204511404037476
aF-0.5940712690353394
aF-0.44032078981399536
aF-0.3038942217826843
aF-0.20235644280910492
aF-0.1296701431274414
aF-0.08823443949222565
aF-0.05844879895448685
aF-0.04956792667508125
aF-0.0479150116443634
aF-0.05108322203159332
aF-0.0546216182410717
aF-0.05698620155453682
aF-0.05675671994686127
aF-0.055333491414785385
aF-0.05147543177008629
aF-0.0458286814391613
aF-0.040231622755527496
aF-0.034242141991853714
aF-0.028390614315867424
aF-0.025263739749789238
aF-0.026501299813389778
aF-0.02713163010776043
aF-0.028270887210965157
aF-0.028233353048563004
aF-0.02813604846596718
aF-0.02784215845167637
aF-0.028427530080080032
aF-0.027019772678613663
aF-0.02740796096622944
aF-0.026220010593533516
aF-0.024966873228549957
aF-0.023102277889847755
aF-0.02124887704849243
aF-0.020332740619778633
aF-0.021240876987576485
aF-0.024189919233322144
aF-0.023133710026741028
aF-0.023036906495690346
aF-0.021487822756171227
aF-0.019470565021038055
aF-0.017670705914497375
aF-0.01588284969329834
aF-0.015047522261738777
aF-0.015466145239770412
aF-0.01371355727314949
aF-0.011571792885661125
aF-0.010372200049459934
aF-0.009549148380756378
aF-0.005483607761561871
aF-0.0027274738531559706
aF-0.0016158634098246694
aF-0.0017454357584938407
aF-0.0023893769830465317
aF-0.004857975989580154
aF-0.008841028437018394
aF-0.009586058557033539
aF-0.011720388196408749
aF-0.009249950759112835
aF-0.008586387149989605
aF-0.007672513369470835
aF-0.006464261561632156
aF-0.005292015615850687
aF-0.003112103557214141
aF-0.0011726954253390431
aF-0.0003386180615052581
aF-0.00031208829022943974
aF-0.00016383695765398443
aF-0.00037026539212092757
aF-0.0004514314350672066
aF-0.0005768096307292581
aF-0.0007496271864511073
aF-0.0019397364230826497
aF-0.0020981822162866592
aF-0.0022278325632214546
aF-0.0016680967528373003
aF-0.001680532586760819
aF-0.006196329835802317
aF-0.02333221584558487
aF-0.05538773909211159
aF-0.12459000945091248
aF-0.18696913123130798
aF-0.3149001896381378
aF-0.44756045937538147
aF-0.6175965666770935
aF-0.7934818863868713
aF-0.9930686950683594
aF-1.2987277507781982
aF-1.6508700847625732
aF-2.1249477863311768
aF-2.5991225242614746
aF-3.3339314460754395
aF-4.115836143493652
aF-5.101452827453613
aF-6.254194736480713
aF-7.7354631423950195
aF-9.54152774810791
aF-9.998578071594238
aF-8.333863258361816
aF-6.913476943969727
aF-5.567018032073975
aF-4.412036895751953
aF-3.507695436477661
aF-2.709326982498169
aF-1.9213792085647583
aF-1.4796373844146729
aF-1.0573225021362305
aF-0.7595942616462708
aF-0.5316361784934998
aF-0.3256186842918396
aF-0.21481899917125702
aF-0.1252562254667282
aF-0.08228199183940887
aF-0.04498332366347313
aF-0.02548605389893055
aF-0.014127410016953945
aF-0.0067954156547784805
aF-0.004897936247289181
aF-0.0035147517919540405
aF-0.0038962112739682198
aF-0.004506888799369335
aF-0.0016370094381272793
aF-0.00041101506212726235
aF-0.00031721460982225835
aF-0.00031436013523489237
aF-0.0003515135031193495
aF-0.00046360649866983294
aF-0.0010265306336805224
aF-0.0018530335510149598
aF-0.0018088058568537235
aF-0.001897270791232586
aF-0.0013392700348049402
aF-0.0012027635239064693
aF-0.0023322899360209703
aF-0.0013810236705467105
aF-0.0005039211246185005
aF-3.498423029668629e-05
aF-0.0012200666824355721
aF-0.004032602533698082
aF-0.0035560298711061478
aF-0.004964135587215424
aF-0.0036412111949175596
aF-0.003222162602469325
aF-0.0029593429062515497
aF-0.0028506931848824024
aF-0.002598716877400875
aF-0.0019876703154295683
aF-0.0003380228881724179
aF-0.0005228762165643275
aF-0.002161359880119562
aF-0.003411028068512678
aF-0.0033560621086508036
aF-0.0036211013793945312
aF-0.003988204523921013
aF-0.0042221988551318645
aF-0.0049491398967802525
aF-0.00438001798465848
aF-0.004409248009324074
aF-0.004056465812027454
aF-0.003719935892149806
aF-0.0037295026704669
aF-0.0036105106119066477
aF-0.0038671507500112057
aF-0.004629040602594614
aF-0.0032940409146249294
aF-0.0029513430781662464
aF-0.00282580335624516
aF-0.0021323924884200096
aF-0.0014816141920164227
aF-0.0012389401672407985
aF-0.0006560439942404628
aF-0.0006508031510747969
aF-0.0005217298748902977
aF-0.0007248549372889102
aF-0.0028376812115311623
aF-0.0038123021367937326
aF-0.003222947008907795
aF-0.0019602535758167505
aF-0.002533200429752469
aF-0.0029394773300737143
aF-0.004703005310148001
aF-0.001146413036622107
aF-0.000804280920419842
aF-0.0007713296799920499
aF-0.00044798292219638824
aF-0.002553648082539439
aF-0.0018403681460767984
aF-0.001166907255537808
aF-0.0011677194852381945
aF-0.0014132935320958495
aF-0.0009007607586681843
aF-0.0007284745806828141
aF-0.0008498916286043823
aF-0.0006498583243228495
aF-0.00019138475181534886
aF-0.000319073413265869
aF-0.0002448141749482602
aF-0.0007753404788672924
aF-0.0010128356516361237
aF-0.002698226599022746
aF-0.005453852936625481
aF-0.005314267240464687
aF-0.004712393507361412
aF-0.0036821195390075445
aF-0.003043015953153372
aF-0.003691085148602724
aF-0.0020809676498174667
aF-0.0017044544219970703
aF-0.00019557771156542003
aF-0.0004876698658335954
aF-0.002812757855281234
aF-0.002963548293337226
aF-0.00745781697332859
aF-0.006489134859293699
aF-0.008230346255004406
aF-0.008156998082995415
aF-0.008872353471815586
aF-0.008458326570689678
aF-0.009623430669307709
aF-0.009070231579244137
aF-0.008516364730894566
aF-0.007932431995868683
aF-0.007035213988274336
aF-0.006198983173817396
aF-0.005144860129803419
aF-0.004853525664657354
aF-0.004913088865578175
aF-0.006460912991315126
aF-0.007657932583242655
aF-0.007586791180074215
aF-0.007230828516185284
aF-0.0067644487135112286
aF-0.006539619527757168
aF-0.00586315430700779
aF-0.005325303878635168
aF-0.005626075901091099
aF-0.006046765949577093
aF-0.00679387291893363
aF-0.007108818273991346
aF-0.0062757832929492
aF-0.005629300139844418
aF-0.004723844584077597
aF-0.004101350903511047
aF-0.0033925198949873447
aF-0.0029511151369661093
aF-0.0031226768624037504
aF-0.004738058429211378
aF-0.006268370430916548
aF-0.0090572414919734
aF-0.010465530678629875
aF-0.009977313689887524
aF-0.00851393397897482
aF-0.007487660273909569
aF-0.00694232014939189
aF-0.0048420485109090805
aF-0.0050621614791452885
aF-0.0011741442140191793
aF-0.000749750470276922
aF-0.0009988939855247736
aF-0.0021232219878584146
aF-0.0017906972207129002
aF-0.001790052279829979
aF-0.003514976939186454
aF-0.014561248011887074
aF-0.04299257695674896
aF-0.062258314341306686
aF-0.1268407702445984
aF-0.233221173286438
aF-0.27605798840522766
aF-0.4792632758617401
aF-0.63896244764328
aF-0.9513130187988281
aF-1.333089828491211
aF-1.9828565120697021
aF-2.91693115234375
aF-3.913266658782959
aF-5.450474262237549
aF-7.0818867683410645
aF-9.173834800720215
aF-10.117293357849121
aF-8.067023277282715
aF-6.248483657836914
aF-4.772674560546875
aF-3.4827027320861816
aF-2.5223867893218994
aF-1.9170304536819458
aF-1.4237463474273682
aF-1.0869826078414917
aF-0.7926309704780579
aF-0.5668198466300964
aF-0.3899228572845459
aF-0.2830212414264679
aF-0.17239893972873688
aF-0.11681649833917618
aF-0.07424454391002655
aF-0.05317458510398865
aF-0.04575292393565178
aF-0.046295858919620514
aF-0.052989449352025986
aF-0.05464863032102585
aF-0.06077676638960838
aF-0.05942612886428833
aF-0.057189345359802246
aF-0.05142741650342941
aF-0.04553529992699623
aF-0.039001572877168655
aF-0.030426524579524994
aF-0.023700138553977013
aF-0.017280934378504753
aF-0.014751806855201721
aF-0.01528716366738081
aF-0.018473893404006958
aF-0.016888640820980072
aF-0.01673474907875061
aF-0.015119905583560467
aF-0.012967356480658054
aF-0.01098902989178896
aF-0.009129532612860203
aF-0.008092288859188557
aF-0.007219396997243166
aF-0.006367851980030537
aF-0.00796782411634922
aF-0.009478049352765083
aF-0.01013034675270319
aF-0.009054213762283325
aF-0.00869057234376669
aF-0.0076698800548911095
aF-0.006201327778398991
aF-0.004339691251516342
aF-0.0048299976624548435
aF-0.0018933720421046019
aF-0.0007225135341286659
aF-0.0017466593999415636
aF-0.001317664165981114
aF-0.002376840217038989
aF-0.0015817545354366302
aF-0.0013338790740817785
aF-0.0014750651316717267
aF-0.0012249278370290995
aF-0.0017975828377529979
aF-0.0017817453481256962
aF-0.0020314629655331373
aF-0.0008186890045180917
aF-0.001060453592799604
aF-0.0007234661607071757
aF-0.0006856793188489974
aF-0.0006696691852994263
aF-0.00040015968261286616
aF-0.0002973671071231365
aF-0.0004797291476279497
aF-0.001173545722849667
aF-0.003129312302917242
aF-0.0018212096765637398
aF-0.0014213304966688156
aF-0.0013821955071762204
aF-0.0014778916956856847
aF-0.0008252484840340912
aF-0.0005194154800847173
aF-9.188791591441259e-05
aF-0.00043912752880714834
aF-0.0008932202472351491
aF-0.002051028423011303
aF-0.001079549896530807
aF-0.001165986992418766
aF-0.0012017755070701241
aF-0.001111547346226871
aF-0.0005894856294617057
aF-0.0005223932676017284
aF-0.0011661413591355085
aF-0.0013517694314941764
aF-0.0018876688554883003
aF-0.0023823780938982964
aF-0.002926662564277649
aF-0.002236815867945552
aF-0.002225098665803671
aF-0.002218881156295538
aF-0.001989933429285884
aF-0.001826995168812573
aF-0.0016789986984804273
aF-0.0015210197307169437
aF-0.0013112876331433654
aF-0.0014018772635608912
aF-0.0015721318777650595
aF-0.0017273068660870194
aF-0.0011144570307806134
aF-0.001019838498905301
aF-0.0010625114664435387
aF-0.0009967468213289976
aF-0.00039739214116707444
aF-0.001013249042443931
aF-0.00012826811871491373
aF-3.9923932490637526e-05
aF-0.0003690849698614329
aF-0.0009407730540260673
aF-0.0013713284861296415
aF-0.001146380789577961
aF-0.0026273420080542564
aF-0.0016498974291607738
aF-0.0017909924499690533
aF-0.0015124789206311107
aF-0.001855914480984211
aF-0.0009605395025573671
aF-0.0009153106366284192
aF-0.0007951331790536642
aF-0.0011673385743051767
aF-0.0025398731231689453
aF-0.002644411288201809
aF-0.004169964697211981
aF-0.003873986890539527
aF-0.0034609183203428984
aF-0.0029437497723847628
aF-0.00275148986838758
aF-0.0021102267783135176
aF-0.0019342442974448204
aF-0.0007205524598248303
aF-0.0002515803789719939
aF-0.0004987783613614738
aF-0.00013206554285716265
aF-9.532363037578762e-05
aF-0.00020184724417049438
aF-1.5633018847438507e-05
aF-0.000388655491406098
aF-0.0003911914536729455
aF-0.0006692083552479744
aF-0.0004592017794493586
aF-0.0006544131319969893
aF-0.00011876561620738357
aF-0.00041621355921961367
aF-0.0030232472345232964
aF-0.0029253216926008463
aF-0.003852086840197444
aF-0.003259619465097785
aF-0.010906512849032879
aF-0.024589000269770622
aF-0.047802891582250595
aF-0.08622922003269196
aF-0.15307830274105072
aF-0.21619796752929688
aF-0.3772953748703003
aF-0.5509295463562012
aF-0.8331164717674255
aF-1.222267746925354
aF-1.8032894134521484
aF-2.39340877532959
aF-3.4951677322387695
aF-4.879150390625
aF-6.46317195892334
aF-8.504982948303223
aF-10.7339506149292
aF-8.26878547668457
aF-6.262848377227783
aF-4.46208381652832
aF-3.1918866634368896
aF-2.2767693996429443
aF-1.5883301496505737
aF-1.2476228475570679
aF-0.860152542591095
aF-0.8603436946868896
aF-0.7692834138870239
aF-1.1372339725494385
aF-1.709572196006775
aF-2.340120315551758
aF-3.2794928550720215
aF-4.371774673461914
aF-5.822290897369385
aF-7.379053115844727
aF-9.372791290283203
aF-10.136286735534668
aF-8.150732040405273
aF-6.437173843383789
aF-4.967034816741943
aF-3.7083847522735596
aF-2.913892984390259
aF-2.22550630569458
aF-1.6715008020401
aF-1.2556123733520508
aF-0.9081116914749146
aF-0.656684398651123
aF-0.42996567487716675
aF-0.3117818236351013
aF-0.20177622139453888
aF-0.12682370841503143
aF-0.080143041908741
aF-0.04519502818584442
aF-0.024941233918070793
aF-0.017408624291419983
aF-0.017762675881385803
aF-0.02341347187757492
aF-0.029717791825532913
aF-0.03228175267577171
aF-0.03556821495294571
aF-0.037235327064991
aF-0.03506623953580856
aF-0.03387296199798584
aF-0.03083992749452591
aF-0.02746911719441414
aF-0.02325538732111454
aF-0.019735664129257202
aF-0.01692253164947033
aF-0.01433053519576788
aF-0.012509921565651894
aF-0.011763710528612137
aF-0.010853377170860767
aF-0.010835079476237297
aF-0.011408016085624695
aF-0.011841678991913795
aF-0.012563363648951054
aF-0.011653773486614227
aF-0.011365449987351894
aF-0.009132503531873226
aF-0.007627206854522228
aF-0.005937276873737574
aF-0.004821821581572294
aF-0.003308795625343919
aF-0.0017662332393229008
aF-0.0008550092461518943
aF-0.0009396511595696211
aF-0.0014902546536177397
aF-0.002244306728243828
aF-0.0020345966331660748
aF-0.0017795085441321135
aF-0.0017426457488909364
aF-0.0011947188759222627
aF-0.0008671319228596985
aF-0.0005473201163113117
aF-0.0005124134477227926
aF-0.0018919612048193812
aF-0.001259756158106029
aF-0.001200940809212625
aF-0.0010675336234271526
aF-0.001381069072522223
aF-0.001284743077121675
aF-0.0015818781685084105
aF-0.0028334681410342455
aF-0.0014922604896128178
aF-0.001137309242039919
aF-0.0008170530782081187
aF-0.001062652561813593
aF-0.0008981500286608934
aF-0.0017301988555118442
aF-0.005556012969464064
aF-0.003640980925410986
aF-0.004597354680299759
aF-0.002156972186639905
aF-0.0023342284839600325
aF-0.0027795392088592052
aF-0.004543174058198929
aF-0.0043857526034116745
aF-0.003591697197407484
aF-0.001407728181220591
aF-0.0012514923000708222
aF-0.0019354112446308136
aF-0.0023093908093869686
aF-0.0018241149373352528
aF-0.002238422865048051
aF-0.0013760172296315432
aF-0.00087001733481884
aF-0.0007258259574882686
aF-0.0015556220896542072
aF-0.001136884675361216
aF-0.002276316052302718
aF-0.00019572742166928947
aF-0.00010028277029050514
aF-0.0012892558006569743
aF-0.0018645292147994041
aF-0.0007054244633764029
aF-0.0006592437857761979
aF-0.0008920885738916695
aF-0.0008894213242456317
aF-0.002325571607798338
aF-0.0015352806076407433
aF-0.0009089543600566685
aF-0.0005760869244113564
aF-0.0022538856137543917
aF-0.0017633384559303522
aF-0.001475030672736466
aF-0.00020502478582784534
aF-0.0015016748802736402
aF-0.0020321377087384462
aF-0.0029786776285618544
aF-0.0014191779773682356
aF-0.0015476029366254807
aF-0.0008734709699638188
aF-0.0006494082626886666
aF-0.0005127458134666085
aF-0.00044601463014259934
aF-0.0006633014418184757
aF-0.0017054941272363067
aF-0.0016072052530944347
aF-0.003053206717595458
aF-0.003204914042726159
aF-0.0035145271103829145
aF-0.002871242118999362
aF-0.002622439991682768
aF-0.0023485145065933466
aF-0.0021718202624469995
aF-0.0013547572307288647
aF-0.0009056546841748059
aF-0.0008382356027141213
aF-0.0012404413428157568
aF-0.00140463060233742
aF-0.002074269112199545
aF-0.0022812902461737394
aF-0.0019618915393948555
aF-0.0028506172820925713
aF-0.0019491402199491858
aF-0.0020427415147423744
aF-0.0014465847052633762
aF-0.001546536572277546
aF-0.0009735203348100185
aF-0.0009184089722111821
aF-0.0012820338597521186
aF-0.004648617934435606
aF-0.0042578112334012985
aF-0.004396065603941679
aF-0.004755375906825066
aF-0.004126484505832195
aF-0.0037100366316735744
aF-0.003305799327790737
aF-0.002671993337571621
aF-0.002345121232792735
aF-0.0020332925487309694
aF-0.0028956164605915546
aF-0.0023667141795158386
aF-0.00329675804823637
aF-0.0025292038917541504
aF-0.002322079613804817
aF-0.0023136765230447054
aF-0.001527600223198533
aF-0.0010113525204360485
aF-0.0006864209426566958
aF-0.0008900685352273285
aF-0.0017523047281429172
aF-0.0027488789055496454
aF-0.003193511161953211
aF-0.002617578487843275
aF-0.0023112983908504248
aF-0.002026576781645417
aF-0.0017838048515841365
aF-0.001531008630990982
aF-0.0011983345029875636
aF-0.0012669116258621216
aF-0.003004306461662054
aF-0.0027134364936500788
aF-0.003602609969675541
aF-0.0026489405427128077
aF-0.002368748653680086
aF-0.0021193542052060366
aF-0.0018384155118837953
aF-0.0011862561805173755
aF-0.0008798043127171695
aF-0.0005161347799003124
aF-0.0006882644956931472
aF-0.0004552774771582335
aF-0.0007481839857064188
aF-0.0033528939820826054
aF-0.0036411441396921873
aF-0.0030711968429386616
aF-0.0021127487998455763
aF-0.0025196257047355175
aF-0.002808368531987071
aF-0.0039027738384902477
aF-0.0035248929634690285
aF-0.0016169489827007055
aF-0.0010936601320281625
aF-0.0009032837697304785
aF-0.0008133606752380729
aF-0.000912305957172066
aF-0.0005956222303211689
aF-0.0005870063905604184
aF-0.0013259489787742496
aF-0.0023786418605595827
aF-0.0019025122746825218
aF-0.0015575207071378827
aF-0.0013992380117997527
aF-0.0018672558944672346
aF-0.001852749614045024
aF-0.002372442977502942
aF-0.0011516790837049484
aF-0.0004482170916162431
aF-0.0004887520335614681
aF-0.00026529579190537333
aF-0.0001579609524924308
aF-0.0002752749132923782
aF-0.00020663598843384534
aF-0.00014913735503796488
aF-0.00036502646980807185
aF-9.166647214442492e-05
aF-0.00010101687803398818
aF-0.00033379055093973875
aF-0.00035288199433125556
aF-0.00013782117457594723
aF-0.0003297021903563291
aF-0.0004643731517717242
aF-0.0007462761714123189
aF-0.0019640689715743065
aF-0.0022677539382129908
aF-0.0023792602587491274
aF-0.002221058588474989
aF-0.00176188291516155
aF-0.0018091577803716063
aF-0.0014835530892014503
aF-0.0006028890493325889
aF-0.0004537230997812003
aF-0.0006896652630530298
aF-0.0012948528164997697
aF-0.0009078834555111825
aF-0.0010781638557091355
aF-0.0009263151441700757
aF-0.0008038740488700569
aF-0.0006341519765555859
aF-0.0011465579736977816
aF-0.0006482333410531282
aF-0.0006392482900992036
aF-0.0015270512085407972
aF-0.0018935370026156306
aF-0.003382996888831258
aF-0.003572768997400999
aF-0.003591644810512662
aF-0.0031977533362805843
aF-0.002985292812809348
aF-0.0026182897854596376
aF-0.0025857267901301384
aF-0.002225162461400032
aF-0.0023168425541371107
aF-0.004816096276044846
aF-0.006455917377024889
aF-0.008616560138761997
aF-0.012675106525421143
aF-0.011815343983471394
aF-0.011624117381870747
aF-0.010477244853973389
aF-0.009278001263737679
aF-0.008133778348565102
aF-0.007322090212255716
aF-0.0070362389087677
aF-0.0066870409063994884
aF-0.007465321104973555
aF-0.008380049839615822
aF-0.006787353660911322
aF-0.006390269845724106
aF-0.005632271524518728
aF-0.004462460055947304
aF-0.003365184413269162
aF-0.0030792830511927605
aF-0.001790784765034914
aF-0.0016730487113818526
aF-0.003239137353375554
aF-0.00551256537437439
aF-0.008185028098523617
aF-0.0077055757865309715
aF-0.007364172954112291
aF-0.007287518121302128
aF-0.006047402508556843
aF-0.005139671266078949
aF-0.004338738974183798
aF-0.003577952738851309
aF-0.002947943052276969
aF-0.0027297756168991327
aF-0.0026295643765479326
aF-0.0031193674076348543
aF-0.0033695660531520844
aF-0.004935462027788162
aF-0.0047515397891402245
aF-0.005314991343766451
aF-0.0047372072003781796
aF-0.004091762937605381
aF-0.003413172671571374
aF-0.0025545014068484306
aF-0.0019019651226699352
aF-0.0010237558744847775
aF-0.0009874376701191068
aF-0.002045023487880826
aF-0.0017717587761580944
aF-0.002766114892438054
aF-0.003246039617806673
aF-0.0025740901473909616
aF-0.0025955212768167257
aF-0.0023211564403027296
aF-0.002069806447252631
aF-0.0015867659822106361
aF-0.0017215003026649356
aF-0.0014227558858692646
aF-0.0014714504359290004
aF-0.0013423183700069785
aF-0.0012068916112184525
aF-0.0010869273683056235
aF-0.001135609345510602
aF-0.0009934466797858477
aF-0.0010117099154740572
aF-0.0010246295714750886
aF-0.0011799115454778075
aF-0.0011577857658267021
aF-0.0013872665585950017
aF-0.0019034772412851453
aF-0.0007418253226205707
aF-0.0012110971147194505
aF-0.00035712699173018336
aF-0.00046177144395187497
aF-0.0010483467485755682
aF-0.0013948665000498295
aF-0.0012869229540228844
aF-0.0023217247799038887
aF-0.0020574363879859447
aF-0.002458771225064993
aF-0.002784797688946128
aF-0.002667268505319953
aF-0.0023816698230803013
aF-0.0021061557345092297
aF-0.0015571631956845522
aF-0.0013484524097293615
aF-0.0008087924215942621
aF-0.0006853269878774881
aF-0.0006318674422800541
aF-0.0008901302935555577
aF-0.0017472092295065522
aF-0.0018342972034588456
aF-0.0018083015456795692
aF-0.0021429797634482384
aF-0.0017114704241976142
aF-0.0015126216458156705
aF-0.0015132174594327807
aF-0.0010165574494749308
aF-0.0009451069636270404
aF-0.0012064998736605048
aF-0.0018040159484371543
aF-0.0026933744084089994
aF-0.004312533885240555
aF-0.00524585647508502
aF-0.006082372274249792
aF-0.005222479812800884
aF-0.004617102909833193
aF-0.004210086073726416
aF-0.004220342729240656
aF-0.0035944036208093166
aF-0.0027611483819782734
aF-0.0012244479730725288
aF-0.0006810079212300479
aF-0.0019970955327153206
aF-0.006568742450326681
aF-0.016117895022034645
aF-0.016198908910155296
aF-0.017849240452051163
aF-0.013849918730556965
aF-0.012487187050282955
aF-0.011066673323512077
aF-0.009091815911233425
aF-0.006444570142775774
aF-0.005320017691701651
aF-0.0030052419751882553
aF-0.002052135532721877
aF-0.0030101637821644545
aF-0.004710834939032793
aF-0.008694648742675781
aF-0.008179966360330582
aF-0.010211572051048279
aF-0.010343668982386589
aF-0.010424695909023285
aF-0.009869837202131748
aF-0.009142972528934479
aF-0.008133400231599808
aF-0.0065486193634569645
aF-0.005613992922008038
aF-0.004444945137947798
aF-0.004355264827609062
aF-0.004444260615855455
aF-0.00561876455321908
aF-0.0068346005864441395
aF-0.008417947217822075
aF-0.0091965701431036
aF-0.010111327283084393
aF-0.009204690344631672
aF-0.00819739606231451
aF-0.007291093003004789
aF-0.0054570334032177925
aF-0.0041271294467151165
aF-0.002611049683764577
aF-0.0016776247648522258
aF-0.0015646450920030475
aF-0.002027865033596754
aF-0.0032399045303463936
aF-0.002649927046149969
aF-0.0029767383821308613
aF-0.002936284290626645
aF-0.0026524460408836603
aF-0.002562867011874914
aF-0.0031180146615952253
aF-0.004568504169583321
aF-0.00545829301699996
aF-0.007069631014019251
aF-0.005875355564057827
aF-0.0056024352088570595
aF-0.00489223375916481
aF-0.004232927691191435
aF-0.00304790074005723
aF-0.002048496389761567
aF-0.001922250841744244
aF-0.0016694478690624237
aF-0.0022091628052294254
aF-0.0017709904350340366
aF-0.001759698847308755
aF-0.0016701403073966503
aF-0.0016786186024546623
aF-0.0015170983970165253
aF-0.0014295914443209767
aF-0.001993113197386265
aF-0.002676377771422267
aF-0.003046484664082527
aF-0.0025862709153443575
aF-0.0027122057508677244
aF-0.002517606597393751
aF-0.002436138689517975
aF-0.002565158298239112
a.