(lp0
F-5.206366040511057e-07
aF-10.792863845825195
aF-9.791281700134277
aF-9.81054973602295
aF-9.850221633911133
aF-9.830964088439941
aF-9.791152000427246
aF-9.77122974395752
aF-9.75159740447998
aF-9.731987953186035
aF-9.731940269470215
aF-9.73189926147461
aF-9.751945495605469
aF-9.771367073059082
aF-9.791363716125488
aF-9.83209228515625
aF-9.833157539367676
aF-9.717209815979004
aF-9.52963924407959
aF-9.317819595336914
aF-9.043729782104492
aF-8.73169994354248
aF-8.374429702758789
aF-7.975406169891357
aF-7.560155391693115
aF-7.141175270080566
aF-6.717650890350342
aF-6.324943542480469
aF-5.921543598175049
aF-5.590934753417969
aF-5.277932643890381
aF-4.997934818267822
aF-4.788076877593994
aF-4.620787620544434
aF-4.528825759887695
aF-4.474915981292725
aF-4.473859786987305
aF-4.539157390594482
aF-4.665480136871338
aF-4.851414203643799
aF-5.170584201812744
aF-5.627862930297852
aF-6.2818732261657715
aF-6.9515700340271
aF-7.870151996612549
aF-8.847429275512695
aF-9.852031707763672
aF-9.345074653625488
aF-8.268514633178711
aF-7.216733932495117
aF-6.273073673248291
aF-5.392741680145264
aF-4.613173007965088
aF-3.952150583267212
aF-3.3486623764038086
aF-2.876070976257324
aF-2.488138198852539
aF-2.1858229637145996
aF-1.9538819789886475
aF-1.7878079414367676
aF-1.6696388721466064
aF-1.5965955257415771
aF-1.567723035812378
aF-1.5834962129592896
aF-1.632259726524353
aF-1.7309035062789917
aF-1.8775733709335327
aF-2.064650297164917
aF-2.343860387802124
aF-2.664252281188965
aF-3.1414237022399902
aF-3.5734519958496094
aF-4.402952671051025
aF-5.100375175476074
aF-6.351940155029297
aF-7.713196754455566
aF-9.336668014526367
aF-10.129639625549316
aF-8.646255493164062
aF-7.171514511108398
aF-5.944626808166504
aF-4.8309173583984375
aF-3.843006134033203
aF-3.027872323989868
aF-2.397611618041992
aF-1.778210997581482
aF-1.4200528860092163
aF-1.0425772666931152
aF-0.7891185283660889
aF-0.5671297311782837
aF-0.3965853750705719
aF-0.2816036343574524
aF-0.19193021953105927
aF-0.12146209180355072
aF-0.0731000304222107
aF-0.04881725832819939
aF-0.04147664085030556
aF-0.046206455677747726
aF-0.05568045377731323
aF-0.06176744028925896
aF-0.0698491558432579
aF-0.07398975640535355
aF-0.08124576508998871
aF-0.08191066980361938
aF-0.0834360346198082
aF-0.07924208790063858
aF-0.07452094554901123
aF-0.06834112107753754
aF-0.06483349949121475
aF-0.059376735240221024
aF-0.054474156349897385
aF-0.04981520399451256
aF-0.04382052272558212
aF-0.037611592561006546
aF-0.035071101039648056
aF-0.03743378818035126
aF-0.03863576799631119
aF-0.04408806934952736
aF-0.046999260783195496
aF-0.04670896753668785
aF-0.04669506847858429
aF-0.04288708418607712
aF-0.03894539549946785
aF-0.034656886011362076
aF-0.03086475469172001
aF-0.028148885816335678
aF-0.026859229430556297
aF-0.027676235884428024
aF-0.029819270595908165
aF-0.029592474922537804
aF-0.031220151111483574
aF-0.029048068448901176
aF-0.02695489674806595
aF-0.02392914891242981
aF-0.020557653158903122
aF-0.01742294244468212
aF-0.015285768546164036
aF-0.012225071899592876
aF-0.011538365855813026
aF-0.012560871429741383
aF-0.014686895534396172
aF-0.0176397655159235
aF-0.01867537386715412
aF-0.01919718272984028
aF-0.01915377750992775
aF-0.01664206199347973
aF-0.014407615177333355
aF-0.012202499434351921
aF-0.00971758272498846
aF-0.00861728098243475
aF-0.008919422514736652
aF-0.00905865803360939
aF-0.010032999329268932
aF-0.010389468632638454
aF-0.009594348259270191
aF-0.009506011381745338
aF-0.00913694966584444
aF-0.008886613883078098
aF-0.009731733240187168
aF-0.009495548903942108
aF-0.010652446188032627
aF-0.01250334084033966
aF-0.01254033762961626
aF-0.013555919751524925
aF-0.013082070276141167
aF-0.01225625816732645
aF-0.011120111681520939
aF-0.009865895844995975
aF-0.009190469048917294
aF-0.009170166216790676
aF-0.010706889443099499
aF-0.010565673932433128
aF-0.010588059201836586
aF-0.00927470438182354
aF-0.008163702674210072
aF-0.007072882726788521
aF-0.013366471976041794
aF-0.040730081498622894
aF-0.08105673640966415
aF-0.13363254070281982
aF-0.2175128161907196
aF-0.3550460934638977
aF-0.5425409078598022
aF-0.6752885580062866
aF-0.877056360244751
aF-1.1153367757797241
aF-1.4828906059265137
aF-1.9063704013824463
aF-2.3458595275878906
aF-3.101898193359375
aF-3.693101644515991
aF-4.889756202697754
aF-5.885204315185547
aF-7.308211326599121
aF-8.80833625793457
aF-10.626094818115234
aF-8.814569473266602
aF-7.165472984313965
aF-5.797174453735352
aF-4.601122856140137
aF-3.5324954986572266
aF-2.7341089248657227
aF-2.024930238723755
aF-1.4814140796661377
aF-1.0733062028884888
aF-0.7750930786132812
aF-0.5168846845626831
aF-0.36084625124931335
aF-0.21619832515716553
aF-0.1524103730916977
aF-0.0786312147974968
aF-0.059343717992305756
aF-0.04297767952084541
aF-0.03557446226477623
aF-0.04028653725981712
aF-0.03931049257516861
aF-0.042054034769535065
aF-0.04319668561220169
aF-0.042304627597332
aF-0.04098553955554962
aF-0.038995757699012756
aF-0.03787209466099739
aF-0.03473641723394394
aF-0.032538458704948425
aF-0.030838916078209877
aF-0.029578551650047302
aF-0.02923402562737465
aF-0.02963866852223873
aF-0.02795424312353134
aF-0.027080673724412918
aF-0.025913765653967857
aF-0.024898994714021683
aF-0.02528267726302147
aF-0.024843495339155197
aF-0.026808081194758415
aF-0.025865914300084114
aF-0.029718533158302307
aF-0.025761747732758522
aF-0.026180997490882874
aF-0.023579005151987076
aF-0.021738465875387192
aF-0.02008941024541855
aF-0.019317056983709335
aF-0.02008667401969433
aF-0.021176276728510857
aF-0.02116847038269043
aF-0.02153664082288742
aF-0.02035585790872574
aF-0.01865416020154953
aF-0.01755034551024437
aF-0.016216062009334564
aF-0.015200271271169186
aF-0.014510000124573708
aF-0.015331593342125416
aF-0.01675722748041153
aF-0.020312797278165817
aF-0.038479890674352646
aF-0.06606802344322205
aF-0.10870001465082169
aF-0.18144652247428894
aF-0.289851576089859
aF-0.42330172657966614
aF-0.6132345795631409
aF-0.9337463974952698
aF-1.385427713394165
aF-1.9032129049301147
aF-2.8303873538970947
aF-3.9568209648132324
aF-5.173608303070068
aF-7.06640100479126
aF-9.012836456298828
aF-10.269612312316895
aF-7.983748912811279
aF-6.133993625640869
aF-4.7341508865356445
aF-3.5993616580963135
aF-2.471834659576416
aF-1.7850022315979004
aF-1.2639696598052979
aF-0.806275486946106
aF-0.5872542858123779
aF-0.3962332606315613
aF-0.3088566064834595
aF-0.26577094197273254
aF-0.34726592898368835
aF-0.47448477149009705
aF-0.6302688121795654
aF-0.801365852355957
aF-1.1407577991485596
aF-1.514704942703247
aF-1.983947992324829
aF-2.5693747997283936
aF-3.2727556228637695
aF-4.141388893127441
aF-5.181617259979248
aF-6.567663192749023
aF-7.88841438293457
aF-9.80042839050293
aF-9.76009464263916
aF-7.985093593597412
aF-6.5093183517456055
aF-5.1415252685546875
aF-4.0165510177612305
aF-3.079549789428711
aF-2.3229944705963135
aF-1.6325987577438354
aF-1.2135741710662842
aF-0.8664807677268982
aF-0.5316859483718872
aF-0.36424699425697327
aF-0.2696475386619568
aF-0.18180516362190247
aF-0.12008456140756607
aF-0.12743766605854034
aF-0.11008583009243011
aF-0.1451319009065628
aF-0.17052140831947327
aF-0.218550905585289
aF-0.26474428176879883
aF-0.3253139853477478
aF-0.3790227174758911
aF-0.4372005760669708
aF-0.5115285515785217
aF-0.5967592000961304
aF-0.7023137807846069
aF-0.8364875912666321
aF-0.9694303274154663
aF-1.1694825887680054
aF-1.3858532905578613
aF-1.6779922246932983
aF-2.0580506324768066
aF-2.4468047618865967
aF-2.9516842365264893
aF-3.6720755100250244
aF-4.362345218658447
aF-5.420772075653076
aF-6.492354869842529
aF-8.041569709777832
aF-9.685920715332031
aF-9.752205848693848
aF-8.11108684539795
aF-6.724796772003174
aF-5.452940464019775
aF-4.334547519683838
aF-3.457265615463257
aF-2.6296792030334473
aF-2.0356051921844482
aF-1.5011231899261475
aF-1.1138254404067993
aF-0.8109558820724487
aF-0.5783660411834717
aF-0.40697747468948364
aF-0.27855557203292847
aF-0.1785203218460083
aF-0.10648603737354279
aF-0.06495767086744308
aF-0.03677380830049515
aF-0.023305241018533707
aF-0.019892841577529907
aF-0.02080637961626053
aF-0.024802396073937416
aF-0.03000655770301819
aF-0.029449425637722015
aF-0.02870175987482071
aF-0.025557568296790123
aF-0.02232486940920353
aF-0.01892811618745327
aF-0.01418833713978529
aF-0.009706101380288601
aF-0.0056730336509644985
aF-0.004453975707292557
aF-0.005182923283427954
aF-0.008304922841489315
aF-0.008556394837796688
aF-0.009628847241401672
aF-0.009162195026874542
aF-0.009575431235134602
aF-0.009911122731864452
aF-0.008742128498852253
aF-0.007552788592875004
aF-0.006344352383166552
aF-0.00487128458917141
aF-0.0034037388395518064
aF-0.002032436430454254
aF-0.0014450305607169867
aF-0.0013654177309945226
aF-0.0024104088079184294
aF-0.0012489475775510073
aF-0.0010925527894869447
aF-0.0014499388635158539
aF-0.003015665104612708
aF-0.0020456910133361816
aF-0.0032544652931392193
aF-0.009261996485292912
aF-0.0270541962236166
aF-0.05407487601041794
aF-0.10387447476387024
aF-0.16164471209049225
aF-0.24430646002292633
aF-0.3539797067642212
aF-0.5326935648918152
aF-0.801325261592865
aF-1.188132882118225
aF-1.7159899473190308
aF-2.6265387535095215
aF-3.428189992904663
aF-4.740057945251465
aF-6.448495864868164
aF-8.265798568725586
aF-10.714336395263672
aF-8.37073802947998
aF-6.29174280166626
aF-4.369226932525635
aF-3.2208783626556396
aF-2.4114058017730713
aF-1.693092942237854
aF-1.2413309812545776
aF-0.7209920287132263
aF-0.7751013040542603
aF-0.6376027464866638
aF-1.0903509855270386
aF-1.4843944311141968
aF-2.0743913650512695
aF-2.757685661315918
aF-3.8143506050109863
aF-5.089039325714111
aF-6.539057731628418
aF-8.367831230163574
aF-10.403343200683594
aF-9.06853199005127
aF-7.256841659545898
aF-5.68228006362915
aF-4.373749732971191
aF-3.361889600753784
aF-2.6102774143218994
aF-1.8394488096237183
aF-1.3965280055999756
aF-0.9931552410125732
aF-0.705601155757904
aF-0.4774405062198639
aF-0.31788188219070435
aF-0.214793860912323
aF-0.1334613859653473
aF-0.0774923712015152
aF-0.04286319017410278
aF-0.028172103688120842
aF-0.01860668696463108
aF-0.0141511932015419
aF-0.01519028376787901
aF-0.014899767003953457
aF-0.011729157529771328
aF-0.010360999032855034
aF-0.009408910758793354
aF-0.00742066465318203
aF-0.005105170421302319
aF-0.0022886209189891815
aF-0.001477629877626896
aF-0.0025373888202011585
aF-0.0037675132043659687
aF-0.008046355098485947
aF-0.009068665094673634
aF-0.013117175549268723
aF-0.013064702041447163
aF-0.014943409711122513
aF-0.012355713173747063
aF-0.010923320427536964
aF-0.009505869820713997
aF-0.008560581132769585
aF-0.004810579586774111
aF-0.0030190329998731613
aF-0.0032011684961616993
aF-0.004191312938928604
aF-0.007254290860146284
aF-0.0065227653831243515
aF-0.00634927349165082
aF-0.005810079164803028
aF-0.004777505993843079
aF-0.004028751980513334
aF-0.0037885468918830156
aF-0.0028429797384887934
aF-0.0015769166639074683
aF-0.0010510158026590943
aF-0.0015705673722550273
aF-0.004276222083717585
aF-0.0050834049470722675
aF-0.007729826960712671
aF-0.008238396607339382
aF-0.008319531567394733
aF-0.008099445141851902
aF-0.007532482035458088
aF-0.006573622114956379
aF-0.00594361312687397
aF-0.004310559947043657
aF-0.0035712295211851597
aF-0.00320425839163363
aF-0.004357950296252966
aF-0.004555585794150829
aF-0.005978647619485855
aF-0.007862872444093227
aF-0.0078056021593511105
aF-0.009139004163444042
aF-0.007916286587715149
aF-0.007066040299832821
aF-0.006041968706995249
aF-0.005110401660203934
aF-0.0034239839296787977
aF-0.0025909608229994774
aF-0.001885590492747724
aF-0.0016703372821211815
aF-0.001717649633064866
aF-0.0036905119195580482
aF-0.0035861171782016754
aF-0.006424263585358858
aF-0.004518105648458004
aF-0.004439000505954027
aF-0.003951039630919695
aF-0.0036951187066733837
aF-0.0030479051638394594
aF-0.0022103029768913984
aF-0.001221371814608574
aF-0.003304535523056984
aF-0.008516094647347927
aF-0.008931854739785194
aF-0.01179849449545145
aF-0.011645413003861904
aF-0.010865291580557823
aF-0.01067667081952095
aF-0.009187900461256504
aF-0.00775269465520978
aF-0.006546294782310724
aF-0.005319283343851566
aF-0.005049885716289282
aF-0.004557691514492035
aF-0.005288439337164164
aF-0.005331771913915873
aF-0.005855956114828587
aF-0.0067427922040224075
aF-0.0086030513048172
aF-0.009416535496711731
aF-0.011006348766386509
aF-0.008391103707253933
aF-0.007560391444712877
aF-0.007217707112431526
aF-0.0051350099965929985
aF-0.0028019798919558525
aF-0.00258074002340436
aF-0.0012316781794652343
aF-0.0012831013882532716
aF-0.0032866818364709616
aF-0.004837834741920233
aF-0.006073430180549622
aF-0.0055078468285501
aF-0.004485494922846556
aF-0.003694935468956828
aF-0.005496879108250141
aF-0.004895283840596676
aF-0.0036833130288869143
aF-0.0012955765705555677
aF-0.0010705870809033513
aF-0.0004877959727309644
aF-0.0005367306293919683
aF-0.0009203527006320655
aF-0.00038927581044845283
aF-0.0008937136735767126
aF-0.0007570369052700698
aF-0.001258378499187529
aF-0.0012210774002596736
aF-0.0007361905300058424
aF-0.0006655643228441477
aF-0.0012876457767561078
aF-0.002169196028262377
aF-0.0011215911945328116
aF-0.0005965158343315125
aF-0.00020598110859282315
aF-0.00093767826911062
aF-0.0016597907524555922
aF-0.0017126958118751645
aF-0.0013784441398456693
aF-0.0009001139551401138
aF-0.0007366431527771056
aF-0.0007198399398475885
aF-0.0006609579431824386
aF-0.0004028029215987772
aF-0.00016736853285692632
aF-0.00022648723097518086
aF-0.00015059746510814875
aF-0.00017948515596799552
aF-0.00019188942678738385
aF-0.00013040777412243187
aF-9.206412505591288e-05
aF-0.00020885544654447585
aF-0.00010893234866671264
aF-0.00030739401699975133
aF-0.0002368804853176698
aF-0.00034819418215192854
aF-0.0004889507545158267
aF-0.0005863740807399154
aF-0.0007325762417167425
aF-0.00143648951780051
aF-0.0018026576144620776
aF-0.003611107589676976
aF-0.004303069319576025
aF-0.005187396425753832
aF-0.006959894672036171
aF-0.006760381627827883
aF-0.006774278823286295
aF-0.005657906644046307
aF-0.004809390753507614
aF-0.0051767220720648766
aF-0.004937417805194855
aF-0.003057406283915043
aF-0.0016172846080735326
aF-0.00025074524455703795
aF-0.0023901192471385
aF-0.00868401862680912
aF-0.014370025135576725
aF-0.015603980980813503
aF-0.014164718799293041
aF-0.011956563219428062
aF-0.010599709115922451
aF-0.010444684885442257
aF-0.007890389300882816
aF-0.009170535020530224
aF-0.0024481352884322405
aF-0.001240181620232761
aF-9.192716970574111e-05
aF-0.0009017120464704931
aF-0.0021248124539852142
aF-0.0030588083900511265
aF-0.002377165015786886
aF-0.0020204270258545876
aF-0.0016683641588315368
aF-0.0020950862672179937
aF-0.0019212019396945834
aF-0.001363898511044681
aF-0.0004899624618701637
aF-1.2781504665326793e-05
aF-0.00046582098002545536
aF-0.0007940797950141132
aF-0.0025099278427660465
aF-0.002371213398873806
aF-0.0021579228341579437
aF-0.001720924163237214
aF-0.0015571003314107656
aF-0.001623813295736909
aF-0.0015407985774800181
aF-0.0006628994015045464
aF-0.00028955377638339996
aF-0.0013587821740657091
aF-0.0028915219008922577
aF-0.00225962046533823
aF-0.003149301977828145
aF-0.0031302582938224077
aF-0.002944305306300521
aF-0.0029961608815938234
aF-0.0029206271283328533
aF-0.002327804220840335
aF-0.0020902608521282673
aF-0.0017586997710168362
aF-0.0015152250416576862
aF-0.0012923883041366935
aF-0.0011995910899713635
aF-0.001241041929461062
aF-0.0012248512357473373
aF-0.0015545375645160675
aF-0.002602378372102976
aF-0.003164813853800297
aF-0.004561818670481443
aF-0.0036946639884263277
aF-0.004345279186964035
aF-0.0035700330045074224
aF-0.003220757469534874
aF-0.0026419111527502537
aF-0.001729133422486484
aF-0.0015052506932988763
aF-0.0007216615485958755
aF-0.0003661278751678765
aF-0.0006886107730679214
aF-0.0007796771242283285
aF-0.000897796533536166
aF-0.0013616541400551796
aF-0.0009870382491499186
aF-0.0010179700329899788
aF-0.000903982378076762
aF-0.0011091853957623243
aF-0.0011498428648337722
aF-0.0008350002462975681
aF-0.0014256557915359735
aF-0.0017393153393641114
aF-0.0009941880125552416
aF-0.001555870403535664
aF-0.0018861014395952225
aF-0.0015245195245370269
aF-0.0008536899113096297
aF-0.00019722589058801532
aF-0.00026228843489661813
aF-0.0005489440518431365
aF-0.000377975549781695
aF-1.1181103218405042e-05
aF-1.554103073431179e-05
aF-1.1303302926535252e-05
aF-2.022643639065791e-05
aF-0.0004157697840128094
aF-0.0005003625410608947
aF-3.129126343992539e-05
aF-0.0002543313894420862
aF-0.0015726707642897964
aF-0.001241616322658956
aF-0.0027333456091582775
aF-0.0019113861490041018
aF-0.002216573338955641
aF-0.001675696694292128
aF-0.0015329908346757293
aF-0.0014444454573094845
aF-0.0010171434842050076
aF-0.0008109554764814675
aF-0.0007362792966887355
aF-0.0007724337046965957
aF-0.0006649447605013847
aF-0.00013035524170845747
aF-0.00035911452141590416
aF-0.0005489151226356626
aF-0.0010802438482642174
aF-0.0005887278239242733
aF-0.0003615797613747418
aF-0.00034077189047820866
aF-0.0005825798725709319
aF-0.0013125455006957054
aF-0.0004020219494123012
aF-6.531786493724212e-05
aF-0.0007494130404666066
aF-0.00012976389552932233
aF-0.0001007196624414064
aF-3.8962389226071537e-05
aF-0.0003266791463829577
aF-0.00036154300323687494
aF-0.0005397748318500817
aF-0.0001725987676763907
aF-1.091748163162265e-05
aF-0.0005254543502815068
aF-0.0007414920837618411
aF-0.000598616898059845
aF-8.94482946023345e-05
aF-0.0005578608834184706
aF-0.0012245896505191922
aF-0.0011194399558007717
aF-0.0008465333958156407
aF-0.000834115722682327
aF-0.000900647952221334
aF-0.0006328431190922856
aF-0.0005830868030898273
aF-0.0006286593270488083
aF-0.00033759113284759223
aF-0.00041657648398540914
aF-0.00022679379617329687
aF-0.00012684983084909618
aF-3.9719936467008665e-05
aF-0.00010218205716228113
aF-4.289665957912803e-05
aF-5.4065581934992224e-05
aF-0.00010904367081820965
aF-0.0002743779623415321
aF-0.0007281990838237107
aF-0.001022782758809626
aF-0.0005236954311840236
aF-0.0006778654060326517
aF-0.000480499817058444
aF-0.00040617704507894814
aF-0.0005545413005165756
aF-0.0004425774095579982
aF-0.0001822180929593742
aF-0.00020780856721103191
aF-0.0001431267592124641
aF-0.0002667458902578801
aF-0.0005264646024443209
aF-0.00033699514460749924
aF-0.00030898695695213974
aF-0.0017607677727937698
aF-0.0026394007727503777
aF-0.0009106675861403346
aF-0.0008185281185433269
aF-0.0012399826664477587
aF-0.0016468656249344349
aF-0.0004191513580735773
aF-0.0002817890199366957
aF-0.0002453202032484114
aF-0.0001754039985826239
aF-0.0006637278711423278
aF-0.0001679694833001122
aF-0.00020173515076749027
aF-0.0002625224587973207
aF-0.0002250382531201467
aF-0.00019693523063324392
aF-0.00038290550583042204
aF-0.0004727245541289449
aF-0.0010480651399120688
aF-0.0012245847610756755
aF-0.0014821408549323678
aF-0.0011788808042183518
aF-0.0010728175984695554
aF-0.0010133108589798212
aF-0.0011115013621747494
aF-0.0022248090244829655
aF-0.002453000983223319
aF-0.0016801642486825585
aF-0.00042490928899496794
aF-0.0005344362580217421
aF-0.0016241351841017604
aF-0.001933560473844409
aF-0.0007206854643300176
aF-0.0013624331913888454
aF-0.0009945203782990575
aF-0.0008342841756530106
aF-0.0007994525949470699
aF-0.0008821157971397042
aF-0.00044896776671521366
aF-0.00038657276309095323
aF-0.00042029176256619394
aF-0.00031187792774289846
aF-0.0008616378181613982
aF-0.0004763541801366955
aF-0.00043090686085633934
aF-0.0004560100205708295
aF-0.0013900022022426128
aF-0.0017293855780735612
aF-0.0016017036978155375
aF-0.0009954649722203612
aF-0.0007961380761116743
aF-0.0006418837583623827
aF-0.0007753783138468862
aF-0.00026000067009590566
aF-0.0007900332566350698
aF-0.00014690330135636032
aF-9.173967555398121e-05
aF-0.0006675696931779385
aF-0.001222971361130476
aF-0.00075365329394117
aF-0.0009674030006863177
aF-0.000799494911916554
aF-0.0008128921035677195
aF-0.0006357527454383671
aF-0.0009032589732669294
aF-0.0014620342990383506
aF-0.0015225607203319669
aF-0.0022709593176841736
aF-0.0017388127744197845
aF-0.0015584647189825773
aF-0.0012103428598493338
aF-0.0008607692434452474
aF-0.0006641731015406549
aF-0.0005910702748224139
aF-0.0002486058510839939
aF-0.00018044369062408805
aF-9.892731031868607e-05
aF-0.00013552649761550128
aF-6.98075455147773e-05
aF-0.00010088134149555117
aF-0.00014391994045581669
aF-8.67288836161606e-05
aF-0.00020290470274630934
aF-0.00023342001077253371
aF-1.9572229575715028e-05
aF-0.0002794379834085703
aF-0.00015705559053458273
aF-0.0001948647404788062
aF-4.9650352593744174e-05
aF-0.00026747622177936137
aF-9.35655043576844e-05
aF-0.00028209449374116957
aF-0.0007612740155309439
aF-0.0003612916625570506
aF-0.0002531775098759681
aF-0.0006400264101102948
aF-4.429265027283691e-05
aF-0.0003241920785512775
aF-3.307958468212746e-05
aF-0.0006462259334512055
aF-0.0014898421941325068
aF-0.001037043984979391
aF-0.002587453927844763
aF-0.0007295831455849111
aF-0.0006780906114727259
aF-0.0007182562840171158
aF-0.0013046625535935163
aF-0.00039858571835793555
aF-0.0004510427825152874
aF-0.0002552987134549767
aF-0.0002085053565679118
aF-0.00012246062397025526
aF-0.0002950603375211358
aF-0.0001826588559197262
aF-8.11653038113036e-08
aF-0.00014296361769083887
aF-0.00021349194867070764
aF-0.00017690328240860254
aF-0.000427653721999377
aF-0.00010230101179331541
aF-0.0001405312359565869
aF-0.00027787371072918177
aF-0.00020564213627949357
aF-0.0002334493474336341
aF-0.0006972281844355166
aF-0.00010903646034421399
aF-0.00044258078560233116
aF-0.0008930826443247497
aF-0.0011081896955147386
aF-0.002092302544042468
aF-0.0020858366042375565
aF-0.0031406607013195753
aF-0.0016710303025320172
aF-0.0017112272325903177
aF-0.0014227133942767978
aF-0.0022079269401729107
aF-0.0004489801649469882
aF-0.0011197928106412292
aF-0.001924051670357585
aF-0.004118707031011581
aF-0.003210127353668213
aF-0.00323299877345562
aF-0.00309788272716105
aF-0.0026512460317462683
aF-0.002205241471529007
aF-0.001911817817017436
aF-0.0009944753255695105
aF-0.0012264662655070424
aF-0.0008625308983027935
aF-0.0015079544391483068
aF-0.00290318438783288
aF-0.004442697856575251
aF-0.004321431741118431
aF-0.004543354734778404
aF-0.0032811418641358614
aF-0.0027501226868480444
aF-0.004308349918574095
aF-0.004834478255361319
aF-0.0032619915436953306
aF-0.0034482672344893217
aF-0.001629890175536275
aF-0.0012750105233862996
aF-0.0012808501487597823
aF-0.001437005470506847
aF-0.0006964243948459625
aF-0.0005060436087660491
aF-0.0010180099634453654
aF-0.0030871466733515263
aF-0.0013227487215772271
aF-0.0017249493394047022
aF-0.000808334385510534
aF-0.0008046773145906627
aF-0.0007710705394856632
aF-0.0004782906034961343
aF-0.00010051725985249504
aF-1.360985424980754e-05
aF-0.0007373749976977706
aF-0.0004127616120968014
aF-0.00045160987065173686
aF-0.0004585485439747572
aF-0.0007464359514415264
aF-0.0004720498400274664
aF-0.00011585470929276198
aF-0.0005414487677626312
aF-0.001475103315897286
aF-0.0026458140928298235
aF-0.0010776205454021692
aF-0.001009176135994494
aF-0.0015297054778784513
aF-0.0007457730243913829
aF-0.0010292241349816322
aF-0.00018457777332514524
aF-0.0006684036925435066
aF-0.0012742193648591638
aF-0.002702245721593499
aF-0.006636712700128555
aF-0.008825747296214104
aF-0.010761379264295101
aF-0.010554773733019829
aF-0.00957564078271389
aF-0.009162546135485172
aF-0.008100730367004871
aF-0.007000559475272894
aF-0.005584998521953821
aF-0.00489339604973793
aF-0.004900169093161821
aF-0.005325295031070709
aF-0.007051376160234213
aF-0.00825788825750351
aF-0.009355081245303154
aF-0.010443324223160744
aF-0.009642263874411583
aF-0.009358780458569527
aF-0.008372796699404716
aF-0.006509574130177498
aF-0.00539645878598094
aF-0.004119406454265118
aF-0.00401665223762393
aF-0.007020964752882719
aF-0.0061271823942661285
aF-0.0066640740260481834
aF-0.007164741866290569
aF-0.0061162919737398624
aF-0.004968022461980581
aF-10.268705368041992
aF-8.593236923217773
aF-7.87960147857666
aF-7.393263816833496
aF-6.985568046569824
aF-6.606184482574463
aF-6.242220401763916
aF-5.921955108642578
aF-5.644381999969482
aF-5.388407230377197
aF-5.216794490814209
aF-5.047913074493408
aF-4.967519283294678
aF-4.9366044998168945
aF-4.935990333557129
aF-4.990733623504639
aF-5.0924506187438965
aF-5.2397871017456055
aF-5.540035724639893
aF-5.938758850097656
aF-6.429725646972656
aF-7.632187366485596
aF-7.73934268951416
aF-8.791969299316406
aF-9.891117095947266
aF-9.353347778320312
aF-8.369006156921387
aF-7.4120917320251465
aF-6.494358062744141
aF-5.648754119873047
aF-4.888404369354248
aF-4.235187530517578
aF-3.6497364044189453
aF-3.174921751022339
aF-2.7960116863250732
aF-2.48390793800354
aF-2.2321348190307617
aF-2.0438804626464844
aF-1.9059596061706543
aF-1.8262090682983398
aF-1.7958694696426392
aF-1.8113744258880615
aF-1.8760137557983398
aF-1.9781851768493652
aF-2.1575207710266113
aF-2.3385870456695557
aF-2.648210048675537
aF-2.9541916847229004
aF-3.409944534301758
aF-4.022446155548096
aF-4.834499359130859
aF-5.953562259674072
aF-6.990799903869629
aF-8.601757049560547
aF-9.974206924438477
aF-9.341277122497559
aF-7.842426776885986
aF-6.509799003601074
aF-5.295934677124023
aF-4.253940105438232
aF-3.4327216148376465
aF-2.7118475437164307
aF-2.085775852203369
aF-1.6414462327957153
aF-1.2458809614181519
aF-0.9417975544929504
aF-0.7282412648200989
aF-0.5464834570884705
aF-0.4120897650718689
aF-0.3006802499294281
aF-0.22837719321250916
aF-0.1805528849363327
aF-0.1555022895336151
aF-0.14426051080226898
aF-0.14413432776927948
aF-0.14984647929668427
aF-0.16213971376419067
aF-0.16495056450366974
aF-0.17103901505470276
aF-0.173270583152771
aF-0.17088650166988373
aF-0.16317534446716309
aF-0.15290172398090363
aF-0.141306534409523
aF-0.12575900554656982
aF-0.10964947938919067
aF-0.09487388283014297
aF-0.08164304494857788
aF-0.06977050006389618
aF-0.06293345987796783
aF-0.05905265361070633
aF-0.0565590001642704
aF-0.05536362901329994
aF-0.053854409605264664
aF-0.0531613864004612
aF-0.04862431436777115
aF-0.04474973306059837
aF-0.039596520364284515
aF-0.03459583595395088
aF-0.0290116798132658
aF-0.023181527853012085
aF-0.01888713240623474
aF-0.014982190914452076
aF-0.012491932138800621
aF-0.012422457337379456
aF-0.01288708858191967
aF-0.016875119879841805
aF-0.015697764232754707
aF-0.01671617664396763
aF-0.01625291258096695
aF-0.014651879668235779
aF-0.013067352585494518
aF-0.010938625782728195
aF-0.008696227334439754
aF-0.00749238533899188
aF-0.005378568544983864
aF-0.0047500538639724255
aF-0.004017712082713842
aF-0.0033863976132124662
aF-0.0027411668561398983
aF-0.003108412493020296
aF-0.0011601039441302419
aF-0.0013336330885067582
aF-0.0018670097924768925
aF-0.0019178044749423862
aF-0.0027123477775603533
aF-0.0019374206895008683
aF-0.0031084390357136726
aF-0.0015806052833795547
aF-0.0014474575873464346
aF-0.002449065214022994
aF-0.002906093141064048
aF-0.0029437714256346226
aF-0.00361705687828362
aF-0.002752093132585287
aF-0.001945146475918591
aF-0.0023268533404916525
aF-0.0022209989838302135
aF-0.0022263098508119583
aF-0.0023446865379810333
aF-0.002975011942908168
aF-0.0030973306857049465
aF-0.003008747473359108
aF-0.003027172526344657
aF-0.0026364936493337154
aF-0.002298355335369706
aF-0.0018490852089598775
aF-0.0014047124423086643
aF-0.0009106138604693115
aF-0.001087669748812914
aF-0.0014492007903754711
aF-0.002121042227372527
aF-0.0012065209448337555
aF-0.0010798044968396425
aF-0.002501533832401037
aF-0.001718943938612938
aF-0.0004079878272023052
aF-7.369263767031953e-05
aF-0.0007255376549437642
aF-0.0026652105152606964
aF-0.003525288077071309
aF-0.0023288594093173742
aF-0.0030149631202220917
aF-0.0024730530567467213
aF-0.0020275842398405075
aF-0.0018089653458446264
aF-0.0024472300428897142
aF-0.001941776368767023
aF-0.0023790220730006695
aF-0.0022999574430286884
aF-0.0023168486077338457
aF-0.0020705738570541143
aF-0.00208675698377192
aF-0.0026943464763462543
aF-0.003215620294213295
aF-0.0033016230445355177
aF-0.0039470805786550045
aF-0.003601082833483815
aF-0.0041147274896502495
aF-0.0041739726439118385
aF-0.0036555032711476088
aF-0.004253804683685303
aF-0.004719671327620745
aF-0.0077039459720253944
aF-0.012006033211946487
aF-0.018040165305137634
aF-0.020630154758691788
aF-0.01786641590297222
aF-0.01761021837592125
aF-0.015062914229929447
aF-0.012244594283401966
aF-0.012745894491672516
aF-0.010024935007095337
aF-0.005910192150622606
aF-0.0022109728306531906
aF-0.00018414680380374193
aF-0.008573463186621666
aF-0.03219596669077873
aF-0.0746057853102684
aF-0.14716294407844543
aF-0.21840815246105194
aF-0.3345239460468292
aF-0.5511106848716736
aF-0.794622004032135
aF-1.080980896949768
aF-1.3847637176513672
aF-1.815664291381836
aF-2.362355947494507
aF-3.164391040802002
aF-3.938167095184326
aF-4.757436275482178
aF-6.299170017242432
aF-7.665883541107178
aF-9.411865234375
aF-10.125866889953613
aF-8.395424842834473
aF-6.797165870666504
aF-5.398459434509277
aF-4.2195353507995605
aF-3.2956597805023193
aF-2.4557180404663086
aF-1.7947593927383423
aF-1.2894095182418823
aF-0.9216185212135315
aF-0.6427901983261108
aF-0.4343653917312622
aF-0.2586403787136078
aF-0.18448512256145477
aF-0.155315101146698
aF-0.12838377058506012
aF-0.14468656480312347
aF-0.16984128952026367
aF-0.2096480131149292
aF-0.26938411593437195
aF-0.33717429637908936
aF-0.4039633870124817
aF-0.503101646900177
aF-0.5883938074111938
aF-0.7178517580032349
aF-0.8669230341911316
aF-1.030430555343628
aF-1.277241826057434
aF-1.5398533344268799
aF-1.8588894605636597
aF-2.302734851837158
aF-2.843233585357666
aF-3.4484426975250244
aF-4.218675136566162
aF-5.097409725189209
aF-6.582712650299072
aF-7.657545566558838
aF-9.47482681274414
aF-10.001094818115234
aF-8.349494934082031
aF-6.912662029266357
aF-5.577574729919434
aF-4.467419624328613
aF-3.4472196102142334
aF-2.6750247478485107
aF-2.0238966941833496
aF-1.488341212272644
aF-1.1020005941390991
aF-0.76786869764328
aF-0.565492570400238
aF-0.3815554678440094
aF-0.24484258890151978
aF-0.1462707668542862
aF-0.08917589485645294
aF-0.055377013981342316
aF-0.025773169472813606
aF-0.00746496208012104
aF-0.001967540942132473
aF-0.0016641925321891904
aF-0.0070724100805819035
aF-0.011077271774411201
aF-0.013137747533619404
aF-0.011212809942662716
aF-0.009371623396873474
aF-0.008015344850718975
aF-0.007826859131455421
aF-0.0069933440536260605
aF-0.004552702885121107
aF-0.003240712685510516
aF-0.0009025251492857933
aF-0.00026315951254218817
aF-0.0019915481097996235
aF-0.0013101206859573722
aF-0.0020558335818350315
aF-0.001532763591967523
aF-0.001209685462526977
aF-0.0010151185560971498
aF-0.0008496962254866958
aF-0.000507157004904002
aF-0.00046958462917245924
aF-0.00042802069219760597
aF-0.00023459963267669082
aF-0.0003465328481979668
aF-0.0013281952124089003
aF-0.0026728541124612093
aF-0.002823901129886508
aF-0.003490642411634326
aF-0.0020373882725834846
aF-0.001784278079867363
aF-0.002190605504438281
aF-0.002113383263349533
aF-0.003163938643410802
aF-0.0004194274079054594
aF-0.0005903798155486584
aF-0.0010061768116429448
aF-0.0009701430099084973
aF-0.002166162012144923
aF-0.002249745652079582
aF-0.001081779133528471
aF-0.0009873331291601062
aF-0.0011367626721039414
aF-0.0008052355260588229
aF-0.0019571385346353054
aF-0.011093305423855782
aF-0.025575388222932816
aF-0.053308140486478806
aF-0.09236901253461838
aF-0.14414288103580475
aF-0.24361972510814667
aF-0.3398127257823944
aF-0.5354987978935242
aF-0.7864764928817749
aF-1.1385266780853271
aF-1.6990015506744385
aF-2.3627166748046875
aF-3.4915764331817627
aF-4.695716857910156
aF-6.210975646972656
aF-8.29973316192627
aF-10.441954612731934
aF-8.99733829498291
aF-7.240329265594482
aF-5.526883602142334
aF-4.20973014831543
aF-2.9849462509155273
aF-2.1471006870269775
aF-1.5825520753860474
aF-1.1281912326812744
aF-0.7858209609985352
aF-0.5484712719917297
aF-0.37262609601020813
aF-0.25225839018821716
aF-0.1445445418357849
aF-0.09346158802509308
aF-0.05527812987565994
aF-0.04041373357176781
aF-0.03709225729107857
aF-0.030515575781464577
aF-0.030525559559464455
aF-0.028143296018242836
aF-0.0290366318076849
aF-0.02605709433555603
aF-0.024872899055480957
aF-0.02325493097305298
aF-0.02315261773765087
aF-0.02279273234307766
aF-0.023964671418070793
aF-0.024150529876351357
aF-0.02542985789477825
aF-0.029169078916311264
aF-0.02867826074361801
aF-0.02867993339896202
aF-0.02624824084341526
aF-0.023682309314608574
aF-0.020807726308703423
aF-0.01840093545615673
aF-0.0154890650883317
aF-0.01659311167895794
aF-0.018339695408940315
aF-0.022643983364105225
aF-0.024792678654193878
aF-0.029189901426434517
aF-0.029636608436703682
aF-0.0315941646695137
aF-0.028873199597001076
aF-0.026151353493332863
aF-0.022341322153806686
aF-0.019076630473136902
aF-0.017366653308272362
aF-0.016933584585785866
aF-0.017633864656090736
aF-0.01844082400202751
aF-0.01851728744804859
aF-0.01977868378162384
aF-0.02074175514280796
aF-0.020404938608407974
aF-0.0200495608150959
aF-0.02024935558438301
aF-0.019502775743603706
aF-0.018566200509667397
aF-0.019300442188978195
aF-0.01840413361787796
aF-0.018687967211008072
aF-0.017572907730937004
aF-0.016802746802568436
aF-0.01701689139008522
aF-0.016434313729405403
aF-0.016019953414797783
aF-0.016418300569057465
aF-0.015115627087652683
aF-0.01612413115799427
aF-0.029019562527537346
aF-0.056122664362192154
aF-0.10360439121723175
aF-0.17000268399715424
aF-0.27629393339157104
aF-0.4473560154438019
aF-0.6693044304847717
aF-0.9552896022796631
aF-1.4112313985824585
aF-2.0764029026031494
aF-2.791501760482788
aF-3.95713472366333
aF-5.46376895904541
aF-7.206480026245117
aF-9.318288803100586
aF-9.83511734008789
aF-7.526773452758789
aF-5.634420871734619
aF-4.065049648284912
aF-2.991889238357544
aF-2.143767833709717
aF-1.4521015882492065
aF-1.0420717000961304
aF-0.9229235649108887
aF-0.9090438485145569
aF-0.872290849685669
aF-1.1544349193572998
aF-1.9018433094024658
aF-2.760486602783203
aF-3.539144992828369
aF-4.823232650756836
aF-6.331798076629639
aF-7.857272148132324
aF-10.268875122070312
aF-9.193889617919922
aF-7.1317973136901855
aF-5.5939412117004395
aF-4.175674915313721
aF-3.2449090480804443
aF-2.3672068119049072
aF-1.8066474199295044
aF-1.320428490638733
aF-0.952964186668396
aF-0.6920183300971985
aF-0.46943333745002747
aF-0.3036516308784485
aF-0.20545263588428497
aF-0.11974812299013138
aF-0.07037930935621262
aF-0.03955628350377083
aF-0.018955273553729057
aF-0.009081880562007427
aF-0.000577417085878551
aF-0.001152476528659463
aF-0.005265859421342611
aF-0.004158273804932833
aF-0.0037065534852445126
aF-0.0023141889832913876
aF-0.0026674862019717693
aF-0.002621470484882593
aF-0.003420588793233037
aF-0.004892833065241575
aF-0.0069173662923276424
aF-0.0064249527640640736
aF-0.004338247235864401
aF-0.0033050214406102896
aF-0.0034331711940467358
aF-0.004149151965975761
aF-0.0043466235511004925
aF-0.004209068138152361
aF-0.002145021455362439
aF-0.0016459878534078598
aF-0.0010685821762308478
aF-0.0019341388251632452
aF-0.0007863272330723703
aF-0.0005566327017731965
aF-0.00027153585688211024
aF-0.0003107611264567822
aF-0.000384120037779212
aF-0.0003175358287990093
aF-0.0007298450218513608
aF-0.0015183991054072976
aF-0.0009821178391575813
aF-0.0007875619921833277
aF-0.0006645044777542353
aF-0.0008559330017305911
aF-0.000867385184392333
aF-0.000695038354024291
aF-0.0002730577252805233
aF-0.00039996032137423754
aF-0.0002492310886736959
aF-0.00030204924405552447
aF-0.0007182189729064703
aF-0.0002023059205384925
aF-0.0002967165200971067
aF-0.0014811857836320996
aF-0.0016552895540371537
aF-0.0030528935603797436
aF-0.003066111821681261
aF-0.002412067260593176
aF-0.0017893912736326456
aF-0.002235214691609144
aF-0.0030888114124536514
aF-0.004303092136979103
aF-0.003347388468682766
aF-0.0008044695132412016
aF-0.0005826192209497094
aF-0.0021930260118097067
aF-0.0026126799639314413
aF-0.003962438087910414
aF-0.0033379376400262117
aF-0.0017442770767956972
aF-0.0019494005246087909
aF-0.0014476337237283587
aF-0.0024945863988250494
aF-0.004251466132700443
aF-0.005511617287993431
aF-0.0034395556431263685
aF-0.0027779911179095507
aF-0.0020420739892870188
aF-0.001954799983650446
aF-0.002325247274711728
aF-0.001727964961901307
aF-0.0025865177158266306
aF-0.0008551828213967383
aF-0.00018278640345670283
aF-0.00021879879932384938
aF-0.0008188268984667957
aF-0.00014789508713874966
aF-9.94392394204624e-06
aF-0.0006106727523729205
aF-0.0012746935244649649
aF-0.001067705568857491
aF-0.0007617849623784423
aF-0.0009951689280569553
aF-0.0007235704688355327
aF-0.0009448423516005278
aF-0.0003448717761784792
aF-0.000482946983538568
aF-0.00019846897339448333
aF-0.0005237166187725961
aF-0.0004578841326292604
aF-0.001824063598178327
aF-0.0024434777442365885
aF-0.004637112375348806
aF-0.004602782893925905
aF-0.005024757236242294
aF-0.00491549726575613
aF-0.004443474113941193
aF-0.004039335064589977
aF-0.003774606855586171
aF-0.0036917454563081264
aF-0.0038058224599808455
aF-0.00422325637191534
aF-0.0036616616416722536
aF-0.0035949009470641613
aF-0.0030119046568870544
aF-0.002620647894218564
aF-0.002321240957826376
aF-0.002032088115811348
aF-0.001670579076744616
aF-0.0016380985034629703
aF-0.001470981165766716
aF-0.0023506327997893095
aF-0.0019345800392329693
aF-0.0023258747532963753
aF-0.0026520956307649612
aF-0.003979839850217104
aF-0.006056786514818668
aF-0.005798733327537775
aF-0.007263830862939358
aF-0.006425190716981888
aF-0.005854742135852575
aF-0.005140787456184626
aF-0.004452863708138466
aF-0.003342938143759966
aF-0.002297021681442857
aF-0.002252740552648902
aF-0.0019408019725233316
aF-0.0020479895174503326
aF-0.0019474464934319258
aF-0.0017611036309972405
aF-0.0017827708506956697
aF-0.0016696598613634706
aF-0.0019456713926047087
aF-0.0017567022005096078
aF-0.0016736974939703941
aF-0.0017174002714455128
aF-0.0015172885032370687
aF-0.0015331283211708069
aF-0.0021080311853438616
aF-0.0019837149884551764
aF-0.0017208886565640569
aF-0.0015476210974156857
aF-0.0016650431789457798
aF-0.001064856769517064
aF-0.0006311991019174457
aF-0.00024716363986954093
aF-0.0003317248774692416
aF-0.00102526368573308
aF-0.0010067051043733954
aF-0.001431634766049683
aF-0.0018682240042835474
aF-0.0014219259610399604
aF-0.0014291502302512527
aF-0.0012850039638578892
aF-0.0012554649729281664
aF-0.001511886715888977
aF-0.0019098317716270685
aF-0.0018103952752426267
aF-0.0020435515325516462
aF-0.001981326611712575
aF-0.0017844196408987045
aF-0.00171379663515836
aF-0.0016681934939697385
aF-0.0017060404643416405
aF-0.0019404563354328275
aF-0.0022762108128517866
aF-0.00296508870087564
aF-0.0028041803743690252
aF-0.002299016807228327
aF-0.0020118807442486286
aF-0.001802240964025259
aF-0.0013419073075056076
aF-0.000340454513207078
aF-0.00038876381586305797
aF-0.0004829281533602625
aF-0.00162581040058285
aF-0.0026263296604156494
aF-0.0021723913960158825
aF-0.002338285790756345
aF-0.0017589760245755315
aF-0.0015642957296222448
aF-0.0016779375728219748
aF-0.0007789888768456876
aF-0.0005655723507516086
aF-0.00022312899818643928
aF-0.0003127724339719862
aF-0.0012893500970676541
aF-0.0003561404882930219
aF-0.00035530986497178674
aF-0.0005229262751527131
aF-0.0004394050338305533
aF-0.0005912439664825797
aF-0.00010797501454362646
aF-0.001056305831298232
aF-0.0001327752397628501
aF-8.884636918082833e-05
aF-0.00048363112728111446
aF-0.0008582653244957328
aF-0.0005205048364587128
aF-0.0009813958313316107
aF-0.000997359398752451
aF-0.0009271540329791605
aF-0.0011043326230719686
aF-0.0022224802523851395
aF-0.0011519419495016336
aF-0.0009912108071148396
aF-0.000996195012703538
aF-0.0008129609050229192
aF-0.0007293459493666887
aF-0.0003067407524213195
aF-0.0003245849220547825
aF-0.00038454800960607827
aF-7.790813833707944e-05
aF-0.00018345114949624985
aF-0.0010618155356496572
aF-0.0016418136656284332
aF-0.0014163346495479345
aF-0.0022426065988838673
aF-0.001428597723133862
aF-0.0013489880366250873
aF-0.0014015954220667481
aF-0.001031495863571763
aF-0.0009766853181645274
aF-0.001383582828566432
aF-0.0020350406412035227
aF-0.0023255357518792152
aF-0.003729879390448332
aF-0.0029481833335012197
aF-0.003288750071078539
aF-0.003139927051961422
aF-0.002633310155943036
aF-0.002575008198618889
aF-0.0025628835428506136
aF-0.0033086540643125772
aF-0.0032903621904551983
aF-0.004459937568753958
aF-0.005690134130418301
aF-0.007016959600150585
aF-0.007052149157971144
aF-0.007415013387799263
aF-0.0062964195385575294
aF-0.005526439752429724
aF-0.005261261481791735
aF-0.002506137592718005
aF-0.0014444702537730336
aF-0.0020633433014154434
aF-0.0038307381328195333
aF-0.003994163125753403
aF-0.0035690132062882185
aF-0.0028925868682563305
aF-0.002298923907801509
aF-0.002482745563611388
aF-0.002334238262847066
aF-0.0007629549945704639
aF-0.0005868871230632067
aF-0.0005357125191949308
aF-0.0016090587014332414
aF-0.0034902486950159073
aF-0.0037221647799015045
aF-0.0034404094330966473
aF-0.0020757096353918314
aF-0.0025128612760454416
aF-0.003879118710756302
aF-0.00425842497497797
aF-0.004588965326547623
aF-0.0017096693627536297
aF-0.0007358758593909442
aF-0.0010865558870136738
aF-0.002752086613327265
aF-0.004786934237927198
aF-0.003234191332012415
aF-0.003727115225046873
aF-0.0023233010433614254
aF-0.0019357200944796205
aF-0.0021409306209534407
aF-0.0026951900217682123
aF-0.002107520354911685
aF-0.0021946313790977
aF-0.0009157225140370429
aF-0.00048210282693617046
aF-0.000507041288074106
aF-0.003080529160797596
aF-0.0036032714415341616
aF-0.004904826171696186
aF-0.003108498640358448
aF-0.002315237419679761
aF-0.002050862880423665
aF-0.0018056586850434542
aF-0.0011212403187528253
aF-0.0011419715592637658
aF-0.0004702758160419762
aF-0.0004231805505696684
aF-0.0003373695071786642
aF-0.0005028752493672073
aF-0.0004139192751608789
aF-0.00024951103841885924
aF-0.0010998700745403767
aF-0.003292912384495139
aF-0.003896907204762101
aF-0.0029940842650830746
aF-0.003571659792214632
aF-0.002771603874862194
aF-0.0024096895940601826
aF-0.0020395778119564056
aF-0.0012076315470039845
aF-0.00036384104168973863
aF-0.0004476034373510629
aF-0.0008194235851988196
aF-0.0014586631441488862
aF-0.0011236389400437474
aF-0.0013664932921528816
aF-0.001311195781454444
aF-0.0011497857049107552
aF-0.0007753907120786607
aF-0.0010288662742823362
aF-0.0011246223002672195
aF-0.0004093097522854805
aF-1.0539076356508303e-05
aF-0.00010875669249799103
aF-0.00131261779461056
aF-0.0012013211380690336
aF-0.001003142213448882
aF-0.0016349913785234094
aF-0.0009877264965325594
aF-0.001171018579043448
aF-0.0010522289667278528
aF-0.00103491242043674
aF-0.000993926078081131
aF-0.0010057119652628899
aF-0.0004806281067430973
aF-0.0005651320097967982
aF-0.0009344629943370819
aF-0.0011660353047773242
aF-0.0006321363034658134
aF-0.000640364654827863
aF-0.0022946717217564583
aF-0.0013493342557922006
aF-0.001668039825744927
aF-5.519362457562238e-05
aF-0.00108287762850523
aF-0.0021654998417943716
aF-0.004599692299962044
aF-0.002492560539394617
aF-0.0036430449690669775
aF-0.0020774458535015583
aF-0.0018294090405106544
aF-0.0019288400653749704
aF-0.0010446473024785519
aF-0.0007179512758739293
aF-0.00046408578054979444
aF-0.0013236100785434246
aF-0.0022424485068768263
aF-0.0012039465364068747
aF-0.0010027855169028044
aF-0.0009177033789455891
aF-0.0011300371261313558
aF-0.000459859031252563
aF-0.0008566486067138612
aF-0.0010382926557213068
aF-0.0021910974755883217
aF-0.001651016529649496
aF-0.001429797150194645
aF-0.0012941843597218394
aF-0.0014272675616666675
aF-0.0009973895503208041
aF-0.0006083445623517036
aF-0.000660669757053256
aF-0.000495239335577935
aF-0.0001430525881005451
aF-4.631922274711542e-05
aF-5.007772779208608e-05
aF-0.0010914262384176254
aF-0.00024882235447876155
aF-0.00037282382254488766
aF-0.00017950891924556345
aF-0.00037589482963085175
aF-0.0010795197449624538
aF-0.0023845904506742954
aF-0.0018648303812369704
aF-0.0008095739176496863
aF-0.0007618481758981943
aF-0.0015799652319401503
aF-0.006124323699623346
aF-0.0033317336346954107
aF-0.003522178390994668
aF-0.002106532221660018
aF-0.0018005650490522385
aF-0.0015159359900280833
aF-0.0009994222782552242
aF-0.0008429793524555862
aF-0.0007360515301115811
aF-0.0007729310309514403
aF-0.0013678629184141755
aF-0.001396992476657033
aF-0.002555271377786994
aF-0.002502166200429201
aF-0.0023461536038666964
aF-0.0026889401488006115
aF-0.0017189942300319672
aF-0.0012459022691473365
aF-0.0007995076011866331
aF-0.002664583967998624
aF-0.00376706849783659
aF-0.004657828249037266
aF-0.003564087674021721
aF-0.003000004682689905
aF-0.0032095774076879025
aF-0.0034853112883865833
aF-0.0012326391879469156
aF-0.0005137816770002246
aF-0.0002081296406686306
aF-0.0006155475275591016
aF-0.0027607795782387257
aF-0.003864587051793933
aF-0.0051664807833731174
aF-0.005584545899182558
aF-0.004985124338418245
aF-0.0041764723137021065
aF-0.003676282474771142
aF-0.004300402943044901
aF-0.0025424615014344454
aF-0.0012800986878573895
aF-0.0005181261221878231
aF-0.0021773537155240774
aF-0.005845027044415474
aF-0.008690343238413334
aF-0.012338482774794102
aF-0.012093881145119667
aF-0.008884239941835403
aF-0.008133956231176853
aF-0.009052058681845665
aF-0.006136894691735506
aF-0.003031791653484106
aF-0.0016109771095216274
aF-0.000987368868663907
aF-0.0019472760614007711
aF-0.001969305332750082
aF-0.0020844475366175175
aF-0.0019426217768341303
aF-0.0020191343501210213
aF-0.0022440655156970024
aF-0.002029734430834651
aF-0.001723624998703599
aF-0.0015184320509433746
aF-0.001474452787078917
aF-0.0017404664540663362
aF-0.0005142033332958817
aF-0.000677881354931742
aF-0.001057373476214707
aF-0.0019571837037801743
aF-0.0037394706159830093
aF-0.00835509691387415
aF-0.011897536925971508
aF-0.013206031173467636
aF-0.01129590068012476
aF-0.010754602029919624
aF-0.009856793098151684
aF-0.008192844688892365
aF-0.006047579925507307
aF-0.005458751693367958
aF-0.006684943102300167
aF-0.00713064381852746
aF-0.009464933536946774
aF-0.007765291724354029
aF-0.007405830547213554
aF-0.006612494587898254
aF-0.0056222230195999146
aF-0.0049272519536316395
aF-0.003979326691478491
aF-0.0032196587417274714
aF-0.0034128723200410604
aF-0.00418736832216382
aF-0.005458700004965067
aF-0.005883428268134594
aF-0.00584018649533391
aF-0.005195158533751965
aF-0.004845410119742155
aF-0.0039322213269770145
aF-0.0033429472241550684
aF-0.0031359849963337183
aF-0.0026293627452105284
aF-0.0023120243567973375
aF-0.002781357616186142
aF-0.003275689436122775
aF-0.003925677854567766
aF-0.0044761537574231625
aF-0.004025875590741634
aF-0.003954312764108181
aF-0.00394805520772934
aF-0.003670718055218458
aF-0.003585112513974309
aF-0.0036386456340551376
aF-0.00487437192350626
aF-0.005781199783086777
aF-0.007508493028581142
aF-0.009017447009682655
aF-0.008524280041456223
aF-0.009958621114492416
aF-0.01003935094922781
aF-0.009603750891983509
aF-0.010370227508246899
aF-0.009005512110888958
aF-0.008667875081300735
aF-0.007570596877485514
aF-0.00688635790720582
aF-0.0056715733371675014
aF-0.004878140054643154
aF-0.006213705986738205
aF-0.006811679340898991
aF-0.008844452910125256
aF-0.009673054330050945
aF-0.009167573414742947
aF-0.009903804399073124
aF-0.008457417599856853
aF-0.007558116689324379
aF-0.00650180596858263
aF-0.005599759519100189
aF-0.004104851745069027
aF-0.002966922475025058
aF-0.004056455101817846
aF-0.005711914040148258
aF-0.008182714693248272
aF-0.007806369569152594
aF-0.006712732836604118
aF-0.0060625928454101086
aF-0.005514886695891619
aF-0.0036952821537852287
aF-0.0026211088988929987
aF-0.002025575377047062
aF-0.0019350042566657066
aF-0.0021895403042435646
aF-0.002514953725039959
aF-0.003033591201528907
aF-0.004180543124675751
aF-0.004311671946197748
aF-0.004724540747702122
aF-0.004098962061107159
aF-0.0038666820619255304
aF-0.0035696409177035093
aF-0.003396509913727641
aF-0.0038723258767277002
aF-0.0037777747493237257
a.