(lp0
F-0.01911929063498974
aF-10.813344955444336
aF-9.810510635375977
aF-9.790885925292969
aF-9.713913917541504
aF-9.636247634887695
aF-9.539790153503418
aF-9.443204879760742
aF-9.346787452697754
aF-9.215204238891602
aF-9.06556510925293
aF-8.897326469421387
aF-8.730480194091797
aF-8.514719009399414
aF-8.297745704650879
aF-8.066458702087402
aF-7.806896686553955
aF-7.545563220977783
aF-7.261767387390137
aF-6.977321147918701
aF-6.684572696685791
aF-6.421706676483154
aF-6.183168411254883
aF-5.964992046356201
aF-5.789504051208496
aF-5.665557861328125
aF-5.5718793869018555
aF-5.524388313293457
aF-5.510467052459717
aF-5.556036949157715
aF-5.6617913246154785
aF-5.798681735992432
aF-5.987083911895752
aF-6.227121353149414
aF-6.5597944259643555
aF-6.967187404632568
aF-7.479442596435547
aF-8.054014205932617
aF-8.755770683288574
aF-9.665902137756348
aF-9.558484077453613
aF-8.638802528381348
aF-7.683128833770752
aF-6.753500461578369
aF-5.899232864379883
aF-5.10044527053833
aF-4.383744716644287
aF-3.7877259254455566
aF-3.303013324737549
aF-2.8766238689422607
aF-2.551625967025757
aF-2.3018198013305664
aF-2.123636484146118
aF-2.0135579109191895
aF-1.9529131650924683
aF-1.9483879804611206
aF-1.9959839582443237
aF-2.1033713817596436
aF-2.25121808052063
aF-2.499640941619873
aF-2.774904489517212
aF-3.16353178024292
aF-3.590949773788452
aF-4.141476154327393
aF-4.7699294090271
aF-5.43109655380249
aF-6.402339458465576
aF-7.255776405334473
aF-8.398341178894043
aF-9.790895462036133
aF-9.499369621276855
aF-8.234216690063477
aF-7.0101728439331055
aF-5.891369342803955
aF-4.878971576690674
aF-4.0110182762146
aF-3.272113084793091
aF-2.6571357250213623
aF-2.1838772296905518
aF-1.7735083103179932
aF-1.4485032558441162
aF-1.1905272006988525
aF-0.9977568984031677
aF-0.8426882028579712
aF-0.733773410320282
aF-0.6371777653694153
aF-0.5747127532958984
aF-0.5289121270179749
aF-0.49577105045318604
aF-0.4825036823749542
aF-0.4763464033603668
aF-0.48640307784080505
aF-0.5000321269035339
aF-0.5291694402694702
aF-0.5569592118263245
aF-0.5973961353302002
aF-0.643083393573761
aF-0.7101424336433411
aF-0.7894506454467773
aF-0.9032402038574219
aF-1.0028374195098877
aF-1.1829183101654053
aF-1.3729466199874878
aF-1.6438806056976318
aF-1.9482094049453735
aF-2.355043649673462
aF-2.862274408340454
aF-3.507725477218628
aF-4.191160678863525
aF-4.987946033477783
aF-6.032790184020996
aF-7.192089080810547
aF-8.309983253479004
aF-9.879617691040039
aF-9.488102912902832
aF-8.129051208496094
aF-6.743608474731445
aF-5.559814453125
aF-4.490976810455322
aF-3.519526720046997
aF-2.80499005317688
aF-2.1548593044281006
aF-1.677299976348877
aF-1.2585312128067017
aF-0.9208746552467346
aF-0.6833579540252686
aF-0.47601479291915894
aF-0.36334195733070374
aF-0.22587662935256958
aF-0.16049937903881073
aF-0.0894036740064621
aF-0.0509352944791317
aF-0.024343781173229218
aF-0.012294599786400795
aF-0.0025862460024654865
aF-0.0006401381688192487
aF-0.002878376981243491
aF-0.0071357605047523975
aF-0.014340282417833805
aF-0.02120957151055336
aF-0.02130192331969738
aF-0.023850606754422188
aF-0.02033676765859127
aF-0.01822739467024803
aF-0.015755968168377876
aF-0.014467380940914154
aF-0.009417076595127583
aF-0.007034529000520706
aF-0.008358861319720745
aF-0.00985766015946865
aF-0.014373051933944225
aF-0.015901945531368256
aF-0.01699144020676613
aF-0.016084296628832817
aF-0.0162512119859457
aF-0.015385913662612438
aF-0.014351019635796547
aF-0.013165278360247612
aF-0.013336600735783577
aF-0.011524271219968796
aF-0.013390487991273403
aF-0.011847779154777527
aF-0.011424736119806767
aF-0.011443639174103737
aF-0.01367765013128519
aF-0.015140320174396038
aF-0.01831113174557686
aF-0.017265573143959045
aF-0.015462866052985191
aF-0.013830604031682014
aF-0.011723436415195465
aF-0.009228059090673923
aF-0.0073651825077831745
aF-0.005490916781127453
aF-0.0042948294430971146
aF-0.003371437080204487
aF-0.0022186613641679287
aF-0.0006636094185523689
aF-0.0014672435354441404
aF-0.002057859441265464
aF-0.0032377615571022034
aF-0.005828885827213526
aF-0.012078576721251011
aF-0.020283367484807968
aF-0.031121937558054924
aF-0.030704496428370476
aF-0.03770166262984276
aF-0.03584115207195282
aF-0.03554012253880501
aF-0.03488932177424431
aF-0.03171951696276665
aF-0.028557762503623962
aF-0.02587532438337803
aF-0.020522162318229675
aF-0.01756218820810318
aF-0.01588926836848259
aF-0.01898336596786976
aF-0.01749393902719021
aF-0.018383029848337173
aF-0.019683096557855606
aF-0.017668820917606354
aF-0.01949361525475979
aF-0.01810052990913391
aF-0.017196357250213623
aF-0.015817860141396523
aF-0.01362623181194067
aF-0.011593615636229515
aF-0.010441284626722336
aF-0.010260330513119698
aF-0.01572100818157196
aF-0.015524445101618767
aF-0.01654559187591076
aF-0.01364759262651205
aF-0.012546407990157604
aF-0.012449589557945728
aF-0.008394692093133926
aF-0.0050676120445132256
aF-0.002403725404292345
aF-0.002619391307234764
aF-0.005538059398531914
aF-0.018828699365258217
aF-0.023315463215112686
aF-0.033699676394462585
aF-0.027273239567875862
aF-0.02748233638703823
aF-0.02466912940144539
aF-0.030201459303498268
aF-0.04873406141996384
aF-0.06483934074640274
aF-0.10129974782466888
aF-0.14927822351455688
aF-0.26506927609443665
aF-0.4304378628730774
aF-0.49930810928344727
aF-0.7639787197113037
aF-0.8975456953048706
aF-1.2615623474121094
aF-1.6422518491744995
aF-2.1954212188720703
aF-2.65702486038208
aF-3.529583692550659
aF-4.1689772605896
aF-5.144608020782471
aF-6.447234630584717
aF-7.729732990264893
aF-9.23751449584961
aF-10.16075611114502
aF-8.590886116027832
aF-7.085657119750977
aF-5.774353981018066
aF-4.535866737365723
aF-3.547769546508789
aF-2.730591297149658
aF-2.0255560874938965
aF-1.503450870513916
aF-1.096498966217041
aF-0.7680021524429321
aF-0.590177595615387
aF-0.38349708914756775
aF-0.2671087682247162
aF-0.20763690769672394
aF-0.1748422235250473
aF-0.18499791622161865
aF-0.21415327489376068
aF-0.28676438331604004
aF-0.371128112077713
aF-0.49945467710494995
aF-0.6231145858764648
aF-0.8016811013221741
aF-1.0402042865753174
aF-1.2961866855621338
aF-1.6189030408859253
aF-2.1614575386047363
aF-2.6568973064422607
aF-3.272308349609375
aF-4.082203388214111
aF-5.1015448570251465
aF-6.042552947998047
aF-7.509033679962158
aF-8.799555778503418
aF-10.335264205932617
aF-9.030473709106445
aF-7.553600311279297
aF-6.1502180099487305
aF-5.018062591552734
aF-3.902859687805176
aF-3.0944252014160156
aF-2.3626599311828613
aF-1.7668492794036865
aF-1.3016310930252075
aF-0.9422783851623535
aF-0.6694198250770569
aF-0.4580841362476349
aF-0.30651402473449707
aF-0.25780078768730164
aF-0.13935281336307526
aF-0.12916770577430725
aF-0.11679086834192276
aF-0.1332409679889679
aF-0.16322554647922516
aF-0.2144182026386261
aF-0.2400837540626526
aF-0.3423091471195221
aF-0.39223262667655945
aF-0.49499234557151794
aF-0.6050193309783936
aF-0.723386824131012
aF-0.8830171823501587
aF-1.1006553173065186
aF-1.3382315635681152
aF-1.687949299812317
aF-2.039870500564575
aF-2.5244553089141846
aF-3.1039016246795654
aF-3.892141819000244
aF-4.637746334075928
aF-5.730809688568115
aF-6.805866718292236
aF-8.134367942810059
aF-9.509438514709473
aF-9.798354148864746
aF-8.338621139526367
aF-6.943744659423828
aF-5.673042297363281
aF-4.585598945617676
aF-3.5688207149505615
aF-2.8240110874176025
aF-2.159820079803467
aF-1.6320618391036987
aF-1.1724454164505005
aF-0.8677687644958496
aF-0.6155768036842346
aF-0.44624897837638855
aF-0.2769203782081604
aF-0.19736447930335999
aF-0.14162354171276093
aF-0.09046505391597748
aF-0.06784935295581818
aF-0.06338697671890259
aF-0.06643207371234894
aF-0.0805981457233429
aF-0.08270278573036194
aF-0.09333650022745132
aF-0.09892310947179794
aF-0.10272462666034698
aF-0.10677381604909897
aF-0.10725081712007523
aF-0.10571232438087463
aF-0.10396827757358551
aF-0.10273266583681107
aF-0.09893519431352615
aF-0.09389074891805649
aF-0.08788502961397171
aF-0.08362708240747452
aF-0.07387667149305344
aF-0.06631232053041458
aF-0.05438322201371193
aF-0.043431539088487625
aF-0.03713404759764671
aF-0.027123507112264633
aF-0.018444204702973366
aF-0.007086311466991901
aF-0.002322844695299864
aF-0.005758590064942837
aF-0.006102470681071281
aF-0.006949704606086016
aF-0.003962994087487459
aF-0.005704570095986128
aF-0.005095151253044605
aF-0.005250141490250826
aF-0.0025762661825865507
aF-0.002137270523235202
aF-0.0026044161058962345
aF-0.0010300865396857262
aF-0.0009255879558622837
aF-0.0037288866005837917
aF-0.0021949117071926594
aF-0.0005472629563882947
aF-0.0011137430556118488
aF-0.0007213512435555458
aF-0.0010641476837918162
aF-0.00292457127943635
aF-0.002466225530952215
aF-0.0025575042236596346
aF-0.0029321548063308
aF-0.003478731494396925
aF-0.004894420504570007
aF-0.0036965731997042894
aF-0.0038622934371232986
aF-0.0043786149471998215
aF-0.005928731989115477
aF-0.0018091421807184815
aF-0.0015064855106174946
aF-0.006126461084932089
aF-0.0056049213744699955
aF-0.0038596661761403084
aF-0.011446474120020866
aF-0.0335882231593132
aF-0.06335242092609406
aF-0.10668376833200455
aF-0.15951652824878693
aF-0.25186145305633545
aF-0.3803107440471649
aF-0.6655699610710144
aF-0.8695014715194702
aF-1.3804919719696045
aF-1.9979206323623657
aF-2.864088535308838
aF-3.9819414615631104
aF-5.5909423828125
aF-7.176236152648926
aF-9.356983184814453
aF-10.061808586120605
aF-8.101211547851562
aF-6.220324516296387
aF-4.796116352081299
aF-3.5571770668029785
aF-2.6476757526397705
aF-1.9592076539993286
aF-1.4583449363708496
aF-1.0203255414962769
aF-0.7492822408676147
aF-0.5168630480766296
aF-0.3813725709915161
aF-0.26427170634269714
aF-0.2398863583803177
aF-0.19019199907779694
aF-0.27014487981796265
aF-0.3415627181529999
aF-0.4688861668109894
aF-0.6179481744766235
aF-0.8054486513137817
aF-1.0793339014053345
aF-1.3756588697433472
aF-1.7689800262451172
aF-2.342808485031128
aF-2.9372382164001465
aF-3.6944382190704346
aF-4.653977394104004
aF-5.574795722961426
aF-6.73484468460083
aF-8.267847061157227
aF-9.627079010009766
aF-9.682816505432129
aF-8.071576118469238
aF-6.621350288391113
aF-5.3015642166137695
aF-4.247013092041016
aF-3.2342677116394043
aF-2.4591283798217773
aF-1.8581022024154663
aF-1.378042459487915
aF-0.9632592797279358
aF-0.7238190174102783
aF-0.46705684065818787
aF-0.36072731018066406
aF-0.24871493875980377
aF-0.19517314434051514
aF-0.1830829679965973
aF-0.178883895277977
aF-0.24525994062423706
aF-0.3016356825828552
aF-0.413606196641922
aF-0.5337836742401123
aF-0.6693437695503235
aF-0.8665533065795898
aF-1.1076433658599854
aF-1.429275393486023
aF-1.7661831378936768
aF-2.3111793994903564
aF-2.82481050491333
aF-3.52457857131958
aF-4.425633907318115
aF-5.431305885314941
aF-6.547695636749268
aF-7.777638912200928
aF-9.234176635742188
aF-10.091316223144531
aF-8.504303932189941
aF-7.133413791656494
aF-5.824026584625244
aF-4.625843048095703
aF-3.6095340251922607
aF-2.7727322578430176
aF-2.1392295360565186
aF-1.5661333799362183
aF-1.1864959001541138
aF-0.8446962833404541
aF-0.5680304169654846
aF-0.3803482949733734
aF-0.3098108768463135
aF-0.17937354743480682
aF-0.149306058883667
aF-0.1274934560060501
aF-0.13705191016197205
aF-0.14853055775165558
aF-0.19129051268100739
aF-0.24084384739398956
aF-0.3120323121547699
aF-0.3783874213695526
aF-0.4705553948879242
aF-0.5688703656196594
aF-0.6973899602890015
aF-0.8493815660476685
aF-1.0282145738601685
aF-1.2762783765792847
aF-1.5598924160003662
aF-1.8980951309204102
aF-2.3655831813812256
aF-2.8976833820343018
aF-3.615630626678467
aF-4.416696548461914
aF-5.3543829917907715
aF-6.3076581954956055
aF-7.656327724456787
aF-8.989630699157715
aF-10.345905303955078
aF-8.852330207824707
aF-7.4080047607421875
aF-6.076565265655518
aF-4.973451614379883
aF-3.8913381099700928
aF-3.080739974975586
aF-2.3546526432037354
aF-1.765824556350708
aF-1.315782904624939
aF-0.9913043975830078
aF-0.7087256908416748
aF-0.5180392265319824
aF-0.34569188952445984
aF-0.2449825406074524
aF-0.14549334347248077
aF-0.1183738186955452
aF-0.06375699490308762
aF-0.06369353830814362
aF-0.05681587755680084
aF-0.06225714832544327
aF-0.07877017557621002
aF-0.08605845272541046
aF-0.09380292147397995
aF-0.09975175559520721
aF-0.10179243236780167
aF-0.10082244873046875
aF-0.09438782185316086
aF-0.08755718916654587
aF-0.07972704619169235
aF-0.07057957351207733
aF-0.06095146760344505
aF-0.05322485789656639
aF-0.046121612191200256
aF-0.03807992860674858
aF-0.032064445316791534
aF-0.024213112890720367
aF-0.01903502829372883
aF-0.017263080924749374
aF-0.020973818376660347
aF-0.02043352648615837
aF-0.020689193159341812
aF-0.018092181533575058
aF-0.015447408892214298
aF-0.013567568734288216
aF-0.01131783053278923
aF-0.010532359592616558
aF-0.005212139338254929
aF-0.0015791961923241615
aF-0.0001311527448706329
aF-0.0005563402082771063
aF-0.002205811906605959
aF-0.0008685171487741172
aF-0.0021232059225440025
aF-0.0006191064021550119
aF-0.0006346201989799738
aF-0.0015518106520175934
aF-0.0015729801962152123
aF-0.0019718287512660027
aF-0.00457968981936574
aF-0.0039140451699495316
aF-0.0020996674429625273
aF-0.002707266714423895
aF-0.0029905689880251884
aF-0.0038316312711685896
aF-0.002332288073375821
aF-0.0007404767093248665
aF-0.0006765358266420662
aF-0.0027514854446053505
aF-0.0031004799529910088
aF-0.0060452986508607864
aF-0.0064604138024151325
aF-0.009130452759563923
aF-0.008915436454117298
aF-0.01022329367697239
aF-0.008900557644665241
aF-0.008113514631986618
aF-0.006987079046666622
aF-0.0057411761954426765
aF-0.00485101155936718
aF-0.006614443380385637
aF-0.004416092298924923
aF-0.004342909436672926
aF-0.004365167580544949
aF-0.0038650783244520426
aF-0.0023784369695931673
aF-0.004113378468900919
aF-0.009112555533647537
aF-0.01555954571813345
aF-0.017443111166357994
aF-0.016427623108029366
aF-0.017712170258164406
aF-0.016649821773171425
aF-0.01730031706392765
aF-0.01677439734339714
aF-0.015804965049028397
aF-0.01510389894247055
aF-0.02002929337322712
aF-0.02401496097445488
aF-0.029367497190833092
aF-0.029712926596403122
aF-0.027200734242796898
aF-0.023603476583957672
aF-0.019929008558392525
aF-0.016550397500395775
aF-0.011358026415109634
aF-0.007252590265125036
aF-0.0043984693475067616
aF-0.0048368568532168865
aF-0.004764724522829056
aF-0.00655612675473094
aF-0.00917231198400259
aF-0.007672836072742939
aF-0.007074811961501837
aF-0.007557866163551807
aF-0.007631527725607157
aF-0.007352882996201515
aF-0.0020428153220564127
aF-0.0012484177714213729
aF-0.0011766287498176098
aF-0.0029063988476991653
aF-0.01768234744668007
aF-0.040035899728536606
aF-0.0706043615937233
aF-0.12489049881696701
aF-0.1943790465593338
aF-0.28204724192619324
aF-0.43690237402915955
aF-0.6403684616088867
aF-0.9685280323028564
aF-1.404841661453247
aF-2.0065114498138428
aF-2.896322727203369
aF-4.095001220703125
aF-5.480267524719238
aF-7.270421504974365
aF-9.30255126953125
aF-9.948704719543457
aF-7.575676441192627
aF-5.675661087036133
aF-4.25571870803833
aF-3.0560455322265625
aF-2.0417356491088867
aF-1.4187190532684326
aF-0.9494558572769165
aF-0.6118855476379395
aF-0.5586739182472229
aF-0.4861851632595062
aF-0.4875864088535309
aF-0.6342143416404724
aF-0.9084469676017761
aF-1.1844109296798706
aF-1.6766350269317627
aF-2.3266565799713135
aF-3.096010684967041
aF-4.158996105194092
aF-5.250263214111328
aF-6.649655342102051
aF-8.308528900146484
aF-10.177105903625488
aF-9.47142219543457
aF-7.8359150886535645
aF-6.1884870529174805
aF-4.844042778015137
aF-3.7455010414123535
aF-2.876770257949829
aF-2.1375298500061035
aF-1.5641069412231445
aF-1.1075291633605957
aF-0.782198965549469
aF-0.5865047574043274
aF-0.40268105268478394
aF-0.2743656039237976
aF-0.2243880033493042
aF-0.2027696669101715
aF-0.18406005203723907
aF-0.25055354833602905
aF-0.31767353415489197
aF-0.4510543644428253
aF-0.5457252860069275
aF-0.7282698154449463
aF-0.9171213507652283
aF-1.1983402967453003
aF-1.5542247295379639
aF-1.9796607494354248
aF-2.4196105003356934
aF-3.112384557723999
aF-3.821671962738037
aF-4.809463024139404
aF-5.734326362609863
aF-7.074282646179199
aF-8.371918678283691
aF-9.903653144836426
aF-9.457132339477539
aF-7.9544596672058105
aF-6.54550313949585
aF-5.229619979858398
aF-4.199161529541016
aF-3.293821096420288
aF-2.4820423126220703
aF-1.8977422714233398
aF-1.3587380647659302
aF-1.0310523509979248
aF-0.715237557888031
aF-0.5169817805290222
aF-0.3538227379322052
aF-0.23140303790569305
aF-0.18416278064250946
aF-0.13648858666419983
aF-0.11094904690980911
aF-0.1618901491165161
aF-0.178535595536232
aF-0.24071979522705078
aF-0.3031788170337677
aF-0.3779737949371338
aF-0.47946950793266296
aF-0.6056719422340393
aF-0.7473799586296082
aF-0.9440993070602417
aF-1.1765109300613403
aF-1.442354440689087
aF-1.7985857725143433
aF-2.220607042312622
aF-2.7461585998535156
aF-3.4036762714385986
aF-4.181230545043945
aF-5.18446683883667
aF-6.080531597137451
aF-7.40652322769165
aF-8.717538833618164
aF-10.34500503540039
aF-9.035543441772461
aF-7.486200332641602
aF-6.254895210266113
aF-5.058767795562744
aF-4.016845226287842
aF-3.1225101947784424
aF-2.4694719314575195
aF-1.8758162260055542
aF-1.3916584253311157
aF-1.0340121984481812
aF-0.7642366290092468
aF-0.523402750492096
aF-0.34291309118270874
aF-0.26154908537864685
aF-0.15813954174518585
aF-0.11003841459751129
aF-0.08619041740894318
aF-0.08055628836154938
aF-0.08069249242544174
aF-0.09988271445035934
aF-0.11576487123966217
aF-0.1411854475736618
aF-0.163949653506279
aF-0.18954935669898987
aF-0.21441009640693665
aF-0.23936794698238373
aF-0.2570642828941345
aF-0.284053236246109
aF-0.3069963753223419
aF-0.3345053195953369
aF-0.3609923720359802
aF-0.39826828241348267
aF-0.43356603384017944
aF-0.49040594696998596
aF-0.550537109375
aF-0.6169247031211853
aF-0.7128615975379944
aF-0.8038415908813477
aF-0.9780941009521484
aF-1.1244966983795166
aF-1.332087516784668
aF-1.6308114528656006
aF-1.9444810152053833
aF-2.3364503383636475
aF-2.879516363143921
aF-3.5288705825805664
aF-4.342452526092529
aF-5.0833611488342285
aF-6.1376566886901855
aF-7.219732761383057
aF-9.056607246398926
aF-9.911678314208984
aF-9.241493225097656
aF-7.78953218460083
aF-6.4347147941589355
aF-5.25490665435791
aF-4.244362831115723
aF-3.315206289291382
aF-2.6041994094848633
aF-2.027172803878784
aF-1.5561033487319946
aF-1.1140310764312744
aF-0.8725475072860718
aF-0.5952123403549194
aF-0.44303426146507263
aF-0.291957825422287
aF-0.20685964822769165
aF-0.11956574767827988
aF-0.0791882649064064
aF-0.037293244153261185
aF-0.021575357764959335
aF-0.010599784553050995
aF-0.0010645365109667182
aF-0.00045742205111309886
aF-0.0043244375847280025
aF-0.008158973418176174
aF-0.011175154708325863
aF-0.011110151186585426
aF-0.008590471930801868
aF-0.007681272458285093
aF-0.006526454351842403
aF-0.007700624410063028
aF-0.005913593340665102
aF-0.004552754573523998
aF-0.0025253561325371265
aF-0.0010432784911245108
aF-0.0010274199303239584
aF-0.0050888038240373135
aF-0.012859427370131016
aF-0.021233882755041122
aF-0.021802520379424095
aF-0.02190561592578888
aF-0.02130056731402874
aF-0.020168013870716095
aF-0.01724793016910553
aF-0.014729422517120838
aF-0.014505406841635704
aF-0.009499424137175083
aF-0.004594496451318264
aF-0.0020298464223742485
aF-0.004117253236472607
aF-0.007980361580848694
aF-0.012296588160097599
aF-0.012147065252065659
aF-0.015178517438471317
aF-0.013902482576668262
aF-0.01213453896343708
aF-0.010349406860768795
aF-0.012340781278908253
aF-0.008457869291305542
aF-0.005776293110102415
aF-0.0018145627109333873
aF-0.002048133872449398
aF-0.005465083289891481
aF-0.008220490999519825
aF-0.009553312323987484
aF-0.012335133738815784
aF-0.010482466779649258
aF-0.009686007164418697
aF-0.00855697225779295
aF-0.008121692575514317
aF-0.0058822170831263065
aF-0.003697491716593504
aF-0.00202508014626801
aF-0.0024274454917758703
aF-0.0024363340344280005
aF-0.004986998159438372
aF-0.005459830164909363
aF-0.008310948498547077
aF-0.006733013316988945
aF-0.006232250016182661
aF-0.005257499869912863
aF-0.007087063509970903
aF-0.008193119429051876
aF-0.007905945181846619
aF-0.00484407739713788
aF-0.0005320057389326394
aF-0.0010505605023354292
aF-0.0033824127167463303
aF-0.006193818990141153
aF-0.009197554551064968
aF-0.010597082786262035
aF-0.01420818641781807
aF-0.014579343609511852
aF-0.017890289425849915
aF-0.016102030873298645
aF-0.014556536450982094
aF-0.012915513478219509
aF-0.010966598056256771
aF-0.008553671650588512
aF-0.007286378648132086
aF-0.008078368380665779
aF-0.008056815713644028
aF-0.012467383407056332
aF-0.008903425186872482
aF-0.008663667365908623
aF-0.007498488761484623
aF-0.006327143404632807
aF-0.0046424251049757
aF-0.004365912172943354
aF-0.004993393085896969
aF-0.005161623936146498
aF-0.00532703148201108
aF-0.0068543520756065845
aF-0.006245472002774477
aF-0.005313475616276264
aF-0.004920630715787411
aF-0.005193701479583979
aF-0.0036991077940911055
aF-0.002576135564595461
aF-0.0023156225215643644
aF-0.004114925861358643
aF-0.006320319604128599
aF-0.01090189442038536
aF-0.018010612577199936
aF-0.01943342015147209
aF-0.018195291981101036
aF-0.016209518536925316
aF-0.01425716932862997
aF-0.012684755027294159
aF-0.00924618262797594
aF-0.007621379569172859
aF-0.00314902700483799
aF-0.0033165502827614546
aF-0.004557995591312647
aF-0.007411453872919083
aF-0.004791044630110264
aF-0.004104603547602892
aF-0.004064318723976612
aF-0.005907791666686535
aF-0.004267106298357248
aF-0.0030729970894753933
aF-0.0013135878834873438
aF-0.0005445395363494754
aF-0.0004850708064623177
aF-0.003874678397551179
aF-0.005794409196823835
aF-0.004573442041873932
aF-0.0065942248329520226
aF-0.004062127787619829
aF-0.00472906231880188
aF-0.006596533115953207
aF-0.003699529217556119
aF-0.0032165925949811935
aF-0.004284380469471216
aF-0.007951331324875355
aF-0.01108101848512888
aF-0.013197029009461403
aF-0.018240561708807945
aF-0.015864938497543335
aF-0.018101351335644722
aF-0.01636854186654091
aF-0.014343377202749252
aF-0.012208843603730202
aF-0.009799853898584843
aF-0.007701830472797155
aF-0.006042739376425743
aF-0.005529947113245726
aF-0.005462102126330137
aF-0.005323370452970266
aF-0.005381234921514988
aF-0.005663610529154539
aF-0.006036657374352217
aF-0.004899214953184128
aF-0.004142507910728455
aF-0.004569969139993191
aF-0.007746278308331966
aF-0.004569339565932751
aF-0.0011256665457040071
aF-0.0004860055632889271
aF-0.003984157461673021
aF-0.008457299321889877
aF-0.007209353614598513
aF-0.006406895816326141
aF-0.00444258376955986
aF-0.006043612957000732
aF-0.0036986288614571095
aF-0.003835259936749935
aF-0.0009224730893038213
aF-0.0016048081452026963
aF-0.0018328811274841428
aF-0.0031654788181185722
aF-0.007778617087751627
aF-0.011286625638604164
aF-0.01352894026786089
aF-0.01290682703256607
aF-0.015207190066576004
aF-0.013602149672806263
aF-0.014560027047991753
aF-0.013620390556752682
aF-0.013514705002307892
aF-0.0137632442638278
aF-0.014346790499985218
a.