(lp0
F-0.01911929063498974
aF-10.813344955444336
aF-9.810510635375977
aF-9.790885925292969
aF-9.713913917541504
aF-9.636247634887695
aF-9.539790153503418
aF-9.443204879760742
aF-9.346787452697754
aF-9.215204238891602
aF-9.06556510925293
aF-8.897326469421387
aF-8.730480194091797
aF-8.514719009399414
aF-8.297745704650879
aF-8.066458702087402
aF-7.806896686553955
aF-7.545563220977783
aF-7.261767387390137
aF-6.977321147918701
aF-6.684572696685791
aF-6.421706676483154
aF-6.183168411254883
aF-5.964992046356201
aF-5.789504051208496
aF-5.665557861328125
aF-5.5718793869018555
aF-5.524388313293457
aF-5.510467052459717
aF-5.556036949157715
aF-5.6617913246154785
aF-5.798681735992432
aF-5.987083911895752
aF-6.227121353149414
aF-6.5597944259643555
aF-6.967187404632568
aF-7.479442596435547
aF-8.054014205932617
aF-8.755770683288574
aF-9.665902137756348
aF-9.558484077453613
aF-8.638802528381348
aF-7.683128833770752
aF-6.753500461578369
aF-5.899232864379883
aF-5.10044527053833
aF-4.383744716644287
aF-3.7877259254455566
aF-3.303013324737549
aF-2.8766238689422607
aF-2.551625967025757
aF-2.3018198013305664
aF-2.123636484146118
aF-2.0135579109191895
aF-1.9529131650924683
aF-1.9483879804611206
aF-1.9959839582443237
aF-2.1033713817596436
aF-2.25121808052063
aF-2.499640941619873
aF-2.774904489517212
aF-3.16353178024292
aF-3.590949773788452
aF-4.141476154327393
aF-4.7699294090271
aF-5.43109655380249
aF-6.402339458465576
aF-7.255776405334473
aF-8.398341178894043
aF-9.790895462036133
aF-9.499369621276855
aF-8.234216690063477
aF-7.0101728439331055
aF-5.891369342803955
aF-4.878971576690674
aF-4.0110182762146
aF-3.272113084793091
aF-2.6571357250213623
aF-2.1838772296905518
aF-1.7735083103179932
aF-1.4485032558441162
aF-1.1905272006988525
aF-0.9977568984031677
aF-0.8426882028579712
aF-0.733773410320282
aF-0.6371777653694153
aF-0.5747127532958984
aF-0.5289121270179749
aF-0.49577105045318604
aF-0.4825036823749542
aF-0.4763464033603668
aF-0.48640307784080505
aF-0.5000321269035339
aF-0.5291694402694702
aF-0.5569592118263245
aF-0.5973961353302002
aF-0.643083393573761
aF-0.7101424336433411
aF-0.7894506454467773
aF-0.9032402038574219
aF-1.0028374195098877
aF-1.1829183101654053
aF-1.3729466199874878
aF-1.6438806056976318
aF-1.9482094049453735
aF-2.355043649673462
aF-2.862274408340454
aF-3.507725477218628
aF-4.191160678863525
aF-4.987946033477783
aF-6.032790184020996
aF-7.192089080810547
aF-8.309983253479004
aF-9.879617691040039
aF-9.488102912902832
aF-8.129051208496094
aF-6.743608474731445
aF-5.559814453125
aF-4.490976810455322
aF-3.519526720046997
aF-2.80499005317688
aF-2.1548593044281006
aF-1.677299976348877
aF-1.2585312128067017
aF-0.9208746552467346
aF-0.6833579540252686
aF-0.47601479291915894
aF-0.36334195733070374
aF-0.22587662935256958
aF-0.16049937903881073
aF-0.0894036740064621
aF-0.0509352944791317
aF-0.024343781173229218
aF-0.012294599786400795
aF-0.0025862460024654865
aF-0.0006401381688192487
aF-0.002878376981243491
aF-0.0071357605047523975
aF-0.014340282417833805
aF-0.02120957151055336
aF-0.02130192331969738
aF-0.023850606754422188
aF-0.02033676765859127
aF-0.01822739467024803
aF-0.015755968168377876
aF-0.014467380940914154
aF-0.009417076595127583
aF-0.007034529000520706
aF-0.008358861319720745
aF-0.00985766015946865
aF-0.014373051933944225
aF-0.015901945531368256
aF-0.01699144020676613
aF-0.016084296628832817
aF-0.0162512119859457
aF-0.015385913662612438
aF-0.014351019635796547
aF-0.013165278360247612
aF-0.013336600735783577
aF-0.011524271219968796
aF-0.013390487991273403
aF-0.011847779154777527
aF-0.011424736119806767
aF-0.011443639174103737
aF-0.01367765013128519
aF-0.015140320174396038
aF-0.01831113174557686
aF-0.017265573143959045
aF-0.015462866052985191
aF-0.013830604031682014
aF-0.011723436415195465
aF-0.009228059090673923
aF-0.0073651825077831745
aF-0.005490916781127453
aF-0.0042948294430971146
aF-0.003371437080204487
aF-0.0022186613641679287
aF-0.0006636094185523689
aF-0.0014672435354441404
aF-0.002057859441265464
aF-0.0032377615571022034
aF-0.005828885827213526
aF-0.012078576721251011
aF-0.020283367484807968
aF-0.031121937558054924
aF-0.030704496428370476
aF-0.03770166262984276
aF-0.03584115207195282
aF-0.03554012253880501
aF-0.03488932177424431
aF-0.03171951696276665
aF-0.028557762503623962
aF-0.02587532438337803
aF-0.020522162318229675
aF-0.01756218820810318
aF-0.01588926836848259
aF-0.01898336596786976
aF-0.01749393902719021
aF-0.018383029848337173
aF-0.019683096557855606
aF-0.017668820917606354
aF-0.01949361525475979
aF-0.01810052990913391
aF-0.017196357250213623
aF-0.015817860141396523
aF-0.01362623181194067
aF-0.011593615636229515
aF-0.010441284626722336
aF-0.010260330513119698
aF-0.01572100818157196
aF-0.015524445101618767
aF-0.01654559187591076
aF-0.01364759262651205
aF-0.012546407990157604
aF-0.012449589557945728
aF-0.008394692093133926
aF-0.0050676120445132256
aF-0.002403725404292345
aF-0.002619391307234764
aF-0.005538059398531914
aF-0.018828699365258217
aF-0.023315463215112686
aF-0.033699676394462585
aF-0.027273239567875862
aF-0.02748233638703823
aF-0.02466912940144539
aF-0.030201459303498268
aF-0.04873406141996384
aF-0.06483934074640274
aF-0.10129974782466888
aF-0.14927822351455688
aF-0.26506927609443665
aF-0.4304378628730774
aF-0.49930810928344727
aF-0.7639787197113037
aF-0.8975456953048706
aF-1.2615623474121094
aF-1.6422518491744995
aF-2.1954212188720703
aF-2.65702486038208
aF-3.529583692550659
aF-4.1689772605896
aF-5.144608020782471
aF-6.447234630584717
aF-7.729732990264893
aF-9.23751449584961
aF-10.16075611114502
aF-8.590886116027832
aF-7.085657119750977
aF-5.774353981018066
aF-4.535866737365723
aF-3.547769546508789
aF-2.730591297149658
aF-2.0255560874938965
aF-1.503450870513916
aF-1.096498966217041
aF-0.7680021524429321
aF-0.590177595615387
aF-0.38349708914756775
aF-0.2671087682247162
aF-0.20763690769672394
aF-0.1748422235250473
aF-0.18499791622161865
aF-0.21415327489376068
aF-0.28676438331604004
aF-0.371128112077713
aF-0.49945467710494995
aF-0.6231145858764648
aF-0.8016811013221741
aF-1.0402042865753174
aF-1.2961866855621338
aF-1.6189030408859253
aF-2.1614575386047363
aF-2.6568973064422607
aF-3.272308349609375
aF-4.082203388214111
aF-5.1015448570251465
aF-6.042552947998047
aF-7.509033679962158
aF-8.799555778503418
aF-10.335264205932617
aF-9.030473709106445
aF-7.553600311279297
aF-6.1502180099487305
aF-5.018062591552734
aF-3.902859687805176
aF-3.0944252014160156
aF-2.3626599311828613
aF-1.7668492794036865
aF-1.3016310930252075
aF-0.9422783851623535
aF-0.6694198250770569
aF-0.4580841362476349
aF-0.30651402473449707
aF-0.25780078768730164
aF-0.13935281336307526
aF-0.12916770577430725
aF-0.11679086834192276
aF-0.1332409679889679
aF-0.16322554647922516
aF-0.2144182026386261
aF-0.2400837540626526
aF-0.3423091471195221
aF-0.39223262667655945
aF-0.49499234557151794
aF-0.6050193309783936
aF-0.723386824131012
aF-0.8830171823501587
aF-1.1006553173065186
aF-1.3382315635681152
aF-1.687949299812317
aF-2.039870500564575
aF-2.5244553089141846
aF-3.1039016246795654
aF-3.892141819000244
aF-4.637746334075928
aF-5.730809688568115
aF-6.805866718292236
aF-8.134367942810059
aF-9.509438514709473
aF-9.798354148864746
aF-8.338621139526367
aF-6.943744659423828
aF-5.673042297363281
aF-4.585598945617676
aF-3.5688207149505615
aF-2.8240110874176025
aF-2.159820079803467
aF-1.6320618391036987
aF-1.1724454164505005
aF-0.8677687644958496
aF-0.6155768036842346
aF-0.44624897837638855
aF-0.2769203782081604
aF-0.19736447930335999
aF-0.14162354171276093
aF-0.09046505391597748
aF-0.06784935295581818
aF-0.06338697671890259
aF-0.06643207371234894
aF-0.0805981457233429
aF-0.08270278573036194
aF-0.09333650022745132
aF-0.09892310947179794
aF-0.10272462666034698
aF-0.10677381604909897
aF-0.10725081712007523
aF-0.10571232438087463
aF-0.10396827757358551
aF-0.10273266583681107
aF-0.09893519431352615
aF-0.09389074891805649
aF-0.08788502961397171
aF-0.08362708240747452
aF-0.07387667149305344
aF-0.06631232053041458
aF-0.05438322201371193
aF-0.043431539088487625
aF-0.03713404759764671
aF-0.027123507112264633
aF-0.018444204702973366
aF-0.007086311466991901
aF-0.002322844695299864
aF-0.005758590064942837
aF-0.006102470681071281
aF-0.006949704606086016
aF-0.003962994087487459
aF-0.005704570095986128
aF-0.005095151253044605
aF-0.005250141490250826
aF-0.0025762661825865507
aF-0.002137270523235202
aF-0.0026044161058962345
aF-0.0010300865396857262
aF-0.0009255879558622837
aF-0.0037288866005837917
aF-0.0021949117071926594
aF-0.0005472629563882947
aF-0.0011137430556118488
aF-0.0007213512435555458
aF-0.0010641476837918162
aF-0.00292457127943635
aF-0.002466225530952215
aF-0.0025575042236596346
aF-0.0029321548063308
aF-0.003478731494396925
aF-0.004894420504570007
aF-0.0036965731997042894
aF-0.0038622934371232986
aF-0.0043786149471998215
aF-0.005928731989115477
aF-0.0018091421807184815
aF-0.0015064855106174946
aF-0.006126461084932089
aF-0.0056049213744699955
aF-0.0038596661761403084
aF-0.011446474120020866
aF-0.0335882231593132
aF-0.06335242092609406
aF-0.10668376833200455
aF-0.15951652824878693
aF-0.25186145305633545
aF-0.3803107440471649
aF-0.6655699610710144
aF-0.8695014715194702
aF-1.3804919719696045
aF-1.9979206323623657
aF-2.864088535308838
aF-3.9819414615631104
aF-5.5909423828125
aF-7.176236152648926
aF-9.356983184814453
aF-10.061808586120605
aF-8.101211547851562
aF-6.220324516296387
aF-4.796116352081299
aF-3.5571770668029785
aF-2.6476757526397705
aF-1.9592076539993286
aF-1.4583449363708496
aF-1.0203255414962769
aF-0.7492822408676147
aF-0.5168630480766296
aF-0.3813725709915161
aF-0.26427170634269714
aF-0.2398863583803177
aF-0.19019199907779694
aF-0.27014487981796265
aF-0.3415627181529999
aF-0.4688861668109894
aF-0.6179481744766235
aF-0.8054486513137817
aF-1.0793339014053345
aF-1.3756588697433472
aF-1.7689800262451172
aF-2.342808485031128
aF-2.9372382164001465
aF-3.6944382190704346
aF-4.653977394104004
aF-5.574795722961426
aF-6.73484468460083
aF-8.267847061157227
aF-9.627079010009766
aF-9.682816505432129
aF-8.071576118469238
aF-6.621350288391113
aF-5.3015642166137695
aF-4.247013092041016
aF-3.2342677116394043
aF-2.4591283798217773
aF-1.8581022024154663
aF-1.378042459487915
aF-0.9632592797279358
aF-0.7238190174102783
aF-0.46705684065818787
aF-0.36072731018066406
aF-0.24871493875980377
aF-0.19517314434051514
aF-0.1830829679965973
aF-0.178883895277977
aF-0.24525994062423706
aF-0.3016356825828552
aF-0.413606196641922
aF-0.5337836742401123
aF-0.6693437695503235
aF-0.8665533065795898
aF-1.1076433658599854
aF-1.429275393486023
aF-1.7661831378936768
aF-2.3111793994903564
aF-2.82481050491333
aF-3.52457857131958
aF-4.425633907318115
aF-5.431305885314941
aF-6.547695636749268
aF-7.777638912200928
aF-9.234176635742188
aF-10.091316223144531
aF-8.504303932189941
aF-7.133413791656494
aF-5.824026584625244
aF-4.625843048095703
aF-3.6095340251922607
aF-2.7727322578430176
aF-2.1392295360565186
aF-1.5661333799362183
aF-1.1864959001541138
aF-0.8446962833404541
aF-0.5680304169654846
aF-0.3803482949733734
aF-0.3098108768463135
aF-0.17937354743480682
aF-0.149306058883667
aF-0.1274934560060501
aF-0.13705191016197205
aF-0.14853055775165558
aF-0.19129051268100739
aF-0.24084384739398956
aF-0.3120323121547699
aF-0.3783874213695526
aF-0.4705553948879242
aF-0.5688703656196594
aF-0.6973899602890015
aF-0.8493815660476685
aF-1.0282145738601685
aF-1.2762783765792847
aF-1.5598924160003662
aF-1.8980951309204102
aF-2.3655831813812256
aF-2.8976833820343018
aF-3.615630626678467
aF-4.416696548461914
aF-5.3543829917907715
aF-6.3076581954956055
aF-7.656327724456787
aF-8.989630699157715
aF-10.345905303955078
aF-8.852330207824707
aF-7.4080047607421875
aF-6.076565265655518
aF-4.973451614379883
aF-3.8913381099700928
aF-3.080739974975586
aF-2.3546526432037354
aF-1.765824556350708
aF-1.315782904624939
aF-0.9913043975830078
aF-0.7087256908416748
aF-0.5180392265319824
aF-0.34569188952445984
aF-0.2449825406074524
aF-0.14549334347248077
aF-0.1183738186955452
aF-0.06375699490308762
aF-0.06369353830814362
aF-0.05681587755680084
aF-0.06225714832544327
aF-0.07877017557621002
aF-0.08605845272541046
aF-0.09380292147397995
aF-0.09975175559520721
aF-0.10179243236780167
aF-0.10082244873046875
aF-0.09438782185316086
aF-0.08755718916654587
aF-0.07972704619169235
aF-0.07057957351207733
aF-0.06095146760344505
aF-0.05322485789656639
aF-0.046121612191200256
aF-0.03807992860674858
aF-0.032064445316791534
aF-0.024213112890720367
aF-0.01903502829372883
aF-0.017263080924749374
aF-0.020973818376660347
aF-0.02043352648615837
aF-0.020689193159341812
aF-0.018092181533575058
aF-0.015447408892214298
aF-0.013567568734288216
aF-0.01131783053278923
aF-0.010532359592616558
aF-0.005212139338254929
aF-0.0015791961923241615
aF-0.0001311527448706329
aF-0.0005563402082771063
aF-0.002205811906605959
aF-0.0008685171487741172
aF-0.0021232059225440025
aF-0.0006191064021550119
aF-0.0006346201989799738
aF-0.0015518106520175934
aF-0.0015729801962152123
aF-0.0019718287512660027
aF-0.00457968981936574
aF-0.0039140451699495316
aF-0.0020996674429625273
aF-0.002707266714423895
aF-0.0029905689880251884
aF-0.0038316312711685896
aF-0.002332288073375821
aF-0.0007404767093248665
aF-0.0006765358266420662
aF-0.0027514854446053505
aF-0.0031004799529910088
aF-0.0060452986508607864
aF-0.0064604138024151325
aF-0.009130452759563923
aF-0.008915436454117298
aF-0.01022329367697239
aF-0.008900557644665241
aF-0.008113514631986618
aF-0.006987079046666622
aF-0.0057411761954426765
aF-0.00485101155936718
aF-0.006614443380385637
aF-0.004416092298924923
aF-0.004342909436672926
aF-0.004365167580544949
aF-0.0038650783244520426
aF-0.0023784369695931673
aF-0.004113378468900919
aF-0.009112555533647537
aF-0.01555954571813345
aF-0.017443111166357994
aF-0.016427623108029366
aF-0.017712170258164406
aF-0.016649821773171425
aF-0.01730031706392765
aF-0.01677439734339714
aF-0.015804965049028397
aF-0.01510389894247055
aF-0.02002929337322712
aF-0.02401496097445488
aF-0.029367497190833092
aF-0.029712926596403122
aF-0.027200734242796898
aF-0.023603476583957672
aF-0.019929008558392525
aF-0.016550397500395775
aF-0.011358026415109634
aF-0.007252590265125036
aF-0.0043984693475067616
aF-0.0048368568532168865
aF-0.004764724522829056
aF-0.00655612675473094
aF-0.00917231198400259
aF-0.007672836072742939
aF-0.007074811961501837
aF-0.007557866163551807
aF-0.007631527725607157
aF-0.007352882996201515
aF-0.0020428153220564127
aF-0.0012484177714213729
aF-0.0011766287498176098
aF-0.0029063988476991653
aF-0.01768234744668007
aF-0.040035899728536606
aF-0.0706043615937233
aF-0.12489049881696701
aF-0.1943790465593338
aF-0.28204724192619324
aF-0.43690237402915955
aF-0.6403684616088867
aF-0.9685280323028564
aF-1.404841661453247
aF-2.0065114498138428
aF-2.896322727203369
aF-4.095001220703125
aF-5.480267524719238
aF-7.270421504974365
aF-9.30255126953125
aF-9.948704719543457
aF-7.575676441192627
aF-5.675661087036133
aF-4.25571870803833
aF-3.0560455322265625
aF-2.0417356491088867
aF-1.4187190532684326
aF-0.9494558572769165
aF-0.6118855476379395
aF-0.5586739182472229
aF-0.4861851632595062
aF-0.4875864088535309
aF-0.6342143416404724
aF-0.9084469676017761
aF-1.1844109296798706
aF-1.6766350269317627
aF-2.3266565799713135
aF-3.096010684967041
aF-4.158996105194092
aF-5.250263214111328
aF-6.649655342102051
aF-8.308528900146484
aF-10.177105903625488
aF-9.47142219543457
aF-7.8359150886535645
aF-6.1884870529174805
aF-4.844042778015137
aF-3.7455010414123535
aF-2.876770257949829
aF-2.1375298500061035
aF-1.5641069412231445
aF-1.1075291633605957
aF-0.782198965549469
aF-0.5865047574043274
aF-0.40268105268478394
aF-0.2743656039237976
aF-0.2243880033493042
aF-0.2027696669101715
aF-0.18406005203723907
aF-0.25055354833602905
aF-0.31767353415489197
aF-0.4510543644428253
aF-0.5457252860069275
aF-0.7282698154449463
aF-0.9171213507652283
aF-1.1983402967453003
aF-1.5542247295379639
aF-1.9796607494354248
aF-2.4196105003356934
aF-3.112384557723999
aF-3.821671962738037
aF-4.809463024139404
aF-5.734326362609863
aF-7.074282646179199
aF-8.371918678283691
aF-9.903653144836426
aF-9.457132339477539
aF-7.9544596672058105
aF-6.54550313949585
aF-5.229619979858398
aF-4.199161529541016
aF-3.293821096420288
aF-2.4820423126220703
aF-1.8977422714233398
aF-1.3587380647659302
aF-1.0310523509979248
aF-0.715237557888031
aF-0.5169817805290222
aF-0.3538227379322052
aF-0.23140303790569305
aF-0.18416278064250946
aF-0.13648858666419983
aF-0.11094904690980911
aF-0.1618901491165161
aF-0.178535595536232
aF-0.24071979522705078
aF-0.3031788170337677
aF-0.3779737949371338
aF-0.47946950793266296
aF-0.6056719422340393
aF-0.7473799586296082
aF-0.9440993070602417
aF-1.1765109300613403
aF-1.442354440689087
aF-1.7985857725143433
aF-2.220607042312622
aF-2.7461585998535156
aF-3.4036762714385986
aF-4.181230545043945
aF-5.18446683883667
aF-6.080531597137451
aF-7.40652322769165
aF-8.717538833618164
aF-10.34500503540039
aF-9.035543441772461
aF-7.486200332641602
aF-6.254895210266113
aF-5.058767795562744
aF-4.016845226287842
aF-3.1225101947784424
aF-2.4694719314575195
aF-1.8758162260055542
aF-1.3916584253311157
aF-1.0340121984481812
aF-0.7642366290092468
aF-0.523402750492096
aF-0.34291309118270874
aF-0.26154908537864685
aF-0.15813954174518585
aF-0.11003841459751129
aF-0.08619041740894318
aF-0.08055628836154938
aF-0.08069249242544174
aF-0.09988271445035934
aF-0.11576487123966217
aF-0.1411854475736618
aF-0.163949653506279
aF-0.18954935669898987
aF-0.21441009640693665
aF-0.23936794698238373
aF-0.2570642828941345
aF-0.284053236246109
aF-0.3069963753223419
aF-0.3345053195953369
aF-0.3609923720359802
aF-0.39826828241348267
aF-0.43356603384017944
aF-0.49040594696998596
aF-0.550537109375
aF-0.6169247031211853
aF-0.7128615975379944
aF-0.8038415908813477
aF-0.9780941009521484
aF-1.1244966983795166
aF-1.332087516784668
aF-1.6308114528656006
aF-1.9444810152053833
aF-2.3364503383636475
aF-2.879516363143921
aF-3.5288705825805664
aF-4.342452526092529
aF-5.0833611488342285
aF-6.1376566886901855
aF-7.219732761383057
aF-9.056607246398926
aF-9.911678314208984
aF-9.241493225097656
aF-7.78953218460083
aF-6.4347147941589355
aF-5.25490665435791
aF-4.244362831115723
aF-3.315206289291382
aF-2.6041994094848633
aF-2.027172803878784
aF-1.5561033487319946
aF-1.1140310764312744
aF-0.8725475072860718
aF-0.5952123403549194
aF-0.44303426146507263
aF-0.291957825422287
aF-0.20685964822769165
aF-0.11956574767827988
aF-0.0791882649064064
aF-0.037293244153261185
aF-0.021575357764959335
aF-0.010599784553050995
aF-0.0010645365109667182
aF-0.00045742205111309886
aF-0.0043244375847280025
aF-0.008158973418176174
aF-0.011175154708325863
aF-0.011110151186585426
aF-0.008590471930801868
aF-0.007681272458285093
aF-0.006526454351842403
aF-0.007700624410063028
aF-0.005913593340665102
aF-0.004552754573523998
aF-0.0025253561325371265
aF-0.0010432784911245108
aF-0.0010274199303239584
aF-0.0050888038240373135
aF-0.012859427370131016
aF-0.021233882755041122
aF-0.021802520379424095
aF-0.02190561592578888
aF-0.02130056731402874
aF-0.020168013870716095
aF-0.01724793016910553
aF-0.014729422517120838
aF-0.014505406841635704
aF-0.009499424137175083
aF-0.004594496451318264
aF-0.0020298464223742485
aF-0.004117253236472607
aF-0.007980361580848694
aF-0.012296588160097599
aF-0.012147065252065659
aF-0.015178517438471317
aF-0.013902482576668262
aF-0.01213453896343708
aF-0.010349406860768795
aF-0.012340781278908253
aF-0.008457869291305542
aF-0.005776293110102415
aF-0.0018145627109333873
aF-0.002048133872449398
aF-0.005465083289891481
aF-0.008220490999519825
aF-0.009553312323987484
aF-0.012335133738815784
aF-0.010482466779649258
aF-0.009686007164418697
aF-0.00855697225779295
aF-0.008121692575514317
aF-0.0058822170831263065
aF-0.003697491716593504
aF-0.00202508014626801
aF-0.0024274454917758703
aF-0.0024363340344280005
aF-0.004986998159438372
aF-0.005459830164909363
aF-0.008310948498547077
aF-0.006733013316988945
aF-0.006232250016182661
aF-0.005257499869912863
aF-0.007087063509970903
aF-0.008193119429051876
aF-0.007905945181846619
aF-0.00484407739713788
aF-0.0005320057389326394
aF-0.0010505605023354292
aF-0.0033824127167463303
aF-0.006193818990141153
aF-0.009197554551064968
aF-0.010597082786262035
aF-0.01420818641781807
aF-0.014579343609511852
aF-0.017890289425849915
aF-0.016102030873298645
aF-0.014556536450982094
aF-0.012915513478219509
aF-0.010966598056256771
aF-0.008553671650588512
aF-0.007286378648132086
aF-0.008078368380665779
aF-0.008056815713644028
aF-0.012467383407056332
aF-0.008903425186872482
aF-0.008663667365908623
aF-0.007498488761484623
aF-0.006327143404632807
aF-0.0046424251049757
aF-0.004365912172943354
aF-0.004993393085896969
aF-0.005161623936146498
aF-0.00532703148201108
aF-0.0068543520756065845
aF-0.006245472002774477
aF-0.005313475616276264
aF-0.004920630715787411
aF-0.005193701479583979
aF-0.0036991077940911055
aF-0.002576135564595461
aF-0.0023156225215643644
aF-0.004114925861358643
aF-0.006320319604128599
aF-0.01090189442038536
aF-0.018010612577199936
aF-0.01943342015147209
aF-0.018195291981101036
aF-0.016209518536925316
aF-0.01425716932862997
aF-0.012684755027294159
aF-0.00924618262797594
aF-0.007621379569172859
aF-0.00314902700483799
aF-0.0033165502827614546
aF-0.004557995591312647
aF-0.007411453872919083
aF-0.004791044630110264
aF-0.004104603547602892
aF-0.004064318723976612
aF-0.005907791666686535
aF-0.004267106298357248
aF-0.0030729970894753933
aF-0.0013135878834873438
aF-0.0005445395363494754
aF-0.0004850708064623177
aF-0.003874678397551179
aF-0.005794409196823835
aF-0.004573442041873932
aF-0.0065942248329520226
aF-0.004062127787619829
aF-0.00472906231880188
aF-0.006596533115953207
aF-0.003699529217556119
aF-0.0032165925949811935
aF-0.004284380469471216
aF-0.007951331324875355
aF-0.01108101848512888
aF-0.013197029009461403
aF-0.018240561708807945
aF-0.015864938497543335
aF-0.018101351335644722
aF-0.01636854186654091
aF-0.014343377202749252
aF-0.012208843603730202
aF-0.009799853898584843
aF-0.007701830472797155
aF-0.006042739376425743
aF-0.005529947113245726
aF-0.005462102126330137
aF-0.005323370452970266
aF-0.005381234921514988
aF-0.005663610529154539
aF-0.006036657374352217
aF-0.004899214953184128
aF-0.004142507910728455
aF-0.004569969139993191
aF-0.007746278308331966
aF-0.004569339565932751
aF-0.0011256665457040071
aF-0.0004860055632889271
aF-0.003984157461673021
aF-0.008457299321889877
aF-0.007209353614598513
aF-0.006406895816326141
aF-0.00444258376955986
aF-0.006043612957000732
aF-0.0036986288614571095
aF-0.003835259936749935
aF-0.0009224730893038213
aF-0.0016048081452026963
aF-0.0018328811274841428
aF-0.0031654788181185722
aF-0.007778617087751627
aF-0.011286625638604164
aF-0.01352894026786089
aF-0.01290682703256607
aF-0.015207190066576004
aF-0.013602149672806263
aF-0.014560027047991753
aF-0.013620390556752682
aF-0.013514705002307892
aF-0.0137632442638278
aF-0.014346790499985218
aF-0.018623268231749535
aF-10.77404499053955
aF-9.771181106567383
aF-9.771181106567383
aF-9.69422721862793
aF-9.598572731018066
aF-9.53864860534668
aF-9.461226463317871
aF-9.365937232971191
aF-9.235466957092285
aF-9.101266860961914
aF-8.935354232788086
aF-8.767317771911621
aF-8.536893844604492
aF-8.314661026000977
aF-8.084815979003906
aF-7.809805870056152
aF-7.516935348510742
aF-7.226858139038086
aF-6.943774223327637
aF-6.640695571899414
aF-6.373468399047852
aF-6.149473190307617
aF-5.933874607086182
aF-5.759474277496338
aF-5.6345744132995605
aF-5.557719707489014
aF-5.5264363288879395
aF-5.538484573364258
aF-5.5855488777160645
aF-5.659322261810303
aF-5.798695087432861
aF-5.969806671142578
aF-6.1930084228515625
aF-6.508286476135254
aF-6.896753311157227
aF-7.411535739898682
aF-8.054534912109375
aF-8.787541389465332
aF-9.796958923339844
aF-9.473747253417969
aF-8.557596206665039
aF-7.611541748046875
aF-6.688706874847412
aF-5.805685520172119
aF-5.020542621612549
aF-4.345634460449219
aF-3.74835205078125
aF-3.2622296810150146
aF-2.8498387336730957
aF-2.518965005874634
aF-2.2649431228637695
aF-2.0914463996887207
aF-1.9641598463058472
aF-1.8932265043258667
aF-1.880259394645691
aF-1.916202425956726
aF-2.011654853820801
aF-2.1350502967834473
aF-2.3553314208984375
aF-2.5609118938446045
aF-2.9584341049194336
aF-3.3197219371795654
aF-3.831942081451416
aF-4.453554153442383
aF-5.183538436889648
aF-5.970266342163086
aF-6.820467472076416
aF-8.086301803588867
aF-9.206476211547852
aF-10.017623901367188
aF-8.723592758178711
aF-7.487388610839844
aF-6.3427605628967285
aF-5.312926769256592
aF-4.40250301361084
aF-3.593667507171631
aF-2.886359930038452
aF-2.383955240249634
aF-1.9029338359832764
aF-1.5579142570495605
aF-1.2749922275543213
aF-1.0498294830322266
aF-0.8715582489967346
aF-0.7393446564674377
aF-0.642839789390564
aF-0.574754536151886
aF-0.5308200120925903
aF-0.5046987533569336
aF-0.49516725540161133
aF-0.4948047399520874
aF-0.5040103793144226
aF-0.5201830267906189
aF-0.5457529425621033
aF-0.5814696550369263
aF-0.6348568201065063
aF-0.7148551940917969
aF-0.7981674671173096
aF-0.9083016514778137
aF-1.0380669832229614
aF-1.2210458517074585
aF-1.4460126161575317
aF-1.7937290668487549
aF-2.0846731662750244
aF-2.5315353870391846
aF-3.0973355770111084
aF-3.612401008605957
aF-4.58001184463501
aF-5.509152412414551
aF-6.395541191101074
aF-7.5810747146606445
aF-8.85004997253418
aF-10.390924453735352
aF-8.94874382019043
aF-7.531381607055664
aF-6.269352436065674
aF-5.078871250152588
aF-4.098994731903076
aF-3.1973071098327637
aF-2.5171902179718018
aF-1.938167691230774
aF-1.4292248487472534
aF-1.0963915586471558
aF-0.795161783695221
aF-0.5951668620109558
aF-0.44316571950912476
aF-0.3004148304462433
aF-0.1818922460079193
aF-0.12415289133787155
aF-0.06629129499197006
aF-0.04024752601981163
aF-0.01957731880247593
aF-0.009240297600626945
aF-0.0008892216719686985
aF-0.0018134257989004254
aF-0.014826360158622265
aF-0.02137039229273796
aF-0.033493075519800186
aF-0.038028400391340256
aF-0.04274751618504524
aF-0.04765582084655762
aF-0.048134803771972656
aF-0.04917611554265022
aF-0.04883939400315285
aF-0.04983002319931984
aF-0.04892176389694214
aF-0.04906897991895676
aF-0.047846585512161255
aF-0.04763163626194
aF-0.04932805523276329
aF-0.046746205538511276
aF-0.04963694512844086
aF-0.044432010501623154
aF-0.04130129516124725
aF-0.036691054701805115
aF-0.031383808702230453
aF-0.027533333748579025
aF-0.025797467678785324
aF-0.024807918816804886
aF-0.031049905344843864
aF-0.032669756561517715
aF-0.0397845059633255
aF-0.042301252484321594
aF-0.04079723358154297
aF-0.04131820425391197
aF-0.03553624078631401
aF-0.030594680458307266
aF-0.02468671090900898
aF-0.018274564296007156
aF-0.013639512471854687
aF-0.013100585900247097
aF-0.01630508154630661
aF-0.016741352155804634
aF-0.020098911598324776
aF-0.017425406724214554
aF-0.016687842085957527
aF-0.015333672054111958
aF-0.013178829103708267
aF-0.012157327495515347
aF-0.013194928877055645
aF-0.017867324873805046
aF-0.02125188149511814
aF-0.029192043468356133
aF-0.03208634629845619
aF-0.03097018226981163
aF-0.030160967260599136
aF-0.028032448142766953
aF-0.024228990077972412
aF-0.02160407416522503
aF-0.0174126997590065
aF-0.014572505839169025
aF-0.013520629145205021
aF-0.016374971717596054
aF-0.01980792172253132
aF-0.026334190741181374
aF-0.02866763435304165
aF-0.02608705498278141
aF-0.023650487884879112
aF-0.021380949765443802
aF-0.017208194360136986
aF-0.012212959118187428
aF-0.010042928159236908
aF-0.01247748825699091
aF-0.012293006293475628
aF-0.01342954020947218
aF-0.013575704768300056
aF-0.01191497128456831
aF-0.010749870911240578
aF-0.009275862947106361
aF-0.008121946826577187
aF-0.006169469095766544
aF-0.005045460071414709
aF-0.0037654531188309193
aF-0.003205397166311741
aF-0.0047856890596449375
aF-0.00716194836422801
aF-0.008645039983093739
aF-0.01346819382160902
aF-0.01166258193552494
aF-0.010206656530499458
aF-0.009308477863669395
aF-0.009153817780315876
aF-0.006419801153242588
aF-0.0034856041893363
aF-0.002782996976748109
aF-0.004550601821392775
aF-0.00835332740098238
aF-0.015228349715471268
aF-0.023581188172101974
aF-0.02239770069718361
aF-0.022749457508325577
aF-0.022843264043331146
aF-0.025798307731747627
aF-0.027552200481295586
aF-0.02979973889887333
aF-0.02922237291932106
aF-0.029197005555033684
aF-0.026366576552391052
aF-0.0236069168895483
aF-0.020951703190803528
aF-0.017609141767024994
aF-0.014578165486454964
aF-0.013294416479766369
aF-0.01577887125313282
aF-0.019105060026049614
aF-0.01784355193376541
aF-0.01692344807088375
aF-0.015063278377056122
aF-0.022735582664608955
aF-0.03165536746382713
aF-0.064206562936306
aF-0.09569501876831055
aF-0.14408361911773682
aF-0.2140655219554901
aF-0.35802727937698364
aF-0.44549453258514404
aF-0.6055206060409546
aF-0.7344369292259216
aF-0.9833229184150696
aF-1.322823166847229
aF-1.6195627450942993
aF-2.0203354358673096
aF-2.6694371700286865
aF-3.381654977798462
aF-4.094925403594971
aF-5.023864269256592
aF-6.18060302734375
aF-7.270539283752441
aF-8.788737297058105
aF-10.141794204711914
aF-9.150385856628418
aF-7.620304107666016
aF-6.152123928070068
aF-4.957935333251953
aF-3.9072561264038086
aF-3.0324642658233643
aF-2.2731094360351562
aF-1.718279242515564
aF-1.270867943763733
aF-0.9118978381156921
aF-0.6478734016418457
aF-0.46114295721054077
aF-0.3083103597164154
aF-0.21390356123447418
aF-0.15932095050811768
aF-0.13778690993785858
aF-0.1286524534225464
aF-0.15160024166107178
aF-0.1791151911020279
aF-0.2352267950773239
aF-0.30702805519104004
aF-0.37488502264022827
aF-0.4618399441242218
aF-0.578214704990387
aF-0.6972276568412781
aF-0.8488835692405701
aF-1.0401631593704224
aF-1.3093217611312866
aF-1.612081527709961
aF-1.8787474632263184
aF-2.447455883026123
aF-3.0290451049804688
aF-3.9274542331695557
aF-4.1994853019714355
aF-5.326498985290527
aF-6.678023338317871
aF-7.767785549163818
aF-9.155060768127441
aF-10.13734245300293
aF-8.572164535522461
aF-7.182984352111816
aF-5.901379108428955
aF-4.798211574554443
aF-3.7694740295410156
aF-3.0368707180023193
aF-2.257322072982788
aF-1.7098745107650757
aF-1.2808109521865845
aF-0.9383147954940796
aF-0.699964165687561
aF-0.49419453740119934
aF-0.3401680588722229
aF-0.22037984430789948
aF-0.1530875861644745
aF-0.09697569906711578
aF-0.055768176913261414
aF-0.050867535173892975
aF-0.03732387721538544
aF-0.03885261341929436
aF-0.03923801705241203
aF-0.036709826439619064
aF-0.0383448451757431
aF-0.034731246531009674
aF-0.03204613924026489
aF-0.028541553765535355
aF-0.02620111033320427
aF-0.024934228509664536
aF-0.023333601653575897
aF-0.02391677163541317
aF-0.024348434060811996
aF-0.019314659759402275
aF-0.016304735094308853
aF-0.01581384986639023
aF-0.01528716366738081
aF-0.014459488913416862
aF-0.009816828183829784
aF-0.008147884160280228
aF-0.006731747183948755
aF-0.005265763960778713
aF-0.00488415127620101
aF-0.004443609155714512
aF-0.0040900190360844135
aF-0.0035670208744704723
aF-0.0032004837412387133
aF-0.0032698879949748516
aF-0.0044672186486423016
aF-0.005220240447670221
aF-0.0055507635697722435
aF-0.005958328023552895
aF-0.007953568361699581
aF-0.010473978705704212
aF-0.014259611256420612
aF-0.014611946418881416
aF-0.013947444036602974
aF-0.012900054454803467
aF-0.011575722135603428
aF-0.010127611458301544
aF-0.007695368956774473
aF-0.00626898230984807
aF-0.008851207792758942
aF-0.009934814646840096
aF-0.013806077651679516
aF-0.01721128635108471
aF-0.016145305708050728
aF-0.015356026589870453
aF-0.01388524193316698
aF-0.013188038021326065
aF-0.00923403911292553
aF-0.007067312020808458
aF-0.0059455218724906445
aF-0.006319921929389238
aF-0.007558345794677734
aF-0.013507220894098282
aF-0.019385073333978653
aF-0.02226749248802662
aF-0.026083314791321754
aF-0.021706124767661095
aF-0.019163817167282104
aF-0.017672516405582428
aF-0.01834973879158497
aF-0.01097723376005888
aF-0.005457822233438492
aF-0.0029532769694924355
aF-0.011042618192732334
aF-0.018203625455498695
aF-0.02429753914475441
aF-0.022514335811138153
aF-0.021310189738869667
aF-0.02085375040769577
aF-0.018228789791464806
aF-0.017590610310435295
aF-0.015181247144937515
aF-0.012987247668206692
aF-0.017697038128972054
aF-0.025153227150440216
aF-0.032933399081230164
aF-0.03932899236679077
aF-0.040168870240449905
aF-0.037303801625967026
aF-0.03355369716882706
aF-0.029171116650104523
aF-0.02437177300453186
aF-0.01856391504406929
aF-0.013840697705745697
aF-0.01284056156873703
aF-0.011882579885423183
aF-0.017682356759905815
aF-0.030164923518896103
aF-0.0432976633310318
aF-0.06766463071107864
aF-0.08723993599414825
aF-0.15930965542793274
aF-0.23408915102481842
aF-0.38691937923431396
aF-0.5630091428756714
aF-0.862316906452179
aF-1.2303353548049927
aF-1.926944613456726
aF-2.6667075157165527
aF-3.9572534561157227
aF-4.638760566711426
aF-6.477197170257568
aF-7.423936367034912
aF-9.854680061340332
aF-9.878145217895508
aF-8.155715942382812
aF-6.632558345794678
aF-5.191404342651367
aF-3.9141311645507812
aF-3.099724054336548
aF-2.194458246231079
aF-1.6108019351959229
aF-1.094787836074829
aF-0.7354727983474731
aF-0.616586446762085
aF-0.4001113772392273
aF-0.39979979395866394
aF-0.42178940773010254
aF-0.5016580820083618
aF-0.7392582893371582
aF-1.052492618560791
aF-1.3708032369613647
aF-1.892062783241272
aF-2.6383113861083984
aF-3.3802809715270996
aF-4.583597660064697
aF-5.485188961029053
aF-6.956611156463623
aF-8.467066764831543
aF-10.300369262695312
aF-9.266498565673828
aF-7.629679203033447
aF-6.0699286460876465
aF-4.776535511016846
aF-3.63724422454834
aF-2.7469675540924072
aF-2.0016417503356934
aF-1.4598095417022705
aF-0.9805071949958801
aF-0.6701158285140991
aF-0.5382289290428162
aF-0.3736400902271271
aF-0.34771695733070374
aF-0.40460535883903503
aF-0.5711928009986877
aF-0.7462331056594849
aF-1.0229204893112183
aF-1.438340187072754
aF-1.946250319480896
aF-2.5691115856170654
aF-3.4894821643829346
aF-4.424918174743652
aF-5.645673751831055
aF-7.149020195007324
aF-8.506590843200684
aF-10.252289772033691
aF-9.245678901672363
aF-7.521581649780273
aF-6.101805686950684
aF-4.7844085693359375
aF-3.6870944499969482
aF-2.6958682537078857
aF-1.9897922277450562
aF-1.4760699272155762
aF-0.9959909915924072
aF-0.7354658842086792
aF-0.46964916586875916
aF-0.4467978775501251
aF-0.35828664898872375
aF-0.3903786838054657
aF-0.5376033782958984
aF-0.6588976979255676
aF-1.0576629638671875
aF-1.3946282863616943
aF-1.8684303760528564
aF-2.59317684173584
aF-3.407829523086548
aF-4.31071662902832
aF-5.6074299812316895
aF-6.815159320831299
aF-8.379887580871582
aF-9.883768081665039
aF-9.519770622253418
aF-7.753506183624268
aF-6.263461589813232
aF-4.759800434112549
aF-3.7717576026916504
aF-2.8468191623687744
aF-2.1978278160095215
aF-1.6793434619903564
aF-1.2191575765609741
aF-0.8820043802261353
aF-0.6069661974906921
aF-0.4704730212688446
aF-0.283969908952713
aF-0.20492218434810638
aF-0.14129813015460968
aF-0.1210070326924324
aF-0.09956798702478409
aF-0.10465161502361298
aF-0.13232636451721191
aF-0.1608816683292389
aF-0.2031380832195282
aF-0.24046149849891663
aF-0.29237300157546997
aF-0.3498157858848572
aF-0.4132208228111267
aF-0.48935261368751526
aF-0.5691741108894348
aF-0.6719942688941956
aF-0.7755494713783264
aF-0.9690331220626831
aF-1.0984591245651245
aF-1.393986463546753
aF-1.6689918041229248
aF-2.0409204959869385
aF-2.4624738693237305
aF-2.9740054607391357
aF-3.7306082248687744
aF-4.402161598205566
aF-5.307303428649902
aF-6.418331146240234
aF-7.6325602531433105
aF-8.727294921875
aF-10.473369598388672
aF-8.90500259399414
aF-7.523574352264404
aF-6.194711685180664
aF-5.024810791015625
aF-4.066303730010986
aF-3.1658713817596436
aF-2.444873809814453
aF-1.858681321144104
aF-1.4177621603012085
aF-1.0617260932922363
aF-0.786501407623291
aF-0.5506171584129333
aF-0.38865113258361816
aF-0.27648624777793884
aF-0.17177742719650269
aF-0.11331012099981308
aF-0.06882376968860626
aF-0.03960080072283745
aF-0.017993522807955742
aF-0.012515882030129433
aF-0.0067785498686134815
aF-0.0034059747122228146
aF-0.003195358905941248
aF-0.008257824927568436
aF-0.007711457554250956
aF-0.011406985111534595
aF-0.007751330267637968
aF-0.0043215262703597546
aF-0.0032185674645006657
aF-0.004512992687523365
aF-0.004354133736342192
aF-0.007605202496051788
aF-0.002273166086524725
aF-0.0024324958212673664
aF-0.0005481289117597044
aF-0.00345485913567245
aF-0.00764738954603672
aF-0.014065352268517017
aF-0.016703151166439056
aF-0.019604729488492012
aF-0.0225797351449728
aF-0.022708812728524208
aF-0.023548847064375877
aF-0.02103429287672043
aF-0.01949409767985344
aF-0.017843451350927353
aF-0.01506839506328106
aF-0.013155316933989525
aF-0.012219322845339775
aF-0.01164665911346674
aF-0.011835647746920586
aF-0.013375894166529179
aF-0.01366588193923235
aF-0.017602095380425453
aF-0.013182618655264378
aF-0.01160634309053421
aF-0.011342495679855347
aF-0.009293883107602596
aF-0.005107571836560965
aF-0.0018142822664231062
aF-0.0019523260416463017
aF-0.0033896940294653177
aF-0.0048624081537127495
aF-0.007762569468468428
aF-0.010030845180153847
aF-0.007990687154233456
aF-0.007368671707808971
aF-0.006851654499769211
aF-0.005987836048007011
aF-0.004359632730484009
aF-0.0050302608869969845
aF-0.004034676123410463
aF-0.002101041143760085
aF-0.0004365878994576633
aF-0.0005947496392764151
aF-0.0026559135876595974
aF-0.003253553295508027
aF-0.007190061267465353
aF-0.008456675335764885
aF-0.008937637321650982
aF-0.010365614667534828
aF-0.009738033637404442
aF-0.009032290428876877
aF-0.009729957208037376
aF-0.008045261725783348
aF-0.011883634142577648
aF-0.029444657266139984
aF-0.06218603998422623
aF-0.09779460728168488
aF-0.18519818782806396
aF-0.2638821005821228
aF-0.4654439687728882
aF-0.6477603912353516
aF-0.9922271966934204
aF-1.5062154531478882
aF-2.2609617710113525
aF-3.1410927772521973
aF-4.228396415710449
aF-5.975292205810547
aF-7.70304536819458
aF-9.929635047912598
aF-9.248920440673828
aF-6.810133457183838
aF-5.059183597564697
aF-3.5911309719085693
aF-2.556180953979492
aF-1.9503568410873413
aF-1.3420032262802124
aF-1.0918540954589844
aF-1.003167986869812
aF-1.124342441558838
aF-1.5441726446151733
aF-2.2196741104125977
aF-3.3537395000457764
aF-5.069069862365723
aF-7.082766056060791
aF-9.967233657836914
aF-8.525833129882812
aF-5.895493984222412
aF-3.978614568710327
aF-2.6385269165039062
aF-1.7870501279830933
aF-1.095659852027893
aF-1.0231772661209106
aF-1.0758788585662842
aF-1.4700255393981934
aF-2.0893990993499756
aF-3.002129554748535
aF-4.153253555297852
aF-5.712762832641602
aF-7.719343662261963
aF-10.48245906829834
aF-8.543072700500488
aF-6.321261405944824
aF-4.416284561157227
aF-3.2605326175689697
aF-2.4062159061431885
aF-1.5708647966384888
aF-0.9950094223022461
aF-0.6554448008537292
aF-0.595503568649292
aF-0.5607075691223145
aF-0.6759634017944336
aF-0.8127664923667908
aF-1.1453254222869873
aF-1.5955034494400024
aF-2.303342342376709
aF-3.2246227264404297
aF-4.058067321777344
aF-5.470688343048096
aF-7.00723123550415
aF-8.429248809814453
aF-10.657390594482422
aF-9.101869583129883
aF-7.364151477813721
aF-5.9135966300964355
aF-4.548750400543213
aF-3.5466861724853516
aF-2.6637508869171143
aF-1.8999236822128296
aF-1.3662785291671753
aF-0.9554685950279236
aF-0.6788589954376221
aF-0.4473220407962799
aF-0.3690848648548126
aF-0.3550879657268524
aF-0.366951584815979
aF-0.4753570556640625
aF-0.6582610011100769
aF-0.8458357453346252
aF-1.2087562084197998
aF-1.6783571243286133
aF-2.252431631088257
aF-2.8678948879241943
aF-3.764383316040039
aF-4.8301239013671875
aF-6.089522838592529
aF-7.486358642578125
aF-9.107419967651367
aF-10.407925605773926
aF-8.709989547729492
aF-7.122642517089844
aF-5.710199356079102
aF-4.45587682723999
aF-3.5250048637390137
aF-2.538208246231079
aF-1.864153504371643
aF-1.3483099937438965
aF-0.9265360236167908
aF-0.6258587837219238
aF-0.4853205978870392
aF-0.4028715193271637
aF-0.2689027190208435
aF-0.4058888852596283
aF-0.4177635610103607
aF-0.5778347253799438
aF-0.8377583622932434
aF-1.0674161911010742
aF-1.579444169998169
aF-2.0163798332214355
aF-2.785353660583496
aF-3.383470296859741
aF-4.341278553009033
aF-5.500271797180176
aF-6.846297264099121
aF-8.499372482299805
aF-9.995051383972168
aF-9.438072204589844
aF-7.836364269256592
aF-6.324665069580078
aF-5.035057544708252
aF-3.9050331115722656
aF-2.905442953109741
aF-2.202472448348999
aF-1.5170785188674927
aF-1.190916895866394
aF-0.7685009241104126
aF-0.5790067911148071
aF-0.408532977104187
aF-0.32437604665756226
aF-0.2758963406085968
aF-0.34739950299263
aF-0.44367390871047974
aF-0.5754221081733704
aF-0.8268664479255676
aF-1.121220350265503
aF-1.4971246719360352
aF-1.9891021251678467
aF-2.510211944580078
aF-3.3020200729370117
aF-4.232751369476318
aF-5.362247943878174
aF-6.568393230438232
aF-8.08901309967041
aF-9.7389554977417
aF-9.747772216796875
aF-8.172426223754883
aF-6.639484882354736
aF-5.301755428314209
aF-4.173621654510498
aF-3.155539035797119
aF-2.3884384632110596
aF-1.7334003448486328
aF-1.2497413158416748
aF-0.8960477113723755
aF-0.629262387752533
aF-0.4511163532733917
aF-0.34561213850975037
aF-0.26737654209136963
aF-0.276506632566452
aF-0.3241505026817322
aF-0.4117634892463684
aF-0.5915968418121338
aF-0.8140231966972351
aF-1.0600159168243408
aF-1.423673152923584
aF-1.8394492864608765
aF-2.42923641204834
aF-3.084486722946167
aF-3.9534547328948975
aF-5.049938678741455
aF-6.1327433586120605
aF-7.382853984832764
aF-8.90572738647461
aF-10.508992195129395
aF-8.817697525024414
aF-7.247257709503174
aF-5.831123352050781
aF-4.729945182800293
aF-3.5813581943511963
aF-2.8106424808502197
aF-2.0868308544158936
aF-1.505179524421692
aF-1.0741991996765137
aF-0.8260689377784729
aF-0.5302110314369202
aF-0.3509681522846222
aF-0.2858893573284149
aF-0.24879275262355804
aF-0.23395110666751862
aF-0.24653159081935883
aF-0.3620584011077881
aF-0.46523916721343994
aF-0.6459115743637085
aF-0.8720388412475586
aF-1.1215773820877075
aF-1.4392976760864258
aF-1.901336908340454
aF-2.491544246673584
aF-3.1240265369415283
aF-3.9269979000091553
aF-4.9144206047058105
aF-5.931466579437256
aF-7.3284502029418945
aF-8.50711441040039
aF-10.446937561035156
aF-9.071728706359863
aF-7.506187438964844
aF-6.175632953643799
aF-4.890688419342041
aF-3.8687517642974854
aF-2.957756757736206
aF-2.287705898284912
aF-1.6730320453643799
aF-1.1881129741668701
aF-0.8751413822174072
aF-0.5923745632171631
aF-0.42728596925735474
aF-0.2807939946651459
aF-0.22458864748477936
aF-0.17104370892047882
aF-0.18661412596702576
aF-0.21754366159439087
aF-0.2470022439956665
aF-0.35467395186424255
aF-0.4456040561199188
aF-0.5744929909706116
aF-0.7561191320419312
aF-0.9572228193283081
aF-1.2166460752487183
aF-1.544467806816101
aF-1.9280699491500854
aF-2.4195849895477295
aF-3.038907527923584
aF-3.8211472034454346
aF-4.681317329406738
aF-5.6479010581970215
aF-6.978297233581543
aF-8.020264625549316
aF-9.807621955871582
aF-9.625792503356934
aF-8.105632781982422
aF-6.648006439208984
aF-5.412316799163818
aF-4.3047380447387695
aF-3.384002923965454
aF-2.6168136596679688
aF-1.9857709407806396
aF-1.456526279449463
aF-1.0662952661514282
aF-0.7770752310752869
aF-0.5464009046554565
aF-0.42175233364105225
aF-0.21975062787532806
aF-0.18855351209640503
aF-0.12824007868766785
aF-0.09726374596357346
aF-0.11483387649059296
aF-0.11010785400867462
aF-0.14004327356815338
aF-0.1851312816143036
aF-0.2333742082118988
aF-0.27974846959114075
aF-0.3386974334716797
aF-0.41940200328826904
aF-0.4707799553871155
aF-0.5876244902610779
aF-0.6679860949516296
aF-0.8234047889709473
aF-0.9879645705223083
aF-1.157934546470642
aF-1.4308584928512573
aF-1.7304686307907104
aF-2.1346702575683594
aF-2.584346294403076
aF-3.1291754245758057
aF-3.8606104850769043
aF-4.626833438873291
aF-5.676630020141602
aF-6.717212677001953
aF-8.096304893493652
aF-9.29272174835205
aF-9.942252159118652
aF-8.451414108276367
aF-7.088779449462891
aF-5.843690872192383
aF-4.754817962646484
aF-3.693525552749634
aF-2.910170555114746
aF-2.2817840576171875
aF-1.7298966646194458
aF-1.2282536029815674
aF-0.9565871953964233
aF-0.6998931169509888
aF-0.47621428966522217
aF-0.3458560109138489
aF-0.2289900779724121
aF-0.154246985912323
aF-0.09119156748056412
aF-0.048431284725666046
aF-0.04073553532361984
aF-0.032422251999378204
aF-0.023670824244618416
aF-0.018358485773205757
aF-0.017533402889966965
aF-0.014683065004646778
aF-0.013240671716630459
aF-0.011170955374836922
aF-0.008434479124844074
aF-0.006964405067265034
aF-0.003677214728668332
aF-0.0026936654467135668
aF-0.001165491179563105
aF-0.0007723313174210489
aF-0.0008053762139752507
aF-0.0011635756818577647
aF-0.0007502291118726134
aF-0.002768200822174549
aF-0.0012651642318814993
aF-0.0017440160736441612
aF-0.0011092484928667545
aF-0.0024708155542612076
aF-0.0023553306236863136
aF-0.004361890256404877
aF-0.0036890374030917883
aF-0.004306301008909941
aF-0.0026621869765222073
aF-0.003025075886398554
aF-0.002586888149380684
aF-0.0024889057967811823
aF-0.0020118937827646732
aF-0.0021165753714740276
aF-0.0011950224870815873
aF-0.0013577875215560198
aF-0.0023357151076197624
aF-0.003355833003297448
aF-0.0058913277462124825
aF-0.008089136332273483
aF-0.008305523544549942
aF-0.010663674212992191
aF-0.009046225808560848
aF-0.009205684065818787
aF-0.00835511926561594
aF-0.007139616645872593
aF-0.006151477340608835
aF-0.005799561273306608
aF-0.006262007635086775
aF-0.008636916056275368
aF-0.008130021393299103
aF-0.00876445323228836
aF-0.008319972082972527
aF-0.008309677243232727
aF-0.007557823788374662
aF-0.007710826583206654
aF-0.007842865772545338
aF-0.009273502044379711
aF-10.793682098388672
aF-9.790916442871094
aF-9.771232604980469
aF-9.695074081420898
aF-9.599020004272461
aF-9.519235610961914
aF-9.387283325195312
aF-9.236927032470703
aF-9.067488670349121
aF-8.88114070892334
aF-8.661609649658203
aF-8.410496711730957
aF-8.142645835876465
aF-7.862479209899902
aF-7.58360481262207
aF-7.281724452972412
aF-6.993023872375488
aF-6.714216709136963
aF-6.414642810821533
aF-6.154993057250977
aF-5.933666229248047
aF-5.760430335998535
aF-5.634485244750977
aF-5.541868209838867
aF-5.494939804077148
aF-5.510797500610352
aF-5.568462371826172
aF-5.692800998687744
aF-5.863312244415283
aF-6.102382183074951
aF-6.393431186676025
aF-6.782266139984131
aF-7.270452976226807
aF-7.889258861541748
aF-8.62190055847168
aF-9.457460403442383
aF-9.740677833557129
aF-8.794661521911621
aF-7.806897163391113
aF-6.856119155883789
aF-6.0037055015563965
aF-5.197502613067627
aF-4.4903764724731445
aF-3.9003634452819824
aF-3.3780789375305176
aF-2.9529948234558105
aF-2.597564935684204
aF-2.329072952270508
aF-2.1330018043518066
aF-2.0067689418792725
aF-1.935489535331726
aF-1.9235376119613647
aF-1.9671679735183716
aF-2.065305471420288
aF-2.2257893085479736
aF-2.4562621116638184
aF-2.7634267807006836
aF-3.1414313316345215
aF-3.6229872703552246
aF-4.153946399688721
aF-4.82742977142334
aF-5.664287567138672
aF-6.548186779022217
aF-7.6435723304748535
aF-8.63528823852539
aF-10.146173477172852
aF-9.180535316467285
aF-7.928953170776367
aF-6.698498249053955
aF-5.63920259475708
aF-4.708438873291016
aF-3.857774257659912
aF-3.1125402450561523
aF-2.5223615169525146
aF-2.045551300048828
aF-1.6482908725738525
aF-1.343058705329895
aF-1.0987391471862793
aF-0.9031593799591064
aF-0.7699360251426697
aF-0.6495707035064697
aF-0.5668113827705383
aF-0.5016261339187622
aF-0.45008012652397156
aF-0.41008222103118896
aF-0.37967413663864136
aF-0.35921862721443176
aF-0.3400985300540924
aF-0.3348851203918457
aF-0.3310108482837677
aF-0.3385072946548462
aF-0.34581077098846436
aF-0.3535345494747162
aF-0.3676912188529968
aF-0.38193172216415405
aF-0.41320011019706726
aF-0.4549197256565094
aF-0.5189642906188965
aF-0.5855241417884827
aF-0.6849355697631836
aF-0.8059536218643188
aF-0.9165447354316711
aF-1.1123161315917969
aF-1.3292219638824463
aF-1.6299599409103394
aF-1.9358115196228027
aF-2.326658010482788
aF-2.9274253845214844
aF-3.4678993225097656
aF-4.293750286102295
aF-5.141234874725342
aF-6.152719020843506
aF-7.2940778732299805
aF-8.618584632873535
aF-10.09728717803955
aF-9.21630573272705
aF-7.746111869812012
aF-6.449811935424805
aF-5.227075099945068
aF-4.222424507141113
aF-3.376699447631836
aF-2.571594476699829
aF-2.025635242462158
aF-1.5138459205627441
aF-1.1471583843231201
aF-0.8396145701408386
aF-0.6229842305183411
aF-0.44637957215309143
aF-0.3125567138195038
aF-0.19235587120056152
aF-0.12742197513580322
aF-0.07235836237668991
aF-0.037488970905542374
aF-0.02359318733215332
aF-0.012462183833122253
aF-0.0060934703797101974
aF-0.00257161445915699
aF-0.002025405876338482
aF-0.0042050802148878574
aF-0.0048876176588237286
aF-0.007826277054846287
aF-0.007699763868004084
aF-0.008062881417572498
aF-0.005854093469679356
aF-0.004856884479522705
aF-0.005126386880874634
aF-0.0050155362114310265
aF-0.0032056199852377176
aF-0.001287242746911943
aF-0.0003394420782569796
aF-0.0021017389371991158
aF-0.00290784053504467
aF-0.00509276706725359
aF-0.0045822979882359505
aF-0.004475949332118034
aF-0.004136756062507629
aF-0.004026714712381363
aF-0.0038567748852074146
aF-0.0032911940943449736
aF-0.0025861733593046665
aF-0.0022206767462193966
aF-0.003255486022680998
aF-0.00297373766079545
aF-0.004126455634832382
aF-0.004130395594984293
aF-0.003950315527617931
aF-0.003798839170485735
aF-0.003803612431511283
aF-0.004000035114586353
aF-0.005093839019536972
aF-0.0053249807097017765
aF-0.0071982466615736485
aF-0.007639883551746607
aF-0.009085486643016338
aF-0.011104880832135677
aF-0.013424963690340519
aF-0.017205141484737396
aF-0.013902193866670132
aF-0.013148426078259945
aF-0.01203293539583683
aF-0.01053684763610363
aF-0.007957881316542625
aF-0.003973552491515875
aF-0.002283360343426466
aF-0.00522537250071764
aF-0.012752984650433064
aF-0.01158916112035513
aF-0.012531831860542297
aF-0.011134733445942402
aF-0.009733643382787704
aF-0.008163783699274063
aF-0.0066800364293158054
aF-0.005080054979771376
aF-0.003941561561077833
aF-0.0032455071341246367
aF-0.005833794828504324
aF-0.0064635430462658405
aF-0.008262979798018932
aF-0.018729960545897484
aF-0.022478200495243073
aF-0.02767605520784855
aF-0.03167183697223663
aF-0.03340559080243111
aF-0.036048583686351776
aF-0.03294212371110916
aF-0.02915828861296177
aF-0.025963986292481422
aF-0.023532826453447342
aF-0.01734958030283451
aF-0.01034010574221611
aF-0.00824233703315258
aF-0.00844984594732523
aF-0.013086278922855854
aF-0.012694554403424263
aF-0.014630207791924477
aF-0.015631122514605522
aF-0.012506346218287945
aF-0.011131665669381618
aF-0.010154896415770054
aF-0.010864021256566048
aF-0.005862453021109104
aF-0.004189182072877884
aF-0.006133655086159706
aF-0.011824398301541805
aF-0.01608506590127945
aF-0.022174770012497902
aF-0.024568818509578705
aF-0.023710649460554123
aF-0.021685924381017685
aF-0.03353632986545563
aF-0.055565107613801956
aF-0.08858080208301544
aF-0.1350303292274475
aF-0.21787430346012115
aF-0.34935420751571655
aF-0.44750097393989563
aF-0.5946884751319885
aF-0.7256174087524414
aF-1.0323065519332886
aF-1.3366440534591675
aF-1.731427550315857
aF-2.232327699661255
aF-2.7057247161865234
aF-3.491452217102051
aF-4.363072395324707
aF-5.5128254890441895
aF-6.5476908683776855
aF-7.747183799743652
aF-9.416154861450195
aF-10.002415657043457
aF-8.441313743591309
aF-7.023057460784912
aF-5.683103561401367
aF-4.504889965057373
aF-3.493945360183716
aF-2.6631009578704834
aF-2.0395493507385254
aF-1.478639006614685
aF-1.0852714776992798
aF-0.7871963977813721
aF-0.5270553827285767
aF-0.36720454692840576
aF-0.26812106370925903
aF-0.1922687143087387
aF-0.14348717033863068
aF-0.17718921601772308
aF-0.2098022848367691
aF-0.25398868322372437
aF-0.3111627697944641
aF-0.45389771461486816
aF-0.5220568180084229
aF-0.7269458174705505
aF-0.8647139072418213
aF-1.1198029518127441
aF-1.3784719705581665
aF-1.766292929649353
aF-2.1586854457855225
aF-2.7351861000061035
aF-3.296705961227417
aF-4.142890453338623
aF-5.169286727905273
aF-6.0626540184021
aF-7.434447765350342
aF-8.685859680175781
aF-10.359957695007324
aF-9.051508903503418
aF-7.588559627532959
aF-6.240721702575684
aF-5.030584335327148
aF-4.007904529571533
aF-3.101863145828247
aF-2.472073554992676
aF-1.8146604299545288
aF-1.3668192625045776
aF-0.9958932995796204
aF-0.7132115364074707
aF-0.507805585861206
aF-0.3730275332927704
aF-0.22357505559921265
aF-0.15456542372703552
aF-0.10943913459777832
aF-0.08210662007331848
aF-0.07805359363555908
aF-0.08829066902399063
aF-0.09972716867923737
aF-0.11500759422779083
aF-0.1343112587928772
aF-0.1528262197971344
aF-0.171299010515213
aF-0.19496139883995056
aF-0.20878642797470093
aF-0.22996805608272552
aF-0.2559265196323395
aF-0.26993536949157715
aF-0.29610446095466614
aF-0.3211488723754883
aF-0.351248562335968
aF-0.3866320550441742
aF-0.4327365458011627
aF-0.4732464849948883
aF-0.5300129652023315
aF-0.5916134715080261
aF-0.6867656111717224
aF-0.7851836681365967
aF-0.9029725193977356
aF-1.0668483972549438
aF-1.2700448036193848
aF-1.5219733715057373
aF-1.829447627067566
aF-2.2503139972686768
aF-2.730548620223999
aF-3.3835089206695557
aF-4.066190242767334
aF-4.816073417663574
aF-5.749707221984863
aF-7.110345363616943
aF-8.255206108093262
aF-9.66610336303711
aF-9.614559173583984
aF-8.137680053710938
aF-6.806128978729248
aF-5.615952014923096
aF-4.535053253173828
aF-3.614295482635498
aF-2.798206090927124
aF-2.131324052810669
aF-1.687833547592163
aF-1.2547574043273926
aF-0.9446821808815002
aF-0.6657119393348694
aF-0.472156822681427
aF-0.3345779776573181
aF-0.2274017632007599
aF-0.13916712999343872
aF-0.08404882997274399
aF-0.054849766194820404
aF-0.033492110669612885
aF-0.012032808735966682
aF-0.004810705780982971
aF-0.0010746307671070099
aF-0.0007313303067348897
aF-0.0031965612433850765
aF-0.0038541669491678476
aF-0.006394895259290934
aF-0.00911804847419262
aF-0.006548093166202307
aF-0.004602015484124422
aF-0.0042586675845086575
aF-0.005758217535912991
aF-0.006191420368850231
aF-0.007089859340339899
aF-0.006865025497972965
aF-0.001564949518069625
aF-0.0026916007045656443
aF-0.0037918901070952415
aF-0.00295854639261961
aF-0.007456026040017605
aF-0.003801971208304167
aF-0.0020622173324227333
aF-0.0020316357258707285
aF-0.002200203249230981
aF-0.002284959191456437
aF-0.0010340606095269322
aF-0.0008563328883610666
aF-0.0032198973931372166
aF-0.007346734404563904
aF-0.016557035967707634
aF-0.021624768152832985
aF-0.024283474311232567
aF-0.030613712966442108
aF-0.029724949970841408
aF-0.02903597429394722
aF-0.02612408436834812
aF-0.025139251723885536
aF-0.03092813678085804
aF-0.05574075132608414
aF-0.06663092225790024
aF-0.12204627692699432
aF-0.19675159454345703
aF-0.271711140871048
aF-0.49955442547798157
aF-0.6946608424186707
aF-1.0454686880111694
aF-1.559795618057251
aF-2.110539197921753
aF-3.121396780014038
aF-4.408065319061279
aF-5.905498504638672
aF-7.784734725952148
aF-9.854683876037598
aF-9.357521057128906
aF-7.553293704986572
aF-5.743814945220947
aF-4.393123626708984
aF-3.159595012664795
aF-2.2658073902130127
aF-1.6556925773620605
aF-1.2039130926132202
aF-0.8533079028129578
aF-0.6183613538742065
aF-0.4317970275878906
aF-0.2995253801345825
aF-0.18349474668502808
aF-0.1874663084745407
aF-0.1561119705438614
aF-0.23259462416172028
aF-0.2468947023153305
aF-0.33676302433013916
aF-0.4478152096271515
aF-0.5594881772994995
aF-0.7244621515274048
aF-0.9103589057922363
aF-1.1513904333114624
aF-1.4713013172149658
aF-1.8547338247299194
aF-2.3186490535736084
aF-2.8952322006225586
aF-3.614694356918335
aF-4.391494274139404
aF-5.459303379058838
aF-6.521205902099609
aF-7.839193820953369
aF-9.205917358398438
aF-10.102707862854004
aF-8.544686317443848
aF-7.102877616882324
aF-5.8321380615234375
aF-4.709075927734375
aF-3.5780282020568848
aF-2.854429244995117
aF-2.140852212905884
aF-1.6508902311325073
aF-1.1952637434005737
aF-0.8574280142784119
aF-0.6148911118507385
aF-0.43741682171821594
aF-0.2680993974208832
aF-0.19999048113822937
aF-0.1455249935388565
aF-0.10931422561407089
aF-0.10115155577659607
aF-0.11570612341165543
aF-0.13327203691005707
aF-0.17334717512130737
aF-0.20791463553905487
aF-0.24930673837661743
aF-0.3072667717933655
aF-0.36240875720977783
aF-0.4288799464702606
aF-0.5141148567199707
aF-0.6172032356262207
aF-0.7300922870635986
aF-0.900101363658905
aF-1.0731059312820435
aF-1.2929151058197021
aF-1.5839879512786865
aF-1.9158616065979004
aF-2.3930561542510986
aF-2.967862606048584
aF-3.6288650035858154
aF-4.336773872375488
aF-5.326512813568115
aF-6.331972599029541
aF-7.535594463348389
aF-8.790294647216797
aF-10.379788398742676
aF-8.985053062438965
aF-7.555567741394043
aF-6.210400581359863
aF-5.014443397521973
aF-4.016805171966553
aF-3.1174800395965576
aF-2.516453981399536
aF-1.832910180091858
aF-1.4683105945587158
aF-1.0186349153518677
aF-0.7585294842720032
aF-0.5360779762268066
aF-0.37355920672416687
aF-0.25966212153434753
aF-0.17479176819324493
aF-0.10958606749773026
aF-0.06981091946363449
aF-0.05336439982056618
aF-0.03752649948000908
aF-0.036726389080286026
aF-0.03701180964708328
aF-0.03708217293024063
aF-0.03511318564414978
aF-0.032931387424468994
aF-0.027254372835159302
aF-0.022420428693294525
aF-0.023143483325839043
aF-0.017539361491799355
aF-0.007685592398047447
aF-0.004516418557614088
aF-0.00047998351510614157
aF-0.00015316976350732148
aF-0.0005595277762040496
aF-0.0008908609161153436
aF-0.0008399984799325466
aF-1.0264625416311901e-05
aF-0.0012776285875588655
aF-0.0027495254762470722
aF-0.006841147318482399
aF-0.005412212572991848
aF-0.0067104981280863285
aF-0.003977479878813028
aF-0.0036535728722810745
aF-0.004343714099377394
aF-0.002676441567018628
aF-0.001645872718654573
aF-0.0017594724195078015
aF-0.001551444292999804
aF-0.0019028236856684089
aF-0.0015103593468666077
aF-0.00146000599488616
aF-0.0020632243249565363
aF-0.00123688206076622
aF-0.0008276911685243249
aF-0.0001325333141721785
aF-0.0011360177304595709
aF-0.0011894755298271775
aF-0.0002711593988351524
aF-0.0017755662556737661
aF-0.006016532424837351
aF-0.009352040477097034
aF-0.01074918732047081
aF-0.013439192436635494
aF-0.013739021494984627
aF-0.01230608019977808
aF-0.011154036037623882
aF-0.009856625460088253
aF-0.007618755102157593
aF-0.005924832075834274
aF-0.005019827280193567
aF-0.005327514372766018
aF-0.007143643219023943
aF-0.008904929272830486
aF-0.011987618170678616
aF-0.011274253949522972
aF-0.010500815697014332
aF-0.009246443398296833
aF-0.008221535943448544
aF-0.006626714952290058
aF-0.004745988175272942
aF-0.0032583740539848804
aF-0.0017763784853741527
aF-0.0027326426934450865
aF-0.0034503662027418613
aF-0.004986889660358429
aF-0.00472481781616807
aF-0.004905839916318655
aF-0.004798317328095436
aF-0.005801546387374401
aF-0.005386853124946356
aF-0.004791624844074249
aF-0.0044633555226027966
aF-0.004437618423253298
aF-0.004478306509554386
aF-0.011668494902551174
aF-0.024607200175523758
aF-0.05032460018992424
aF-0.07664454728364944
aF-0.15442533791065216
aF-0.20553234219551086
aF-0.33120501041412354
aF-0.48669424653053284
aF-0.7712145447731018
aF-1.098308801651001
aF-1.6118324995040894
aF-2.3969531059265137
aF-3.589860439300537
aF-4.650340557098389
aF-6.375478267669678
aF-8.25123405456543
aF-10.657387733459473
aF-8.5949125289917
aF-6.3502726554870605
aF-4.822332859039307
aF-3.461409330368042
aF-2.534881591796875
aF-1.6486996412277222
aF-1.3315656185150146
aF-0.9490182995796204
aF-0.7884357571601868
aF-0.742023229598999
aF-1.2270290851593018
aF-1.722545862197876
aF-2.262049436569214
aF-3.191953182220459
aF-4.414628505706787
aF-5.947315216064453
aF-7.686769008636475
aF-10.004904747009277
aF-9.087362289428711
aF-6.855640888214111
aF-5.173856735229492
aF-3.903146266937256
aF-2.824579954147339
aF-1.986626148223877
aF-1.439841628074646
aF-1.0189241170883179
aF-0.6420278549194336
aF-0.551254153251648
aF-0.35877227783203125
aF-0.38723209500312805
aF-0.5295278429985046
aF-0.65345698595047
aF-0.8741876482963562
aF-1.2633074522018433
aF-1.6919268369674683
aF-2.332488536834717
aF-3.093916416168213
aF-4.12423038482666
aF-5.442389488220215
aF-6.630216121673584
aF-8.360127449035645
aF-9.942450523376465
aF-9.558833122253418
aF-7.856182098388672
aF-6.314847946166992
aF-4.92348575592041
aF-3.789069890975952
aF-2.8741300106048584
aF-2.0419769287109375
aF-1.5570240020751953
aF-1.0416743755340576
aF-0.6846157908439636
aF-0.5776346921920776
aF-0.3806276023387909
aF-0.453036904335022
aF-0.44758614897727966
aF-0.683820903301239
aF-0.9317988157272339
aF-1.2749603986740112
aF-1.7594815492630005
aF-2.472775936126709
aF-3.1715803146362305
aF-4.230416297912598
aF-5.414749622344971
aF-6.754779815673828
aF-8.394381523132324
aF-10.237112998962402
aF-9.376389503479004
aF-7.729649066925049
aF-6.1450395584106445
aF-4.83141565322876
aF-3.6859018802642822
aF-2.7534258365631104
aF-2.0307559967041016
aF-1.4002845287322998
aF-0.9508748650550842
aF-0.7325764894485474
aF-0.5348250865936279
aF-0.4022553861141205
aF-0.49786537885665894
aF-0.4892939329147339
aF-0.7148840427398682
aF-0.9095700979232788
aF-1.3226712942123413
aF-1.8432199954986572
aF-2.520890951156616
aF-3.292065143585205
aF-4.365543842315674
aF-5.463586807250977
aF-7.4289774894714355
aF-7.948429107666016
aF-10.579446792602539
aF-9.173300743103027
aF-7.474390029907227
aF-6.030099391937256
aF-4.675548076629639
aF-3.789210557937622
aF-2.808310031890869
aF-2.047454595565796
aF-1.4836349487304688
aF-1.1099478006362915
aF-0.7467650771141052
aF-0.445870041847229
aF-0.43882185220718384
aF-0.27100032567977905
aF-0.22926770150661469
aF-0.3710464835166931
aF-0.3783542513847351
aF-0.5239759087562561
aF-0.7662642598152161
aF-0.9951793551445007
aF-1.3367180824279785
aF-1.7559254169464111
aF-2.3823354244232178
aF-2.9491586685180664
aF-3.850083112716675
aF-4.757363319396973
aF-6.133507251739502
aF-7.282752513885498
aF-8.846458435058594
aF-10.60411262512207
aF-8.894762992858887
aF-7.37459135055542
aF-5.995305061340332
aF-4.691598892211914
aF-3.6862800121307373
aF-2.754124641418457
aF-2.086884021759033
aF-1.5000253915786743
aF-1.1224887371063232
aF-0.7382162809371948
aF-0.579167366027832
aF-0.37125664949417114
aF-0.3098558485507965
aF-0.27062496542930603
aF-0.23567673563957214
aF-0.3361256718635559
aF-0.41964372992515564
aF-0.5856816172599792
aF-0.7979063987731934
aF-1.0712937116622925
aF-1.4536935091018677
aF-1.8454692363739014
aF-2.427349328994751
aF-3.094773054122925
aF-3.84466552734375
aF-4.942340850830078
aF-6.015228748321533
aF-7.361082553863525
aF-8.734840393066406
aF-10.532059669494629
aF-8.960770606994629
aF-7.375457763671875
aF-6.057287693023682
aF-4.811790466308594
aF-3.722780227661133
aF-2.9765892028808594
aF-2.145634412765503
aF-1.565669298171997
aF-1.165779948234558
aF-0.7785045504570007
aF-0.5535825490951538
aF-0.38072916865348816
aF-0.25413110852241516
aF-0.2393704652786255
aF-0.24747002124786377
aF-0.27187564969062805
aF-0.32043424248695374
aF-0.43077751994132996
aF-0.5797011852264404
aF-0.7980865836143494
aF-1.044193148612976
aF-1.2911616563796997
aF-1.7331126928329468
aF-2.186323881149292
aF-2.8169140815734863
aF-3.5133705139160156
aF-4.375594139099121
aF-5.484927654266357
aF-7.003856182098389
aF-7.852692127227783
aF-9.603156089782715
aF-9.795879364013672
aF-8.17735767364502
aF-6.757304668426514
aF-5.459362506866455
aF-4.315858840942383
aF-3.3740365505218506
aF-2.493131160736084
aF-1.9236472845077515
aF-1.4226629734039307
aF-1.0204013586044312
aF-0.7361412644386292
aF-0.501670777797699
aF-0.34383508563041687
aF-0.25729236006736755
aF-0.19524820148944855
aF-0.19152796268463135
aF-0.2057313621044159
aF-0.23630093038082123
aF-0.34371212124824524
aF-0.435688316822052
aF-0.5692435503005981
aF-0.7597655057907104
aF-0.9831996560096741
aF-1.2367030382156372
aF-1.6058645248413086
aF-2.0038833618164062
aF-2.5036137104034424
aF-3.229567050933838
aF-3.9978365898132324
aF-4.8394975662231445
aF-5.890705108642578
aF-7.128749847412109
aF-8.4144868850708
aF-10.083227157592773
aF-9.313129425048828
aF-7.762959957122803
aF-6.471715450286865
aF-5.150270938873291
aF-4.119126319885254
aF-3.1960177421569824
aF-2.458731174468994
aF-1.8223284482955933
aF-1.3629045486450195
aF-0.9791589379310608
aF-0.7067152857780457
aF-0.48099005222320557
aF-0.34122344851493835
aF-0.2536921799182892
aF-0.15168006718158722
aF-0.12782952189445496
aF-0.11463172733783722
aF-0.12266078591346741
aF-0.14214764535427094
aF-0.16649146378040314
aF-0.23181644082069397
aF-0.28370216488838196
aF-0.35316002368927
aF-0.41514283418655396
aF-0.5002012252807617
aF-0.6058112978935242
aF-0.742621123790741
aF-0.900101363658905
aF-1.1200594902038574
aF-1.3209346532821655
aF-1.6437419652938843
aF-2.0139079093933105
aF-2.5514705181121826
aF-3.024789810180664
aF-3.7547860145568848
aF-4.58253288269043
aF-5.511303424835205
aF-6.576059341430664
aF-7.910545349121094
aF-9.17003059387207
aF-10.134223937988281
aF-8.700129508972168
aF-7.213240146636963
aF-5.872334003448486
aF-4.7902655601501465
aF-3.732759952545166
aF-3.041283130645752
aF-2.219928741455078
aF-1.6811624765396118
aF-1.2642900943756104
aF-0.9603790044784546
aF-0.691189706325531
aF-0.5096687078475952
aF-0.30876702070236206
aF-0.24541321396827698
aF-0.1408490389585495
aF-0.08239445835351944
aF-0.07496113330125809
aF-0.04276527464389801
aF-0.04228226840496063
aF-0.03394327312707901
aF-0.03303082287311554
aF-0.03627549856901169
aF-0.03569543734192848
aF-0.03556857258081436
aF-0.032029688358306885
aF-0.026960689574480057
aF-0.02322440594434738
aF-0.018190350383520126
aF-0.012298725545406342
aF-0.007911083288490772
aF-0.005873552057892084
aF-0.004315221216529608
aF-0.005143443122506142
aF-0.0026589306071400642
aF-0.0010054451413452625
aF-0.0007328842766582966
aF-0.0004952566232532263
aF-0.0004579593660309911
aF-0.0004134813498239964
aF-0.0007739980355836451
aF-0.002721994649618864
aF-0.0011372501030564308
aF-0.0013038086472079158
aF-0.0012900069123134017
aF-0.0009746450814418495
aF-0.0015352051705121994
aF-0.000711561762727797
aF-0.0011636994313448668
aF-0.0012892108643427491
aF-0.0014500587712973356
aF-0.00584998307749629
aF-0.011399992741644382
aF-0.015672488138079643
aF-0.01689334213733673
aF-0.015170338563621044
aF-0.0176589023321867
aF-0.015440322458744049
aF-0.014431897550821304
aF-0.012906183488667011
aF-0.01092997845262289
aF-0.009753450751304626
aF-0.009607277810573578
aF-0.01025453396141529
aF-0.010931870900094509
aF-0.011899556964635849
aF-0.0143656050786376
aF-0.021059080958366394
aF-0.024180907756090164
aF-0.027529265731573105
aF-0.027196429669857025
aF-0.024780787527561188
aF-0.022344650700688362
aF-0.02244696579873562
aF-0.014241375029087067
aF-0.011964451521635056
aF-0.011981658637523651
aF-0.016344165429472923
aF-0.019385864958167076
aF-0.024073274806141853
aF-0.023954017087817192
aF-0.0228723231703043
aF-0.021448206156492233
aF-0.018860068172216415
aF-0.016245162114501
aF-0.014552189968526363
aF-0.01433104183524847
aF-0.018306776881217957
aF-0.02205209620296955
aF-0.027771716937422752
aF-0.03150305524468422
aF-0.029545914381742477
aF-0.031422797590494156
aF-0.0265860203653574
aF-0.022253379225730896
aF-0.018876325339078903
aF-0.01637413538992405
aF-0.010838299989700317
aF-0.005469106137752533
aF-0.004509234335273504
aF-0.006139012519270182
aF-0.009936623275279999
aF-0.010418696328997612
aF-0.008391081355512142
aF-0.007624796126037836
aF-0.00794009119272232
aF-0.005256501026451588
aF-0.004484740551561117
aF-0.002233007922768593
aF-0.0034249904565513134
aF-0.010373057797551155
aF-0.01835004799067974
aF-0.03239620104432106
aF-0.04170892387628555
aF-0.052879203110933304
aF-0.057223137468099594
aF-0.06730923056602478
aF-0.07276822626590729
aF-0.08015309274196625
aF-0.07954977452754974
aF-0.08033724874258041
aF-0.0759630799293518
aF-0.07217549532651901
aF-0.06747227162122726
aF-0.06200100854039192
aF-0.060432691127061844
aF-0.05684776231646538
aF-0.05591042712330818
aF-0.054248735308647156
aF-0.04747624322772026
aF-0.04216625541448593
aF-0.03657147288322449
aF-0.02924167737364769
aF-0.024531230330467224
aF-0.017449520528316498
aF-0.01584954746067524
aF-0.017776235938072205
aF-0.027231277897953987
aF-0.039921458810567856
aF-0.05266285315155983
aF-0.06384323537349701
aF-0.07319516688585281
aF-0.07290350645780563
aF-0.07539845257997513
aF-0.06976456940174103
aF-0.06702696532011032
aF-0.05359111353754997
aF-10.852729797363281
aF-9.849937438964844
aF-9.830245018005371
aF-9.753145217895508
aF-9.657142639160156
aF-9.559632301330566
aF-9.462597846984863
aF-9.33057689666748
aF-9.16226863861084
aF-8.974544525146484
aF-8.738372802734375
aF-8.483284950256348
aF-8.199345588684082
aF-7.944849967956543
aF-7.641296863555908
aF-7.318357944488525
aF-7.013591289520264
aF-6.717488765716553
aF-6.4290266036987305
aF-6.183425426483154
aF-5.964669227600098
aF-5.7398247718811035
aF-5.577493190765381
aF-5.45808219909668
aF-5.381677150726318
aF-5.349262237548828
aF-5.376935005187988
aF-5.436412811279297
aF-5.542485237121582
aF-5.712306976318359
aF-5.966556549072266
aF-6.270543575286865
aF-6.672922134399414
aF-7.109481334686279
aF-7.828253269195557
aF-8.556214332580566
aF-9.327545166015625
aF-9.766629219055176
aF-8.757368087768555
aF-7.803042888641357
aF-6.848311424255371
aF-5.954176425933838
aF-5.154495716094971
aF-4.464874267578125
aF-3.8457093238830566
aF-3.3069682121276855
aF-2.8795547485351562
aF-2.528402090072632
aF-2.2590508460998535
aF-2.0609588623046875
aF-1.9113560914993286
aF-1.8249447345733643
aF-1.8033465147018433
aF-1.8297024965286255
aF-1.9228016138076782
aF-2.0540106296539307
aF-2.2446887493133545
aF-2.5368247032165527
aF-2.857933759689331
aF-3.3363301753997803
aF-3.8665778636932373
aF-4.4878315925598145
aF-5.188327789306641
aF-6.111047744750977
aF-7.023046016693115
aF-8.231926918029785
aF-9.405963897705078
aF-9.831061363220215
aF-8.556916236877441
aF-7.303137302398682
aF-6.093570232391357
aF-5.117747783660889
aF-4.180114269256592
aF-3.414867401123047
aF-2.744838237762451
aF-2.2284350395202637
aF-1.80531644821167
aF-1.4628573656082153
aF-1.1827051639556885
aF-0.9845499396324158
aF-0.819491446018219
aF-0.6993271708488464
aF-0.6032127737998962
aF-0.5323479175567627
aF-0.4775535762310028
aF-0.44091376662254333
aF-0.42021945118904114
aF-0.40808919072151184
aF-0.4058692455291748
aF-0.41080644726753235
aF-0.42675960063934326
aF-0.4494911730289459
aF-0.48179611563682556
aF-0.516737699508667
aF-0.5737422108650208
aF-0.633899986743927
aF-0.7165408730506897
aF-0.8145908713340759
aF-0.9397005438804626
aF-1.1159887313842773
aF-1.2944644689559937
aF-1.573164939880371
aF-1.90901780128479
aF-2.290391206741333
aF-2.7539620399475098
aF-3.427842855453491
aF-4.070281982421875
aF-4.890902519226074
aF-5.91416072845459
aF-7.004369735717773
aF-8.194405555725098
aF-9.827136039733887
aF-9.576982498168945
aF-8.2068452835083
aF-6.865562438964844
aF-5.620024681091309
aF-4.482017517089844
aF-3.5780534744262695
aF-2.8313324451446533
aF-2.1913986206054688
aF-1.70608389377594
aF-1.252143144607544
aF-0.9512920379638672
aF-0.701377809047699
aF-0.5050114393234253
aF-0.3505783677101135
aF-0.24040904641151428
aF-0.15777596831321716
aF-0.09558321535587311
aF-0.05304373428225517
aF-0.025250475853681564
aF-0.011370341293513775
aF-0.0027726800180971622
aF-0.0029706833884119987
aF-0.008965783752501011
aF-0.018741467967629433
aF-0.024108676239848137
aF-0.02464214712381363
aF-0.024069514125585556
aF-0.022862030193209648
aF-0.021840717643499374
aF-0.018674137070775032
aF-0.014962154440581799
aF-0.012973276898264885
aF-0.009700491093099117
aF-0.008903784677386284
aF-0.013750754296779633
aF-0.0160788893699646
aF-0.020422007888555527
aF-0.019831188023090363
aF-0.02008001133799553
aF-0.0192157831043005
aF-0.018364200368523598
aF-0.01752878539264202
aF-0.015891971066594124
aF-0.01510292012244463
aF-0.015233710408210754
aF-0.01505492627620697
aF-0.01872817799448967
aF-0.017525866627693176
aF-0.0214542169123888
aF-0.020558569580316544
aF-0.020123060792684555
aF-0.018814021721482277
aF-0.017649101093411446
aF-0.01888357847929001
aF-0.020097652450203896
aF-0.021003784611821175
aF-0.021040210500359535
aF-0.02017449215054512
aF-0.019549883902072906
aF-0.017966795712709427
aF-0.016593292355537415
aF-0.01584634557366371
aF-0.014172208495438099
aF-0.012515691109001637
aF-0.011115694418549538
aF-0.009604877792298794
aF-0.00926289800554514
aF-0.008550973609089851
aF-0.00830051675438881
aF-0.011067664250731468
aF-0.010634312406182289
aF-0.01116646733134985
aF-0.011267738416790962
aF-0.009982041083276272
aF-0.008775767870247364
aF-0.008070883341133595
aF-0.0073008062317967415
aF-0.007313926704227924
aF-0.007856671698391438
aF-0.007882351987063885
aF-0.00810098648071289
aF-0.00785896833986044
aF-0.01324512530118227
aF-0.00963274110108614
aF-0.010497801005840302
aF-0.009546798653900623
aF-0.0080531295388937
aF-0.006684687454253435
aF-0.005690373480319977
aF-0.004963313229382038
aF-0.004274765029549599
aF-0.004509969614446163
aF-0.004469516221433878
aF-0.00512112258002162
aF-0.004913416225463152
aF-0.00486447149887681
aF-0.005411811172962189
aF-0.004444102756679058
aF-0.004902314860373735
aF-0.004789852071553469
aF-0.005121304653584957
aF-0.004789951257407665
aF-0.0059085809625685215
aF-0.0075690713711082935
aF-0.010544611141085625
aF-0.01056213304400444
aF-0.011630275286734104
aF-0.010593162849545479
aF-0.009267927147448063
aF-0.008796343579888344
aF-0.007355061825364828
aF-0.004934315104037523
aF-0.0029555554501712322
aF-0.0039614541456103325
aF-0.005350049585103989
aF-0.007299225311726332
aF-0.00848664715886116
aF-0.007844625040888786
aF-0.009098793379962444
aF-0.007828514091670513
aF-0.007826415821909904
aF-0.007516771554946899
aF-0.006773829460144043
aF-0.0071213156916201115
aF-0.006782165262848139
aF-0.006741373334079981
aF-0.007313518784940243
aF-0.007596938405185938
aF-0.008666317909955978
aF-0.00929136760532856
aF-0.01156821008771658
aF-0.010838662274181843
aF-0.012441225349903107
aF-0.014351687394082546
aF-0.010838662274181843
aF-0.015519091859459877
aF-0.036875274032354355
aF-0.05373034253716469
aF-0.10826782882213593
aF-0.16870732605457306
aF-0.25856253504753113
aF-0.43827390670776367
aF-0.5293115973472595
aF-0.7930406928062439
aF-0.9435052275657654
aF-1.2919642925262451
aF-1.7561513185501099
aF-2.2060182094573975
aF-2.7355313301086426
aF-3.5837836265563965
aF-4.290432929992676
aF-5.4154953956604
aF-6.544006824493408
aF-7.962347030639648
aF-9.46025276184082
aF-9.909698486328125
aF-8.293718338012695
aF-6.950352668762207
aF-5.531899452209473
aF-4.495303153991699
aF-3.4225871562957764
aF-2.647733449935913
aF-1.9545987844467163
aF-1.4344645738601685
aF-1.0688687562942505
aF-0.7391082048416138
aF-0.5266867876052856
aF-0.3606460988521576
aF-0.2590407431125641
aF-0.19741131365299225
aF-0.17742319405078888
aF-0.15860037505626678
aF-0.22480405867099762
aF-0.29182660579681396
aF-0.34176313877105713
aF-0.4812248647212982
aF-0.6200627088546753
aF-0.779610276222229
aF-1.0231324434280396
aF-1.3036476373672485
aF-1.5963760614395142
aF-2.072176694869995
aF-2.5796725749969482
aF-3.13486385345459
aF-4.082254886627197
aF-5.0079345703125
aF-6.120880126953125
aF-7.205064296722412
aF-8.61999225616455
aF-10.106136322021484
aF-9.223565101623535
aF-7.687092304229736
aF-6.315852165222168
aF-5.093979358673096
aF-3.996279001235962
aF-3.1075496673583984
aF-2.397470712661743
aF-1.7881877422332764
aF-1.3439668416976929
aF-0.9632202386856079
aF-0.6996116638183594
aF-0.49816980957984924
aF-0.3207419514656067
aF-0.22076627612113953
aF-0.14821794629096985
aF-0.1355627328157425
aF-0.11484913527965546
aF-0.11843013018369675
aF-0.17659974098205566
aF-0.1982138305902481
aF-0.2594512403011322
aF-0.3021697998046875
aF-0.3816691040992737
aF-0.45502132177352905
aF-0.5480667352676392
aF-0.6638674736022949
aF-0.7815551161766052
aF-0.9417246580123901
aF-1.135513186454773
aF-1.3817943334579468
aF-1.6981818675994873
aF-2.058310031890869
aF-2.4989213943481445
aF-3.1037912368774414
aF-3.7358317375183105
aF-4.6692986488342285
aF-5.674851894378662
aF-6.673290729522705
aF-7.848141193389893
aF-9.252503395080566
aF-10.033998489379883
aF-8.528395652770996
aF-7.181225299835205
aF-5.846443176269531
aF-4.686771392822266
aF-3.745264768600464
aF-2.9224319458007812
aF-2.278151512145996
aF-1.728813886642456
aF-1.2579317092895508
aF-0.951059103012085
aF-0.6868617534637451
aF-0.48384058475494385
aF-0.3508076071739197
aF-0.2325044870376587
aF-0.146134614944458
aF-0.09558188170194626
aF-0.060135554522275925
aF-0.03949601575732231
aF-0.027297934517264366
aF-0.028616398572921753
aF-0.029686663299798965
aF-0.027456726878881454
aF-0.02834414690732956
aF-0.029424335807561874
aF-0.025918031111359596
aF-0.022350361570715904
aF-0.01946728490293026
aF-0.016026565805077553
aF-0.009939582087099552
aF-0.007308763451874256
aF-0.004531426355242729
aF-0.003951545339077711
aF-0.005865963641554117
aF-0.005300459917634726
aF-0.005887010600417852
aF-0.004743197932839394
aF-0.004118276759982109
aF-0.0040076738223433495
aF-0.004800803959369659
aF-0.002368814079090953
aF-0.0018993235426023602
aF-0.001102904905565083
aF-0.0008540611015632749
aF-0.0005749753909185529
aF-0.00046000751899555326
aF-0.0005557487020269036
aF-0.0003597003233153373
aF-0.0015718122012913227
aF-0.00040502139017917216
aF-0.00032965323771350086
aF-0.0013267748290672898
aF-0.00044116342905908823
aF-0.000614577962551266
aF-0.002057052915915847
aF-0.0017876408528536558
aF-0.003108265809714794
aF-0.006670423783361912
aF-0.0077014281414449215
aF-0.006520027760416269
aF-0.005424239672720432
aF-0.0050699226558208466
aF-0.004101012367755175
aF-0.003548629581928253
aF-0.008162261918187141
aF-0.01989620551466942
aF-0.04271373525261879
aF-0.06142392382025719
aF-0.11156080663204193
aF-0.15258055925369263
aF-0.2521018087863922
aF-0.4067637622356415
aF-0.6388826370239258
aF-0.9367743134498596
aF-1.383543848991394
aF-1.9673259258270264
aF-2.7772789001464844
aF-4.033302307128906
aF-5.231209754943848
aF-6.9285736083984375
aF-8.99752426147461
aF-10.501917839050293
aF-8.252650260925293
aF-6.5803632736206055
aF-5.07037353515625
aF-4.006219387054443
aF-3.0075509548187256
aF-2.244509696960449
aF-1.6200956106185913
aF-1.1255675554275513
aF-0.8299171924591064
aF-0.5734125375747681
aF-0.40539321303367615
aF-0.3443615436553955
aF-0.3217029869556427
aF-0.42262962460517883
aF-0.4555295705795288
aF-0.670838475227356
aF-0.9000871777534485
aF-1.2924377918243408
aF-1.6745225191116333
aF-2.2111122608184814
aF-2.9320104122161865
aF-3.809788942337036
aF-4.82702112197876
aF-6.118824481964111
aF-7.35971736907959
aF-8.882440567016602
aF-10.55360221862793
aF-8.780106544494629
aF-7.13504695892334
aF-5.763052463531494
aF-4.540471076965332
aF-3.4577295780181885
aF-2.607370615005493
aF-1.9458019733428955
aF-1.4010844230651855
aF-0.9880526661872864
aF-0.6866312623023987
aF-0.5189605951309204
aF-0.33223533630371094
aF-0.2975887060165405
aF-0.3042553663253784
aF-0.3555049002170563
aF-0.5016321539878845
aF-0.6665231585502625
aF-0.8732327818870544
aF-1.206814169883728
aF-1.6100234985351562
aF-2.140596628189087
aF-2.775486946105957
aF-3.612278938293457
aF-4.438314914703369
aF-5.771235466003418
aF-6.8974928855896
aF-8.691950798034668
aF-10.048789978027344
aF-9.318577766418457
aF-7.6051201820373535
aF-6.265676021575928
aF-4.983393669128418
aF-3.831693410873413
aF-2.9245951175689697
aF-2.1886203289031982
aF-1.5845798254013062
aF-1.1920437812805176
aF-0.7762297987937927
aF-0.5666287541389465
aF-0.4186467230319977
aF-0.31203481554985046
aF-0.24972045421600342
aF-0.30122077465057373
aF-0.3632219433784485
aF-0.44295021891593933
aF-0.6308294534683228
aF-0.8457963466644287
aF-1.1638060808181763
aF-1.5815006494522095
aF-1.994273066520691
aF-2.637237548828125
aF-3.3630783557891846
aF-4.203503608703613
aF-5.236462593078613
aF-6.64470100402832
aF-7.816575527191162
aF-9.553808212280273
aF-9.91872787475586
aF-8.328108787536621
aF-6.833949565887451
aF-5.548905849456787
aF-4.489285469055176
aF-3.379704475402832
aF-2.55373215675354
aF-1.8890509605407715
aF-1.340487003326416
aF-0.9774919152259827
aF-0.6687248349189758
aF-0.47487297654151917
aF-0.35630443692207336
aF-0.2456788271665573
aF-0.2351004034280777
aF-0.2326480746269226
aF-0.3131679892539978
aF-0.379874050617218
aF-0.55046147108078
aF-0.7353352308273315
aF-0.9428050518035889
aF-1.2808877229690552
aF-1.6314762830734253
aF-2.184631824493408
aF-2.778681993484497
aF-3.457796335220337
aF-4.413817882537842
aF-5.3348307609558105
aF-6.513158798217773
aF-7.960286617279053
aF-9.50940990447998
aF-9.896471977233887
aF-8.301736831665039
aF-6.9021453857421875
aF-5.505945205688477
aF-4.431455135345459
aF-3.4426186084747314
aF-2.5975117683410645
aF-1.9191288948059082
aF-1.439822793006897
aF-1.0205496549606323
aF-0.7038454413414001
aF-0.5077635645866394
aF-0.36265718936920166
aF-0.2579583525657654
aF-0.18780617415905
aF-0.20857569575309753
aF-0.1816728711128235
aF-0.2579282224178314
aF-0.32829347252845764
aF-0.4321056604385376
aF-0.5856326222419739
aF-0.718986988067627
aF-0.9784031510353088
aF-1.2095460891723633
aF-1.5523054599761963
aF-1.945044755935669
aF-2.5046117305755615
aF-3.176006555557251
aF-3.812208652496338
aF-4.91450834274292
aF-5.889029026031494
aF-7.295870304107666
aF-8.347823143005371
aF-10.294088363647461
aF-9.207700729370117
aF-7.69210147857666
aF-6.375614643096924
aF-5.161929130554199
aF-3.970792293548584
aF-3.1857306957244873
aF-2.358736276626587
aF-1.8401169776916504
aF-1.3286908864974976
aF-0.983476459980011
aF-0.6702401638031006
aF-0.5108853578567505
aF-0.335935115814209
aF-0.219381183385849
aF-0.16816842555999756
aF-0.14383862912654877
aF-0.12475060671567917
aF-0.13314436376094818
aF-0.19111435115337372
aF-0.2514925003051758
aF-0.30123621225357056
aF-0.39941051602363586
aF-0.491750568151474
aF-0.610308051109314
aF-0.7890716195106506
aF-0.9500523805618286
aF-1.170989751815796
aF-1.4637995958328247
aF-1.8145248889923096
aF-2.2046213150024414
aF-2.7463953495025635
aF-3.4252278804779053
aF-4.217066287994385
aF-5.1079182624816895
aF-6.023768901824951
aF-7.542117118835449
aF-8.677010536193848
aF-10.24250602722168
aF-9.09805679321289
aF-7.593923091888428
aF-6.299189567565918
aF-5.110194683074951
aF-4.072906970977783
aF-3.1940324306488037
aF-2.491119623184204
aF-1.8874132633209229
aF-1.3726096153259277
aF-1.0960980653762817
aF-0.7245108485221863
aF-0.5554042458534241
aF-0.3776637315750122
aF-0.25029370188713074
aF-0.17015035450458527
aF-0.11032191663980484
aF-0.06376557052135468
aF-0.06586465239524841
aF-0.05412731319665909
aF-0.060402531176805496
aF-0.059255171567201614
aF-0.07138758897781372
aF-0.0718131884932518
aF-0.07766610383987427
aF-0.07765943557024002
aF-0.07279633730649948
aF-0.06802555918693542
aF-0.05941697210073471
aF-0.05026596039533615
aF-0.04281998798251152
aF-0.03458002954721451
aF-0.026066457852721214
aF-0.021526355296373367
aF-0.01691693440079689
aF-0.013045067898929119
aF-0.011239740066230297
aF-0.011296494863927364
aF-0.008975675329566002
aF-0.008891941048204899
aF-0.008867883123457432
aF-0.011145101860165596
aF-0.008321580477058887
aF-0.008502171374857426
aF-0.007634039502590895
aF-0.006302856374531984
aF-0.004778513219207525
aF-0.0035654024686664343
aF-0.003765252185985446
aF-0.005320259835571051
aF-0.007073042448610067
aF-0.006752314977347851
aF-0.006193461827933788
aF-0.005153668578714132
aF-0.005151756107807159
aF-0.009498043917119503
aF-0.009607015177607536
aF-0.007510579191148281
aF-0.003242622595280409
aF-0.018207553774118423
aF-0.0627022534608841
aF-0.10600480437278748
aF-0.21325331926345825
aF-0.3973722457885742
aF-0.4906104803085327
aF-0.761604905128479
aF-1.2573459148406982
aF-1.7972785234451294
aF-2.518233299255371
aF-3.6542201042175293
aF-4.816373825073242
aF-6.56666898727417
aF-8.524701118469238
aF-10.637947082519531
aF-8.017759323120117
aF-5.840061664581299
aF-4.370023727416992
aF-3.1287076473236084
aF-2.2283456325531006
aF-1.5167361497879028
aF-1.1447227001190186
aF-0.9757856726646423
aF-0.8990926742553711
aF-1.1773881912231445
aF-1.5769784450531006
aF-2.158714771270752
aF-3.2022252082824707
aF-4.710494041442871
aF-6.375478267669678
aF-8.891215324401855
aF-9.929933547973633
aF-7.241787433624268
aF-5.109949588775635
aF-3.64192271232605
aF-2.566959857940674
aF-1.7493888139724731
aF-1.2503433227539062
aF-0.7228812575340271
aF-0.703278124332428
aF-0.5998883843421936
aF-0.7451303005218506
aF-1.2438541650772095
aF-1.4225245714187622
aF-2.1457793712615967
aF-3.067004442214966
aF-4.078329563140869
aF-5.283868789672852
aF-7.0208516120910645
aF-8.677093505859375
aF-10.833911895751953
aF-8.78652286529541
aF-6.962522506713867
aF-5.412470817565918
aF-4.151852607727051
aF-3.2835021018981934
aF-2.5983669757843018
aF-1.9404386281967163
aF-1.4893519878387451
aF-1.0821213722229004
aF-0.8482828736305237
aF-0.5864142179489136
aF-0.42145010828971863
aF-0.291280597448349
aF-0.20110824704170227
aF-0.11672844737768173
aF-0.06586390733718872
aF-0.03582807630300522
aF-0.021437987685203552
aF-0.008012584410607815
aF-0.0010241196723654866
aF-0.0004043943772558123
aF-0.003858397016301751
aF-0.007005040533840656
aF-0.00781608372926712
aF-0.012947563081979752
aF-0.008016550913453102
aF-0.011089624837040901
aF-0.00798325426876545
aF-0.007667073048651218
aF-0.006296786479651928
aF-0.005610717926174402
aF-0.0026256507262587547
aF-0.0031435745768249035
aF-0.0035837036557495594
aF-0.003599625313654542
aF-0.006381136830896139
aF-0.007201223634183407
aF-0.009451058693230152
aF-0.01136355847120285
aF-0.012155079282820225
aF-0.010867594741284847
aF-0.010197458788752556
aF-0.009393151849508286
aF-0.007531503681093454
aF-0.006412704940885305
aF-0.006201526150107384
aF-0.006828889716416597
aF-0.008510196581482887
aF-0.012109697796404362
aF-0.014283636584877968
aF-0.018519079312682152
aF-0.01596168614923954
aF-0.017584264278411865
aF-0.015365906059741974
aF-0.013323549181222916
aF-0.011954107321798801
aF-0.009077084250748158
aF-0.0078996941447258
aF-0.003386478638276458
aF-0.0036418086383491755
aF-0.002376007614657283
aF-0.0029794995207339525
aF-0.010052110999822617
aF-0.013662032783031464
aF-0.024051951244473457
aF-0.030633261427283287
aF-0.03387247025966644
aF-0.03410712629556656
aF-0.03089403547346592
aF-0.028481708839535713
aF-0.025006942451000214
aF-0.021866438910365105
aF-0.016068965196609497
aF-0.013119973242282867
aF-0.009043966419994831
aF-0.009968074969947338
aF-0.01701372116804123
aF-0.021618399769067764
aF-0.030981894582509995
aF-0.02919948473572731
aF-0.030307993292808533
aF-0.032669976353645325
aF-0.03364095464348793
aF-0.03371923416852951
aF-0.033643826842308044
aF-0.032486215233802795
aF-0.031082794070243835
aF-0.030214667320251465
aF-0.032465286552906036
aF-0.032554447650909424
aF-0.03285377100110054
aF-0.03234250470995903
aF-0.028556006029248238
aF-0.026382258161902428
aF-0.022463234141469002
aF-0.018914133310317993
aF-0.015851402655243874
aF-0.015059448778629303
aF-0.014351475052535534
aF-0.015409380197525024
aF-0.016318274661898613
aF-0.0200429055839777
aF-0.020453793928027153
aF-0.02066180296242237
aF-0.017789311707019806
aF-0.017465218901634216
aF-0.01399155706167221
aF-0.008960839360952377
aF-0.006643952336162329
aF-0.006437923293560743
aF-0.0075816684402525425
aF-0.011092026717960835
aF-0.014911272563040257
aF-0.018312513828277588
aF-0.026251642033457756
aF-0.024201618507504463
aF-0.027160698547959328
aF-0.02578458935022354
aF-0.02412843517959118
aF-0.023284008726477623
aF-0.021942775696516037
aF-0.02116507850587368
aF-0.021686239168047905
aF-0.02252042293548584
aF-0.023976827040314674
aF-0.026739487424492836
aF-0.02260209619998932
aF-0.02052643522620201
aF-0.018075736239552498
aF-0.014905762858688831
aF-0.010616864077746868
aF-0.008112155832350254
aF-0.00559622747823596
aF-0.004913791082799435
aF-0.006430439185351133
aF-0.008064779452979565
aF-0.009012846276164055
aF-0.0085517643019557
aF-0.009874832816421986
aF-0.007946861907839775
aF-0.006530198268592358
aF-0.0058774943463504314
aF-0.00366428354755044
aF-0.003058173693716526
aF-0.0028576671611517668
aF-0.005513159092515707
aF-0.0052146161906421185
aF-0.005697483196854591
aF-0.007736041210591793
aF-0.004999286029487848
aF-0.004796149209141731
aF-0.0048973592929542065
aF-0.0033869382459670305
aF-0.002697777934372425
aF-0.0019102595979347825
aF-0.0018959478475153446
aF-0.0025840953458100557
aF-0.004020359367132187
aF-0.007219515275210142
aF-0.011100227013230324
aF-0.012568230740725994
aF-0.013783521018922329
aF-0.011531387455761433
aF-0.010559137910604477
aF-0.00855580996721983
aF-0.008471368812024593
aF-0.005395445507019758
aF-0.004173989407718182
aF-0.005175411235541105
aF-0.010657991282641888
aF-0.015728337690234184
aF-0.023268837481737137
aF-0.023767130449414253
aF-0.025297721847891808
aF-0.022911254316568375
aF-0.020814506337046623
aF-0.018119802698493004
aF-0.01511415746062994
aF-0.011602524667978287
aF-0.010237684473395348
aF-0.010123450309038162
aF-0.0118476627394557
aF-0.015617097727954388
aF-0.019194448366761208
aF-0.02031620405614376
aF-0.021622397005558014
aF-0.021981921046972275
aF-0.021802349016070366
aF-0.02408679574728012
aF-0.02325216867029667
aF-0.022883109748363495
aF-0.025522086769342422
aF-0.02125091478228569
aF-0.019761495292186737
aF-0.01727333664894104
aF-0.014337155967950821
aF-0.012460034340620041
aF-0.011666043661534786
aF-0.010839316993951797
aF-0.012413295917212963
aF-0.012623483315110207
aF-0.014322036877274513
aF-0.012921663001179695
aF-0.013171275146305561
aF-0.012130029499530792
aF-0.011654235422611237
aF-0.010826998390257359
aF-0.009910143911838531
aF-0.009265647269785404
aF-0.008278826251626015
aF-0.007160993758589029
aF-0.007409204263240099
aF-0.009800570085644722
aF-0.014645705930888653
aF-0.02205706387758255
aF-0.023551220074295998
aF-0.026446633040905
aF-0.02488109841942787
aF-0.024713294580578804
aF-0.02315068244934082
aF-0.022511590272188187
aF-0.022415202111005783
aF-0.02458932250738144
aF-0.02841479331254959
aF-0.0286724716424942
aF-0.030818259343504906
aF-0.02892453223466873
aF-0.02796739712357521
aF-0.026788165792822838
aF-0.02543415129184723
aF-0.0224606916308403
aF-0.021141113713383675
aF-0.024676576256752014
aF-0.030486391857266426
aF-0.03528387099504471
aF-0.03181765601038933
aF-0.03081466071307659
aF-0.026969976723194122
aF-0.021662237122654915
aF-0.018112771213054657
aF-0.012864943593740463
aF-0.008452427573502064
aF-0.005828221794217825
aF-0.007057469803839922
aF-0.013781832531094551
aF-0.016127247363328934
aF-0.021313367411494255
aF-0.02482726238667965
aF-0.024243928492069244
aF-0.027388906106352806
aF-0.02370765246450901
aF-0.021132277324795723
aF-0.019105540588498116
aF-0.016176719218492508
aF-0.008262510411441326
aF-0.006259762216359377
aF-0.008560148999094963
aF-0.01212292443960905
aF-0.018018225207924843
aF-0.023269178345799446
aF-0.024132471531629562
aF-0.02948962338268757
aF-0.02619876153767109
aF-0.023864030838012695
aF-0.020775621756911278
aF-0.019955258816480637
aF-0.014855640009045601
aF-0.010536429472267628
aF-0.0047684223391115665
aF-0.0030671493150293827
aF-0.006328905932605267
aF-0.00791914202272892
aF-0.013779646717011929
aF-0.01483146846294403
aF-0.014534717425704002
aF-0.014127220958471298
aF-0.012870215810835361
aF-0.010939234867691994
aF-0.00968432892113924
aF-0.007298230659216642
aF-10.212310791015625
aF-8.468912124633789
aF-7.688469409942627
aF-7.159914016723633
aF-6.74033784866333
aF-6.30236291885376
aF-5.928874492645264
aF-5.599508285522461
aF-5.321725845336914
aF-5.086904525756836
aF-4.9069013595581055
aF-4.765963077545166
aF-4.689606189727783
aF-4.675800800323486
aF-4.716238498687744
aF-4.828690052032471
aF-5.002771854400635
aF-5.223039627075195
aF-5.547286510467529
aF-5.978848457336426
aF-6.483644485473633
aF-7.146174430847168
aF-7.942749977111816
aF-8.922208786010742
aF-9.979935646057129
aF-9.207653999328613
aF-8.12359619140625
aF-7.063079357147217
aF-6.045726299285889
aF-5.174527645111084
aF-4.366081237792969
aF-3.6821658611297607
aF-3.09730863571167
aF-2.61134934425354
aF-2.250227212905884
aF-1.942480444908142
aF-1.7197211980819702
aF-1.5450457334518433
aF-1.4291235208511353
aF-1.354607343673706
aF-1.3203259706497192
aF-1.3330458402633667
aF-1.3803499937057495
aF-1.4608228206634521
aF-1.5978217124938965
aF-1.7483094930648804
aF-2.015045404434204
aF-2.2315680980682373
aF-2.6548616886138916
aF-3.145817756652832
aF-3.6686925888061523
aF-4.343484401702881
aF-5.1346755027771
aF-6.04200553894043
aF-7.0345940589904785
aF-8.257104873657227
aF-9.626100540161133
aF-9.676833152770996
aF-8.343430519104004
aF-6.982884883880615
aF-5.801354885101318
aF-4.760000228881836
aF-3.871030330657959
aF-3.108549118041992
aF-2.4565865993499756
aF-1.9168981313705444
aF-1.506668210029602
aF-1.1677038669586182
aF-0.9109490513801575
aF-0.691115140914917
aF-0.5223726630210876
aF-0.39955735206604004
aF-0.29551729559898376
aF-0.22076070308685303
aF-0.16973774135112762
aF-0.13560719788074493
aF-0.11880325525999069
aF-0.11248397827148438
aF-0.11489468067884445
aF-0.12207617610692978
aF-0.13147492706775665
aF-0.13235574960708618
aF-0.1286773830652237
aF-0.12351490557193756
aF-0.11496435105800629
aF-0.11213787645101547
aF-0.10718291252851486
aF-0.10641708225011826
aF-0.10463529825210571
aF-0.10452862828969955
aF-0.09874922782182693
aF-0.09471019357442856
aF-0.0860111340880394
aF-0.07805459946393967
aF-0.07210001349449158
aF-0.06626248359680176
aF-0.06122981756925583
aF-0.058025993406772614
aF-0.05280962958931923
aF-0.04758003354072571
aF-0.04172942414879799
aF-0.03547539561986923
aF-0.030340274795889854
aF-0.025863444432616234
aF-0.02590954862535
aF-0.02477678842842579
aF-0.025069229304790497
aF-0.023808039724826813
aF-0.02353132702410221
aF-0.022739490494132042
aF-0.027234245091676712
aF-0.02722189761698246
aF-0.029656799510121346
aF-0.02803783118724823
aF-0.026277827098965645
aF-0.024251526221632957
aF-0.02095021679997444
aF-0.018435686826705933
aF-0.01752154901623726
aF-0.019904963672161102
aF-0.022019531577825546
aF-0.023407358676195145
aF-0.02284075878560543
aF-0.022418426349759102
aF-0.020413929596543312
aF-0.018625006079673767
aF-0.01751610077917576
aF-0.01830003410577774
aF-0.019499152898788452
aF-0.022338880226016045
aF-0.025500750169157982
aF-0.025100914761424065
aF-0.027103744447231293
aF-0.025959385558962822
aF-0.02597864903509617
aF-0.023234611377120018
aF-0.02056737244129181
aF-0.017412634566426277
aF-0.014500667341053486
aF-0.011712863110005856
aF-0.009996883571147919
aF-0.009226753376424313
aF-0.009378730319440365
aF-0.009834328666329384
aF-0.011080027557909489
aF-0.009484712034463882
aF-0.00985305942595005
aF-0.008553740568459034
aF-0.007290820125490427
aF-0.007226240821182728
aF-0.008966950699687004
aF-0.01026262529194355
aF-0.011232392862439156
aF-0.014457691460847855
aF-0.015019599348306656
aF-0.015791945159435272
aF-0.013742237351834774
aF-0.012242699041962624
aF-0.011821695603430271
aF-0.008095605298876762
aF-0.005904971156269312
aF-0.004129691515117884
aF-0.0045291343703866005
aF-0.007779998704791069
aF-0.013262967579066753
aF-0.01563319005072117
aF-0.021453019231557846
aF-0.01967049203813076
aF-0.018775546923279762
aF-0.016551394015550613
aF-0.014475230127573013
aF-0.01125422865152359
aF-0.008119351230561733
aF-0.004731697961688042
aF-0.004955293145030737
aF-0.007692005019634962
aF-0.009994257241487503
aF-0.012625685892999172
aF-0.013912682421505451
aF-0.016772141680121422
aF-0.018001867458224297
aF-0.01786297746002674
aF-0.015498665161430836
aF-0.014360393397510052
aF-0.011570896953344345
aF-0.009132534265518188
aF-0.006919896695762873
aF-0.0053414697758853436
aF-0.009205257520079613
aF-0.018700668588280678
aF-0.025438420474529266
aF-0.02975473180413246
aF-0.03267771750688553
aF-0.030366484075784683
aF-0.02999388426542282
aF-0.02894670143723488
aF-0.027433374896645546
aF-0.02683274634182453
aF-0.02872459590435028
aF-0.03460012748837471
aF-0.03226672112941742
aF-0.035770125687122345
aF-0.03176789730787277
aF-0.03064146265387535
aF-0.03587005287408829
aF-0.04133344069123268
aF-0.05640802159905434
aF-0.08506295084953308
aF-0.1193583607673645
aF-0.19298166036605835
aF-0.2342403680086136
aF-0.30377018451690674
aF-0.35358521342277527
aF-0.504392683506012
aF-0.5867118239402771
aF-0.7578930258750916
aF-0.8985347151756287
aF-1.1258811950683594
aF-1.3857910633087158
aF-1.7584558725357056
aF-2.1504180431365967
aF-2.735290765762329
aF-3.275953531265259
aF-4.083622932434082
aF-5.075820446014404
aF-5.96126127243042
aF-7.12690544128418
aF-8.548718452453613
aF-10.199456214904785
aF-9.226726531982422
aF-7.794528484344482
aF-6.480101585388184
aF-5.260976791381836
aF-4.184550762176514
aF-3.2671539783477783
aF-2.5620007514953613
aF-1.9223692417144775
aF-1.4245954751968384
aF-1.0921132564544678
aF-0.7630348801612854
aF-0.553946852684021
aF-0.36321353912353516
aF-0.2739434540271759
aF-0.16943161189556122
aF-0.11191821843385696
aF-0.08464736491441727
aF-0.06488761305809021
aF-0.04915539547801018
aF-0.061683833599090576
aF-0.0633995309472084
aF-0.0746590867638588
aF-0.07857045531272888
aF-0.08106067776679993
aF-0.07993554323911667
aF-0.07382002472877502
aF-0.06904115527868271
aF-0.06119006872177124
aF-0.05530818924307823
aF-0.04932686313986778
aF-0.04739956185221672
aF-0.04299096390604973
aF-0.040838439017534256
aF-0.03986959904432297
aF-0.035449638962745667
aF-0.031601790338754654
aF-0.0274481363594532
aF-0.02294229343533516
aF-0.018229659646749496
aF-0.012883927673101425
aF-0.008892811834812164
aF-0.008918311446905136
aF-0.009461706504225731
aF-0.008467975072562695
aF-0.007759018335491419
aF-0.006779710296541452
aF-0.0051299212500452995
aF-0.004316391423344612
aF-0.002385529689490795
aF-0.001374158775433898
aF-0.0025502038188278675
aF-0.00451264251023531
aF-0.0015207245014607906
aF-0.0020154903177171946
aF-0.004216683562844992
aF-0.006062044762074947
aF-0.010035088285803795
aF-0.010563826188445091
aF-0.006038848310709
aF-0.004593933466821909
aF-0.0052324621938169
aF-0.0041764541529119015
aF-0.004119546618312597
aF-0.00045041876728646457
aF-0.0008596639963798225
aF-0.0029095544014126062
aF-0.0044211954809725285
aF-0.007586567662656307
aF-0.0051652523688972
aF-0.004889414180070162
aF-0.005270913243293762
aF-0.0034044880885630846
aF-0.003102576592937112
aF-0.0014254387933760881
aF-0.002032365882769227
aF-0.0038468441925942898
aF-0.004617855418473482
aF-0.00722817936912179
aF-0.007118402048945427
aF-0.006314027588814497
aF-0.0055871689692139626
aF-0.004966779612004757
aF-0.003839654615148902
aF-0.0029422263614833355
aF-0.0025608104187995195
aF-0.004072616342455149
aF-0.006892321165651083
aF-0.010833071544766426
aF-0.010830030776560307
aF-0.009048599749803543
aF-0.00814863108098507
aF-0.007297758013010025
aF-0.005402660463005304
aF-0.004636131692677736
aF-0.002636651275679469
aF-0.0020408970303833485
aF-0.003559708595275879
aF-0.003289593383669853
aF-0.004820451606065035
aF-0.0030033020302653313
aF-0.0029545146971940994
aF-0.002888814313337207
aF-0.004157546442002058
aF-0.003611709224060178
aF-0.0058483099564909935
aF-0.002655661664903164
aF-0.0036364635452628136
aF-0.002567300572991371
aF-0.002238376997411251
aF-0.0023128597531467676
aF-0.0021190231200307608
aF-0.0017181074945256114
aF-0.0008467772859148681
aF-0.0006472394452430308
aF-0.0008811115403659642
aF-0.0008269219542853534
aF-0.002591948490589857
aF-0.001326624071225524
aF-0.001954991603270173
aF-0.001048801583237946
aF-0.001023575197905302
aF-0.0009598968899808824
aF-0.0012719942023977637
aF-0.0005791475414298475
aF-0.0006674202159047127
aF-0.006127507891505957
aF-0.016499953344464302
aF-0.04330376908183098
aF-0.07763995975255966
aF-0.13519635796546936
aF-0.23305565118789673
aF-0.3188793361186981
aF-0.5089002847671509
aF-0.8509634137153625
aF-1.0631226301193237
aF-1.6445237398147583
aF-2.491724967956543
aF-3.4887490272521973
aF-4.830849647521973
aF-6.375478267669678
aF-8.285149574279785
aF-10.5405912399292
aF-8.769015312194824
aF-6.993227958679199
aF-5.421212196350098
aF-4.024853706359863
aF-3.053039789199829
aF-2.39841365814209
aF-1.8034559488296509
aF-1.3450621366500854
aF-1.0243438482284546
aF-0.7317899465560913
aF-0.5286691784858704
aF-0.36334460973739624
aF-0.25750359892845154
aF-0.16313350200653076
aF-0.09673765301704407
aF-0.0582386814057827
aF-0.03551851958036423
aF-0.02309236489236355
aF-0.017025897279381752
aF-0.01307351142168045
aF-0.010096436366438866
aF-0.00854045432060957
aF-0.008266497403383255
aF-0.01051684096455574
aF-0.014773202128708363
aF-0.02153708040714264
aF-0.017066599801182747
aF-0.01283456664532423
aF-0.010284287855029106
aF-0.010197433643043041
aF-0.008663807064294815
aF-0.008054884150624275
aF-0.007656567730009556
aF-0.00605673436075449
aF-0.005649071652442217
aF-0.007539127953350544
aF-0.007062763907015324
aF-0.010913405567407608
aF-0.011322872713208199
aF-0.011023287661373615
aF-0.012359721586108208
aF-0.010989558883011341
aF-0.010217610746622086
aF-0.009245127439498901
aF-0.008311064913868904
aF-0.00772556196898222
aF-0.006827636156231165
aF-0.0063692862167954445
aF-0.005921181757003069
aF-0.005685681011527777
aF-0.005701904185116291
aF-0.006259122863411903
aF-0.006818008609116077
aF-0.007665397133678198
aF-0.011067429557442665
aF-0.00961705669760704
aF-0.0111300153657794
aF-0.013242465443909168
aF-0.010961820371448994
aF-0.01075070071965456
aF-0.009854624047875404
aF-0.008807051926851273
aF-0.007671702653169632
aF-0.007204060908406973
aF-0.007223228923976421
aF-0.007909818552434444
aF-0.009252781048417091
aF-0.01347852498292923
aF-0.017526065930724144
aF-0.0212889201939106
aF-0.025198472663760185
aF-0.024849457666277885
aF-0.025751033797860146
aF-0.02387639507651329
aF-0.022293196991086006
aF-0.01997974142432213
aF-0.017847692593932152
aF-0.01820319890975952
aF-0.019617637619376183
aF-0.02216893807053566
aF-0.0241565965116024
aF-0.029036475345492363
aF-0.026025766506791115
aF-0.0251076128333807
aF-0.022669460624456406
aF-0.020272787660360336
aF-0.016494790092110634
aF-0.013684844598174095
aF-0.011794180609285831
aF-0.010784325189888477
aF-0.010346641764044762
aF-0.011015396565198898
aF-0.01259529683738947
aF-0.016553808003664017
aF-0.019690625369548798
aF-0.02134871296584606
aF-0.021351195871829987
aF-0.01862521469593048
aF-0.016670670360326767
aF-0.015286524780094624
aF-0.010945570655167103
aF-0.008572562597692013
aF-0.008464120328426361
aF-0.008823390118777752
aF-0.011576108634471893
aF-0.020679881796240807
aF-0.02304004319012165
aF-0.025357810780405998
aF-0.023351337760686874
aF-0.02125643566250801
aF-0.01892820931971073
aF-0.01595432311296463
aF-0.012307464145123959
aF-0.00991142075508833
aF-0.009516135789453983
aF-0.00957535207271576
aF-0.01087874360382557
aF-0.009485753253102303
aF-0.009486863389611244
aF-0.010070011019706726
aF-0.009555048309266567
aF-0.008944802917540073
aF-0.010502727702260017
aF-0.03248375281691551
aF-0.07028277218341827
aF-0.12141695618629456
aF-0.19675159454345703
aF-0.32807183265686035
aF-0.49626025557518005
aF-0.7527089715003967
aF-1.1822317838668823
aF-1.6685595512390137
aF-2.491717576980591
aF-3.5155701637268066
aF-4.752040386199951
aF-6.433942794799805
aF-8.31914234161377
aF-10.716050148010254
aF-8.577621459960938
aF-6.205975532531738
aF-4.592622756958008
aF-3.373544216156006
aF-2.4361798763275146
aF-1.6509201526641846
aF-1.0122829675674438
aF-0.9779751300811768
aF-0.676141619682312
aF-0.7710627913475037
aF-0.8986931443214417
aF-1.5109302997589111
aF-2.0724289417266846
aF-2.8904004096984863
aF-3.865853786468506
aF-5.235193252563477
aF-6.867458343505859
aF-8.87356948852539
aF-10.482565879821777
aF-8.185153007507324
aF-6.408556938171387
aF-4.9642252922058105
aF-3.681556463241577
aF-2.7775521278381348
aF-2.065544843673706
aF-1.5096627473831177
aF-1.1305019855499268
aF-0.7621020078659058
aF-0.48566338419914246
aF-0.43877744674682617
aF-0.28060778975486755
aF-0.3011319637298584
aF-0.3157110810279846
aF-0.45437121391296387
aF-0.6031670570373535
aF-0.7947607636451721
aF-1.127099633216858
aF-1.3893860578536987
aF-1.9982688426971436
aF-2.543510675430298
aF-3.3486764430999756
aF-4.231375694274902
aF-5.404458045959473
aF-6.539004802703857
aF-8.023310661315918
aF-9.666247367858887
aF-9.783945083618164
aF-8.074573516845703
aF-6.664355278015137
aF-5.402115821838379
aF-4.223395824432373
aF-3.240725040435791
aF-2.417185068130493
aF-1.769289255142212
aF-1.2913144826889038
aF-0.978893518447876
aF-0.5728651881217957
aF-0.42380228638648987
aF-0.3476829528808594
aF-0.2874336540699005
aF-0.2557467520236969
aF-0.28832077980041504
aF-0.420233815908432
aF-0.5438175201416016
aF-0.7584924697875977
aF-1.0582702159881592
aF-1.326709508895874
aF-1.786715030670166
aF-2.3177525997161865
aF-3.0706827640533447
aF-3.671308755874634
aF-4.852941036224365
aF-5.8552775382995605
aF-7.198592662811279
aF-8.621711730957031
aF-10.13051986694336
aF-9.233906745910645
aF-7.635889530181885
aF-6.204894542694092
aF-4.924221038818359
aF-3.893902540206909
aF-2.881932020187378
aF-2.1638689041137695
aF-1.6355769634246826
aF-1.1574074029922485
aF-0.8154555559158325
aF-0.6107048988342285
aF-0.3608294725418091
aF-0.2912188470363617
aF-0.2213180810213089
aF-0.22623489797115326
aF-0.2753128707408905
aF-0.3027942180633545
aF-0.4172820746898651
aF-0.6227742433547974
aF-0.7778634428977966
aF-1.0111629962921143
aF-1.3916480541229248
aF-1.7051198482513428
aF-2.23227596282959
aF-2.867614507675171
aF-3.558056592941284
aF-4.501115322113037
aF-5.527921676635742
aF-6.802959442138672
aF-8.027320861816406
aF-9.74748706817627
aF-9.713235855102539
aF-8.223772048950195
aF-6.711087703704834
aF-5.426189422607422
aF-4.237782001495361
aF-3.299686908721924
aF-2.5523271560668945
aF-1.912973403930664
aF-1.4034990072250366
aF-1.0159335136413574
aF-0.6971690654754639
aF-0.49566376209259033
aF-0.3471287190914154
aF-0.24678808450698853
aF-0.18718647956848145
aF-0.17542846500873566
aF-0.1786584109067917
aF-0.25407329201698303
aF-0.2873125374317169
aF-0.40150749683380127
aF-0.515630841255188
aF-0.699204683303833
aF-0.8719262480735779
aF-1.1008542776107788
aF-1.4145028591156006
aF-1.7903695106506348
aF-2.246528387069702
aF-2.834747076034546
aF-3.513469934463501
aF-4.413097858428955
aF-5.310925006866455
aF-6.413364887237549
aF-7.7516069412231445
aF-9.226242065429688
aF-10.15954303741455
aF-8.648757934570312
aF-7.181239128112793
aF-5.845543384552002
aF-4.8557024002075195
aF-3.6948001384735107
aF-2.8735897541046143
aF-2.176057815551758
aF-1.629825472831726
aF-1.1568926572799683
aF-0.872107207775116
aF-0.6084873676300049
aF-0.46537700295448303
aF-0.2740682065486908
aF-0.19856971502304077
aF-0.15913277864456177
aF-0.14507406949996948
aF-0.12193120270967484
aF-0.13614442944526672
aF-0.16025063395500183
aF-0.21538935601711273
aF-0.26697954535484314
aF-0.33562734723091125
aF-0.39909735321998596
aF-0.5032052993774414
aF-0.5890156626701355
aF-0.7475571036338806
aF-0.9045347571372986
aF-1.0844502449035645
aF-1.3648697137832642
aF-1.7040578126907349
aF-2.025176763534546
aF-2.5803020000457764
aF-3.13586688041687
aF-3.7709696292877197
aF-4.585946083068848
aF-5.673272609710693
aF-6.685706615447998
aF-7.999754905700684
aF-9.345666885375977
aF-9.937820434570312
aF-8.428423881530762
aF-7.0381364822387695
aF-5.714377403259277
aF-4.651899337768555
aF-3.691864490509033
aF-2.8662116527557373
aF-2.202500820159912
aF-1.7100313901901245
aF-1.25862717628479
aF-0.9394900798797607
aF-0.6695368885993958
aF-0.4790562093257904
aF-0.32528156042099
aF-0.2305019348859787
aF-0.15583664178848267
aF-0.09582698345184326
aF-0.050561413168907166
aF-0.047915589064359665
aF-0.04370348900556564
aF-0.04384113848209381
aF-0.04049298167228699
aF-0.044210124760866165
aF-0.04306279867887497
aF-0.03959158435463905
aF-0.03663391247391701
aF-0.03386576101183891
aF-0.027433741837739944
aF-0.022399282082915306
aF-0.017584597691893578
aF-0.013953307643532753
aF-0.009431179612874985
aF-0.006353186909109354
aF-0.00594416493549943
aF-0.0023770658299326897
aF-0.0015989146195352077
aF-0.0013728801859542727
aF-0.0038482812233269215
aF-0.006087548565119505
aF-0.007645111531019211
aF-0.0069011785089969635
aF-0.006053638178855181
aF-0.004950858652591705
aF-0.004489749204367399
aF-0.007796909660100937
aF-0.0044507416896522045
aF-0.0017808842239901423
aF-0.0006262208917178214
aF-0.0023681160528212786
aF-0.0003605897363740951
aF-0.0005311538116075099
aF-0.002477803034707904
aF-0.001177590456791222
aF-0.0035820254124701023
aF-0.0004252289072610438
aF-0.002013697288930416
aF-0.005173616111278534
aF-0.007643565535545349
aF-0.006213757209479809
aF-0.007893871515989304
aF-0.005252334289252758
aF-0.007498908322304487
aF-0.004871660377830267
aF-0.004420958459377289
aF-0.005823792889714241
aF-0.0057964688166975975
aF-0.0016986693954095244
aF-0.00025177866336889565
aF-0.0007838380406610668
aF-0.0038451459258794785
aF-0.002705617342144251
aF-0.003497132332995534
aF-0.003557744435966015
aF-0.0031341081485152245
aF-0.0023522288538515568
aF-0.002058583777397871
aF-0.0015595814911648631
aF-0.0021863167639821768
aF-0.0029830983839929104
aF-0.0030314200557768345
aF-0.0025564846582710743
aF-0.002401687204837799
aF-0.0024147764779627323
aF-0.0028619032818824053
aF-0.0010993815958499908
aF-0.0015567477094009519
aF-0.004593095742166042
aF-0.005677201319485903
aF-0.006312948651611805
aF-0.006108477711677551
aF-0.005984807852655649
aF-0.0053434353321790695
aF-0.004447481129318476
aF-0.00394821260124445
aF-0.0036855903454124928
aF-0.004546858370304108
aF-0.0044436585158109665
aF-0.007167182397097349
aF-0.014010473154485226
aF-0.01638670638203621
aF-0.01909599080681801
aF-0.021023200824856758
aF-0.021511904895305634
aF-0.027452588081359863
aF-0.025519076734781265
aF-0.025848837569355965
aF-0.023593910038471222
aF-0.02122587338089943
aF-0.018054088577628136
aF-0.015196467749774456
aF-0.012662871740758419
aF-0.011688919737935066
aF-0.013053671456873417
aF-0.014330027624964714
aF-0.01976296491920948
aF-0.021265525370836258
aF-0.024240532889962196
aF-0.023653676733374596
aF-0.02172197960317135
aF-0.020224224776029587
aF-0.015429680235683918
aF-0.013957176357507706
aF-0.009302888065576553
aF-0.004549285862594843
aF-0.005889601539820433
aF-0.00838413368910551
aF-0.01460987702012062
aF-0.014330867677927017
aF-0.013018174096941948
aF-0.01159646362066269
aF-0.01197525393217802
aF-0.009066062979400158
aF-0.007062989752739668
aF-0.003227577079087496
aF-0.004711517132818699
aF-0.008509885519742966
aF-0.013020588085055351
aF-0.02453298307955265
aF-0.03441820666193962
aF-0.04208584874868393
aF-0.04750506579875946
aF-0.05325494706630707
aF-0.05514618381857872
aF-0.0536339245736599
aF-0.0478067547082901
aF-0.042739253491163254
aF-0.03742389753460884
aF-0.02816455252468586
aF-0.02166863903403282
aF-0.017445700243115425
aF-0.01829030178487301
aF-0.01750384084880352
aF-0.021104352548718452
aF-0.02036958746612072
aF-0.019187964498996735
aF-0.018397914245724678
aF-0.016686322167515755
aF-0.014809894375503063
aF-0.014056507498025894
aF-0.013634082861244678
aF-0.01436216663569212
aF-0.014887718483805656
aF-0.014391737058758736
aF-0.014256549067795277
aF-0.014372270554304123
aF-0.014518355950713158
aF-0.015490399673581123
aF-0.018537098541855812
aF-0.0180968027561903
aF-0.018015416339039803
aF-0.016681794077157974
aF-0.015379562973976135
aF-0.013770703226327896
aF-0.01286917645484209
aF-0.012091987766325474
aF-0.013893207535147667
aF-0.021841291338205338
aF-0.030683593824505806
aF-0.03821362927556038
aF-0.04761321842670441
aF-0.05425187572836876
aF-0.054624516516923904
aF-0.05240200459957123
aF-0.04878353700041771
aF-0.040781404823064804
aF-0.034766171127557755
aF-0.029845859855413437
aF-0.024560052901506424
aF-0.015737097710371017
aF-0.0070739202201366425
aF-0.0018124028574675322
aF-0.002372130285948515
aF-0.006051765289157629
aF-0.012148253619670868
aF-0.013457240536808968
aF-0.016417518258094788
aF-0.014835377223789692
aF-0.014697548002004623
aF-0.013608555309474468
aF-0.013624784536659718
aF-0.011266134679317474
aF-0.009852234274148941
aF-0.008974278345704079
aF-0.0075624724850058556
aF-0.006553940009325743
aF-0.0062150475569069386
aF-0.00535607011988759
aF-0.005032107699662447
aF-0.0049193426966667175
aF-0.004793345462530851
aF-0.006819011643528938
aF-0.008149257861077785
aF-0.010926838964223862
aF-0.01161240041255951
aF-0.01182972826063633
aF-0.011818618513643742
aF-0.012397163547575474
aF-0.01261951494961977
aF-0.012595144100487232
aF-0.011130351573228836
aF-0.009865116328001022
aF-0.008759753778576851
aF-0.006636590231209993
aF-0.00578960170969367
aF-0.006555874366313219
aF-0.00619942182675004
aF-0.010865879245102406
aF-0.007914851419627666
aF-0.008289583958685398
aF-0.007100971881300211
aF-0.00625075725838542
aF-0.006944096181541681
aF-0.004370321054011583
aF-0.001876343972980976
aF-0.0018724562833085656
aF-0.004330037627369165
aF-0.007628364954143763
aF-0.013036202639341354
aF-0.015195897780358791
aF-0.017522571608424187
aF-0.0185211431235075
aF-0.020403072237968445
aF-0.02178710512816906
aF-0.0218892153352499
aF-0.02108222246170044
aF-0.019514301791787148
aF-0.017840560525655746
aF-0.015215512365102768
aF-0.013500076718628407
aF-0.011147609911859035
aF-0.010000011883676052
aF-0.008016782812774181
aF-0.006982186809182167
aF-0.0052522835321724415
aF-0.0045147305354475975
aF-0.0031143559608608484
aF-0.0020992534700781107
aF-0.0019437845330685377
aF-0.0017741672927513719
aF-0.0022576823830604553
aF-0.00289316033013165
aF-0.005745050497353077
aF-0.008739789016544819
aF-0.01614527963101864
aF-0.0149968471378088
aF-0.015110722742974758
aF-0.01251505222171545
aF-0.010922580026090145
aF-0.009664973244071007
aF-0.00667119724676013
aF-0.004769747145473957
aF-0.004240106791257858
aF-0.004885280504822731
aF-0.005772979464381933
aF-0.008293104358017445
aF-0.01352850254625082
aF-0.016219254583120346
aF-0.019827887415885925
aF-0.028871627524495125
aF-0.031364280730485916
aF-0.03944775089621544
aF-0.037636272609233856
aF-0.04202936217188835
aF-0.03795977309346199
aF-0.03487576171755791
aF-0.03130999580025673
aF-0.02696133777499199
aF-0.02178351767361164
aF-0.01745452918112278
aF-0.015378751792013645
aF-0.016182828694581985
aF-0.01815023645758629
aF-0.021942956373095512
aF-0.02623620443046093
aF-0.02849164977669716
aF-0.02780112624168396
aF-0.027135970070958138
aF-0.023650895804166794
aF-0.02253648452460766
aF-0.017003677785396576
aF-0.012327638454735279
aF-0.011085101403295994
aF-0.016074400395154953
aF-0.0244132187217474
aF-0.02774430625140667
aF-0.031613290309906006
aF-0.03495895117521286
aF-0.03743948042392731
aF-0.03922658786177635
a.