(lp0
F-3.11788753606379e-05
aF-10.794543266296387
aF-9.790807723999023
aF-9.810582160949707
aF-9.870404243469238
aF-9.737329483032227
aF-9.636859893798828
aF-9.521119117736816
aF-9.406144142150879
aF-9.237710952758789
aF-9.0847749710083
aF-8.899052619934082
aF-8.695987701416016
aF-8.462021827697754
aF-8.211715698242188
aF-7.944991588592529
aF-7.697523593902588
aF-7.457747459411621
aF-7.2190842628479
aF-6.999887466430664
aF-6.7993879318237305
aF-6.604327201843262
aF-6.411566257476807
aF-6.2508039474487305
aF-6.121103286743164
aF-6.011537551879883
aF-5.9327616691589355
aF-5.900399684906006
aF-5.898566246032715
aF-5.94521427154541
aF-6.056179046630859
aF-6.1814117431640625
aF-6.395254611968994
aF-6.660452365875244
aF-7.042490005493164
aF-7.499233245849609
aF-8.113321304321289
aF-8.913198471069336
aF-9.801502227783203
aF-9.41376781463623
aF-8.468958854675293
aF-7.5098185539245605
aF-6.593637466430664
aF-5.7219085693359375
aF-4.939746856689453
aF-4.247457981109619
aF-3.6739587783813477
aF-3.1943581104278564
aF-2.7609617710113525
aF-2.453287363052368
aF-2.2136194705963135
aF-2.0428755283355713
aF-1.9330189228057861
aF-1.8824348449707031
aF-1.8884919881820679
aF-1.9430564641952515
aF-2.048781633377075
aF-2.219334840774536
aF-2.488720178604126
aF-2.739065170288086
aF-3.218268394470215
aF-3.6326160430908203
aF-4.179314136505127
aF-4.87658166885376
aF-5.659190654754639
aF-6.461512088775635
aF-7.509344100952148
aF-8.61447525024414
aF-9.865238189697266
aF-9.317729949951172
aF-7.953359127044678
aF-6.738089561462402
aF-5.63018798828125
aF-4.617967128753662
aF-3.7695181369781494
aF-2.9884414672851562
aF-2.401571273803711
aF-1.9416826963424683
aF-1.523400068283081
aF-1.2089194059371948
aF-0.9806154370307922
aF-0.7605575919151306
aF-0.6085103750228882
aF-0.48159509897232056
aF-0.3743778467178345
aF-0.301582008600235
aF-0.24539953470230103
aF-0.20407803356647491
aF-0.1791945993900299
aF-0.16715355217456818
aF-0.15730725228786469
aF-0.15134111046791077
aF-0.14528121054172516
aF-0.1348525732755661
aF-0.1287492960691452
aF-0.12314236164093018
aF-0.11568097770214081
aF-0.10981988161802292
aF-0.10423196852207184
aF-0.09796517342329025
aF-0.092372827231884
aF-0.09316373616456985
aF-0.09286157786846161
aF-0.09105104207992554
aF-0.08971398323774338
aF-0.08345784991979599
aF-0.07684237509965897
aF-0.06841214746236801
aF-0.06000501662492752
aF-0.05162426084280014
aF-0.04491165280342102
aF-0.039391305297613144
aF-0.03531631827354431
aF-0.0328548289835453
aF-0.037291884422302246
aF-0.03660959005355835
aF-0.042295217514038086
aF-0.04050276055932045
aF-0.038966648280620575
aF-0.03622940182685852
aF-0.03251909464597702
aF-0.028140569105744362
aF-0.02407347410917282
aF-0.020283998921513557
aF-0.017852310091257095
aF-0.0167362280189991
aF-0.018440570682287216
aF-0.01732991449534893
aF-0.01776941306889057
aF-0.017281541600823402
aF-0.015375819057226181
aF-0.013883625157177448
aF-0.014411521144211292
aF-0.018124325200915337
aF-0.02191702276468277
aF-0.023999087512493134
aF-0.027087097987532616
aF-0.025615647435188293
aF-0.023170657455921173
aF-0.020876049995422363
aF-0.018047163262963295
aF-0.015198055654764175
aF-0.01223826501518488
aF-0.01092458888888359
aF-0.009293781593441963
aF-0.008396073244512081
aF-0.007828637026250362
aF-0.008196939714252949
aF-0.008841238915920258
aF-0.010175786912441254
aF-0.01042028609663248
aF-0.01086272019892931
aF-0.01365346647799015
aF-0.012255813926458359
aF-0.014864249154925346
aF-0.01183300744742155
aF-0.0108391884714365
aF-0.01040176022797823
aF-0.008982469327747822
aF-0.007579484488815069
aF-0.0065588257275521755
aF-0.006257509812712669
aF-0.006592465564608574
aF-0.006368460599333048
aF-0.006439663004130125
aF-0.006449186243116856
aF-0.006917912978678942
aF-0.00992472656071186
aF-0.01335722953081131
aF-0.012559792026877403
aF-0.012140358798205853
aF-0.011313545517623425
aF-0.011982200667262077
aF-0.0077786375768482685
aF-0.005151460878551006
aF-0.00813663937151432
aF-0.014352958649396896
aF-0.02793184481561184
aF-0.03516129031777382
aF-0.03765504062175751
aF-0.04043726995587349
aF-0.04163061082363129
aF-0.04027417674660683
aF-0.03868737071752548
aF-0.037159666419029236
aF-0.03582536801695824
aF-0.03197474777698517
aF-0.02943023294210434
aF-0.02552553452551365
aF-0.02372356504201889
aF-0.02481713891029358
aF-0.027330389246344566
aF-0.03076646290719509
aF-0.029521416872739792
aF-0.027814805507659912
aF-0.02569720149040222
aF-0.022537995129823685
aF-0.019651195034384727
aF-0.018090514466166496
aF-0.01624986156821251
aF-0.015121065080165863
aF-0.013971024192869663
aF-0.013782499358057976
aF-0.014373975805938244
aF-0.015251561999320984
aF-0.016020050272345543
aF-0.017970319837331772
aF-0.019202031195163727
aF-0.020353194326162338
aF-0.021532196551561356
aF-0.020443987101316452
aF-0.020674163475632668
aF-0.022478468716144562
aF-0.018885022029280663
aF-0.01646707020699978
aF-0.014505868777632713
aF-0.0138920359313488
aF-0.010550056584179401
aF-0.007325988262891769
aF-0.0074340277351439
aF-0.0015205147210508585
aF-0.00028396223206073046
aF-0.003148835152387619
aF-0.011975733563303947
aF-0.011473873630166054
aF-0.02329038269817829
aF-0.023574668914079666
aF-0.024423491209745407
aF-0.0270979106426239
aF-0.025777732953429222
aF-0.026684606447815895
aF-0.0248009841889143
aF-0.023837709799408913
aF-0.022040342912077904
aF-0.020929139107465744
aF-0.02273692563176155
aF-0.04049865901470184
aF-0.06369125843048096
aF-0.08614980429410934
aF-0.17099323868751526
aF-0.24493607878684998
aF-0.30056944489479065
aF-0.4095129668712616
aF-0.4848385155200958
aF-0.7176587581634521
aF-0.8319840431213379
aF-1.1087586879730225
aF-1.3647181987762451
aF-1.7268942594528198
aF-2.1935462951660156
aF-2.7157070636749268
aF-3.327427625656128
aF-4.178915023803711
aF-5.065639972686768
aF-6.099916458129883
aF-7.46521520614624
aF-8.831832885742188
aF-10.35488510131836
aF-9.024893760681152
aF-7.603615760803223
aF-6.225311279296875
aF-5.111795902252197
aF-4.069213390350342
aF-3.1619107723236084
aF-2.428633213043213
aF-1.8474829196929932
aF-1.3228113651275635
aF-0.9942575097084045
aF-0.716383695602417
aF-0.4809855818748474
aF-0.3410264253616333
aF-0.2206517606973648
aF-0.17450040578842163
aF-0.09604991972446442
aF-0.09189751744270325
aF-0.0917612612247467
aF-0.1133863776922226
aF-0.13311487436294556
aF-0.16388936340808868
aF-0.20125429332256317
aF-0.2433846890926361
aF-0.2807809114456177
aF-0.33302193880081177
aF-0.38822421431541443
aF-0.43854406476020813
aF-0.5201504230499268
aF-0.5973184108734131
aF-0.6987792253494263
aF-0.8368123173713684
aF-1.0014771223068237
aF-1.2131081819534302
aF-1.461155652999878
aF-1.8006402254104614
aF-2.1312379837036133
aF-2.6687228679656982
aF-3.3590445518493652
aF-3.9831385612487793
aF-4.712893962860107
aF-5.8069024085998535
aF-6.831601142883301
aF-8.080697059631348
aF-9.476924896240234
aF-9.8174409866333
aF-8.356026649475098
aF-6.96150541305542
aF-5.733949184417725
aF-4.576176166534424
aF-3.6097633838653564
aF-2.889172077178955
aF-2.1768558025360107
aF-1.6880700588226318
aF-1.2473376989364624
aF-0.8881921172142029
aF-0.686798632144928
aF-0.47435200214385986
aF-0.3276956081390381
aF-0.2114202082157135
aF-0.14620430767536163
aF-0.08171107620000839
aF-0.06529096513986588
aF-0.040594059973955154
aF-0.026592742651700974
aF-0.026443304494023323
aF-0.020024271681904793
aF-0.019357003271579742
aF-0.01627185568213463
aF-0.01435707788914442
aF-0.012178746983408928
aF-0.008793954737484455
aF-0.006817326415330172
aF-0.0035913700703531504
aF-0.004743956960737705
aF-0.0015799133107066154
aF-0.00018492215895093977
aF-0.0023628759663552046
aF-0.007065182086080313
aF-0.009152252227067947
aF-0.006692260503768921
aF-0.003323234850540757
aF-0.004239566624164581
aF-0.0132311275228858
aF-0.020737653598189354
aF-0.010843530297279358
aF-0.0164679866284132
aF-0.013023808598518372
aF-0.010514013469219208
aF-0.008710612542927265
aF-0.011894683353602886
aF-0.008974012918770313
aF-0.006944759748876095
aF-0.004146857652813196
aF-0.0010329860961064696
aF-0.000700160104315728
aF-0.002891061594709754
aF-0.004252210259437561
aF-0.004585688933730125
aF-0.003078608773648739
aF-0.0026352880522608757
aF-0.002330390503630042
aF-0.0020508707966655493
aF-0.00208913697861135
aF-0.003274500137194991
aF-0.0019489949336275458
aF-0.002598080551251769
aF-0.0019660592079162598
aF-0.0013536687474697828
aF-0.0005769712151959538
aF-0.001850800821557641
aF-0.0031803823076188564
aF-0.0062067145481705666
aF-0.009715978056192398
aF-0.008329425007104874
aF-0.007635090965777636
aF-0.007302772253751755
aF-0.006155604496598244
aF-0.004325832240283489
aF-0.004426117986440659
aF-0.006209379527717829
aF-0.008698724210262299
aF-0.01459964644163847
aF-0.017972595989704132
aF-0.019073307514190674
aF-0.017015747725963593
aF-0.014766350388526917
aF-0.013289845548570156
aF-0.01208791509270668
aF-0.009724298492074013
aF-0.008302380330860615
aF-0.0028014432173222303
aF-0.0071677351370453835
aF-0.015635784715414047
aF-0.023995062336325645
aF-0.020790763199329376
aF-0.021085966378450394
aF-0.0183834508061409
aF-0.016762984916567802
aF-0.014436627738177776
aF-0.012495332397520542
aF-0.010724790394306183
aF-0.008136271499097347
aF-0.007917432114481926
aF-0.010747173801064491
aF-0.011306575499475002
aF-0.01730445772409439
aF-0.01692383363842964
aF-0.01969350315630436
aF-0.01875576376914978
aF-0.017605409026145935
aF-0.0169542133808136
aF-0.015948500484228134
aF-0.016682790592312813
aF-0.020113496109843254
aF-0.029711928218603134
aF-0.03504551947116852
aF-0.039149414747953415
aF-0.03830548748373985
aF-0.040185000747442245
aF-0.040191229432821274
aF-0.03758837655186653
aF-0.038743507117033005
aF-0.03280482441186905
aF-0.02796153537929058
aF-0.02509092353284359
aF-0.016797853633761406
aF-0.01410423219203949
aF-0.007740740664303303
aF-0.0055937389843165874
aF-0.004552763886749744
aF-0.005412081256508827
aF-0.005649073980748653
aF-0.008142983540892601
aF-0.010690523311495781
aF-0.00782604981213808
aF-0.016603222116827965
aF-0.03680618852376938
aF-0.07895177602767944
aF-0.13389287889003754
aF-0.19161687791347504
aF-0.2998112142086029
aF-0.47368934750556946
aF-0.7437670826911926
aF-1.0729132890701294
aF-1.5382441282272339
aF-2.276461362838745
aF-3.134755849838257
aF-4.569366455078125
aF-6.003351211547852
aF-7.999420642852783
aF-10.232593536376953
aF-9.087347030639648
aF-7.25748348236084
aF-5.514130115509033
aF-4.147792339324951
aF-3.0438241958618164
aF-2.3459441661834717
aF-1.765705943107605
aF-1.3116865158081055
aF-0.9678688049316406
aF-0.6954826712608337
aF-0.47643032670021057
aF-0.3187757730484009
aF-0.21191321313381195
aF-0.17839963734149933
aF-0.12167135626077652
aF-0.12506240606307983
aF-0.11090273410081863
aF-0.13882210850715637
aF-0.18196618556976318
aF-0.21875250339508057
aF-0.27640998363494873
aF-0.3416087329387665
aF-0.4150386452674866
aF-0.512613832950592
aF-0.6116255521774292
aF-0.7583575248718262
aF-0.8906758427619934
aF-1.1194874048233032
aF-1.3464189767837524
aF-1.673963189125061
aF-2.0239217281341553
aF-2.426269769668579
aF-3.040668487548828
aF-3.753798484802246
aF-4.474208831787109
aF-5.519633769989014
aF-6.434229850769043
aF-7.932966709136963
aF-8.94626522064209
aF-10.27865982055664
aF-8.807050704956055
aF-7.311232566833496
aF-6.005101203918457
aF-4.828526496887207
aF-3.8682169914245605
aF-3.053936719894409
aF-2.3509018421173096
aF-1.7664090394973755
aF-1.3385634422302246
aF-1.006639003753662
aF-0.7175003290176392
aF-0.49451786279678345
aF-0.3694356679916382
aF-0.22950339317321777
aF-0.16986456513404846
aF-0.08474978059530258
aF-0.06127530336380005
aF-0.04551353678107262
aF-0.03212946653366089
aF-0.02997785061597824
aF-0.02701127529144287
aF-0.02315220795571804
aF-0.02198980189859867
aF-0.018074970692396164
aF-0.01625962369143963
aF-0.011874700896441936
aF-0.009096541441977024
aF-0.009089022874832153
aF-0.004523009527474642
aF-0.0022379131987690926
aF-0.002488170750439167
aF-0.003393992315977812
aF-0.005267235916107893
aF-0.0035851814318448305
aF-0.002583600813522935
aF-0.003293222514912486
aF-0.006065500434488058
aF-0.005024484824389219
aF-0.0057801008224487305
aF-0.005722295492887497
aF-0.002343190833926201
aF-0.002050465904176235
aF-0.004200762137770653
aF-0.006281654350459576
aF-0.0032589437905699015
aF-0.001113929320126772
aF-0.00020424503600224853
aF-0.004014922305941582
aF-0.004855813458561897
aF-0.008179700002074242
aF-0.004331714939326048
aF-0.0041981907561421394
aF-0.0033127644564956427
aF-0.003097549546509981
aF-0.0030310177244246006
aF-0.002641878789290786
aF-0.0006561792106367648
aF-0.0005108033074066043
aF-0.0008468650630675256
aF-0.001658678986132145
aF-0.003306775586679578
aF-0.004629387054592371
aF-0.0053850822150707245
aF-0.007086848374456167
aF-0.006800726056098938
aF-0.006199161056429148
aF-0.0063416846096515656
aF-0.005507532972842455
aF-0.00398425804451108
aF-0.004527236334979534
aF-0.009763812646269798
aF-0.010563230141997337
aF-0.011463621631264687
aF-0.009124139323830605
aF-0.008057836443185806
aF-0.007275793701410294
aF-0.007875180803239346
aF-0.0065644849091768265
aF-0.003357008332386613
aF-0.0002793277089949697
aF-0.0022376019041985273
aF-0.005291183479130268
aF-0.0123774828389287
aF-0.014776216819882393
aF-0.013528868556022644
aF-0.01518082246184349
aF-0.011700497008860111
aF-0.010506006889045238
aF-0.009081188589334488
aF-0.008122183382511139
aF-0.005414093844592571
aF-0.0022941662464290857
aF-0.002282498637214303
aF-0.004741505719721317
aF-0.008007396943867207
aF-0.01155953947454691
aF-0.013526751659810543
aF-0.017199290916323662
aF-0.0157183688133955
aF-0.015036849305033684
aF-0.013875382021069527
aF-0.012927341274917126
aF-0.011508425697684288
aF-0.011510240845382214
aF-0.0156348068267107
aF-0.022581541910767555
aF-0.02259153686463833
aF-0.02628798969089985
aF-0.025337133556604385
aF-0.025114480406045914
aF-0.023436039686203003
aF-0.021282635629177094
aF-0.01920986920595169
aF-0.017396360635757446
aF-0.01589803397655487
aF-0.01708540879189968
aF-0.02117028273642063
aF-0.024893831461668015
aF-0.02982688508927822
aF-0.03633696958422661
aF-0.03365868330001831
aF-0.0327080637216568
aF-0.03407777100801468
aF-0.037090688943862915
aF-0.052189912647008896
aF-0.07484602928161621
aF-0.13946017622947693
aF-0.17323504388332367
aF-0.2915440499782562
aF-0.4422864317893982
aF-0.6731045842170715
aF-1.0182483196258545
aF-1.4711741209030151
aF-2.1510064601898193
aF-3.168957471847534
aF-4.233480453491211
aF-5.650946617126465
aF-7.492955207824707
aF-9.521283149719238
aF-9.78039836883545
aF-7.399698257446289
aF-5.500795364379883
aF-4.087986946105957
aF-3.027297258377075
aF-2.1876063346862793
aF-1.534463882446289
aF-0.9673056602478027
aF-0.8665601015090942
aF-0.6922335624694824
aF-0.9090425372123718
aF-1.1775469779968262
aF-1.6981697082519531
aF-2.473360300064087
aF-3.1932661533355713
aF-4.5788044929504395
aF-6.073852062225342
aF-7.982784748077393
aF-10.328303337097168
aF-8.962790489196777
aF-6.870853424072266
aF-5.277133941650391
aF-3.997885227203369
aF-2.8102457523345947
aF-2.1403145790100098
aF-1.5151216983795166
aF-1.06565523147583
aF-0.793827474117279
aF-0.5147852897644043
aF-0.3881409466266632
aF-0.332253634929657
aF-0.2801166772842407
aF-0.34769806265830994
aF-0.4359038174152374
aF-0.5289060473442078
aF-0.8081159591674805
aF-1.094140648841858
aF-1.4427576065063477
aF-1.8929998874664307
aF-2.538968563079834
aF-3.2019448280334473
aF-4.135037899017334
aF-5.266825199127197
aF-6.284495830535889
aF-7.967763423919678
aF-9.413081169128418
aF-9.997559547424316
aF-8.314065933227539
aF-6.867372989654541
aF-5.53831148147583
aF-4.3279500007629395
aF-3.3844497203826904
aF-2.5675480365753174
aF-1.8406437635421753
aF-1.33932363986969
aF-0.9547687768936157
aF-0.6641589999198914
aF-0.4417417347431183
aF-0.43245261907577515
aF-0.1967528611421585
aF-0.3050934374332428
aF-0.31369590759277344
aF-0.36157092452049255
aF-0.5223015546798706
aF-0.7345939874649048
aF-0.9474700093269348
aF-1.3107552528381348
aF-1.674066185951233
aF-2.2801811695098877
aF-2.858851671218872
aF-3.6510894298553467
aF-4.539034843444824
aF-5.682066917419434
aF-7.099024295806885
aF-8.221410751342773
aF-10.010917663574219
aF-9.436164855957031
aF-7.823126316070557
aF-6.477661609649658
aF-5.125849723815918
aF-4.005882263183594
aF-3.105541944503784
aF-2.3642237186431885
aF-1.6660115718841553
aF-1.2211997509002686
aF-0.8442497253417969
aF-0.5864824056625366
aF-0.4180962145328522
aF-0.32187420129776
aF-0.20484891533851624
aF-0.2843618094921112
aF-0.24085940420627594
aF-0.362568736076355
aF-0.4558528959751129
aF-0.6519994735717773
aF-0.8133079409599304
aF-1.1076759099960327
aF-1.49970543384552
aF-1.774314045906067
aF-2.3879566192626953
aF-3.0741889476776123
aF-3.797942876815796
aF-4.796356678009033
aF-5.884331703186035
aF-6.731833457946777
aF-8.292579650878906
aF-10.484512329101562
aF-9.191634178161621
aF-7.589902877807617
aF-6.562928676605225
aF-5.122086524963379
aF-4.125508785247803
aF-3.1313669681549072
aF-2.3984293937683105
aF-1.8593676090240479
aF-1.3052746057510376
aF-0.943268895149231
aF-0.6763375401496887
aF-0.4447256624698639
aF-0.3191949427127838
aF-0.229849174618721
aF-0.1863795965909958
aF-0.15761767327785492
aF-0.22262385487556458
aF-0.2414662092924118
aF-0.31298840045928955
aF-0.4257180392742157
aF-0.5535191297531128
aF-0.7048295736312866
aF-0.9241138100624084
aF-1.1581876277923584
aF-1.4418821334838867
aF-1.871494174003601
aF-2.2305493354797363
aF-3.011422872543335
aF-3.648719549179077
aF-4.527182579040527
aF-5.398355007171631
aF-6.623274326324463
aF-8.001359939575195
aF-9.501428604125977
aF-9.889257431030273
aF-8.39958381652832
aF-6.92987060546875
aF-5.704303741455078
aF-4.5636186599731445
aF-3.639819383621216
aF-2.731234073638916
aF-2.1102795600891113
aF-1.5955148935317993
aF-1.0727970600128174
aF-0.8335351347923279
aF-0.5882804989814758
aF-0.39990392327308655
aF-0.29076090455055237
aF-0.18972042202949524
aF-0.13008226454257965
aF-0.12473734468221664
aF-0.1160798966884613
aF-0.12377623468637466
aF-0.1699220985174179
aF-0.20207715034484863
aF-0.24775998294353485
aF-0.3089514672756195
aF-0.35494107007980347
aF-0.43485957384109497
aF-0.5218033194541931
aF-0.6218512654304504
aF-0.74503493309021
aF-0.8904579877853394
aF-1.0962125062942505
aF-1.3317207098007202
aF-1.6288156509399414
aF-2.0218112468719482
aF-2.4248335361480713
aF-3.010335683822632
aF-3.664700984954834
aF-4.481553077697754
aF-5.412416458129883
aF-6.46738862991333
aF-7.884484767913818
aF-8.970963478088379
aF-10.252021789550781
aF-8.738950729370117
aF-7.360929489135742
aF-6.065357685089111
aF-4.854515552520752
aF-3.8934619426727295
aF-3.0639219284057617
aF-2.363361358642578
aF-1.7555395364761353
aF-1.3756799697875977
aF-0.9999882578849792
aF-0.7495692372322083
aF-0.4981113076210022
aF-0.3518148362636566
aF-0.2490600347518921
aF-0.1684536635875702
aF-0.09582394361495972
aF-0.07480377703905106
aF-0.052837908267974854
aF-0.04059206694364548
aF-0.04020048677921295
aF-0.04467525705695152
aF-0.04468526691198349
aF-0.044343482702970505
aF-0.04636409878730774
aF-0.04275914654135704
aF-0.042081426829099655
aF-0.037168629467487335
aF-0.03233315795660019
aF-0.02738325297832489
aF-0.021399367600679398
aF-0.01748795248568058
aF-0.014326903969049454
aF-0.011024919338524342
aF-0.008942494168877602
aF-0.007139562163501978
aF-0.00711833406239748
aF-0.005916009657084942
aF-0.006170641630887985
aF-0.0021276213228702545
aF-0.00041237042751163244
aF-0.001130947028286755
aF-0.0033714664168655872
aF-0.002389386994764209
aF-0.0022890891414135695
aF-0.0012943367473781109
aF-0.0012362123234197497
aF-0.0016241342527791858
aF-0.0033515780232846737
aF-0.0034679381642490625
aF-0.0015021248254925013
aF-0.001230104360729456
aF-0.0007255622185766697
aF-0.0012326459400355816
aF-0.0015875117387622595
aF-0.0008439270895905793
aF-0.0004802164330612868
aF-9.017912816489115e-05
aF-0.0010197354713454843
aF-9.499419684289023e-05
aF-0.0005455173668451607
aF-0.00014146869943942875
aF-0.0013339741853997111
aF-0.0009928426006808877
aF-0.0019925707019865513
aF-0.0024946723133325577
aF-0.0013075052993372083
aF-0.001222484977915883
aF-0.001962643815204501
aF-0.0022996938787400723
aF-0.004322852939367294
aF-0.00471226591616869
aF-0.006856270134449005
aF-0.007714966312050819
aF-0.008198968134820461
aF-0.006700432393699884
aF-0.006171881686896086
aF-0.005528134293854237
aF-0.005074287764728069
aF-0.002577815670520067
aF-0.0015975449932739139
aF-0.0027759484946727753
aF-0.003640760201960802
aF-0.0029527070000767708
aF-0.002714452100917697
aF-0.0024845004081726074
aF-0.0017777109751477838
aF-0.0021095438860356808
aF-0.0009646356920711696
aF-0.00040444289334118366
aF-0.0005854122573509812
aF-0.002003979869186878
aF-0.00251625943928957
aF-0.004466489888727665
aF-0.005447021219879389
aF-0.006934633012861013
aF-0.00688060512766242
aF-0.0058415960520505905
aF-0.00571402395144105
aF-0.005924539640545845
aF-0.0016651382902637124
aF-0.0008740411140024662
aF-0.0023902917746454477
aF-0.004007265903055668
aF-0.011389744468033314
aF-0.009640851058065891
aF-0.013714599423110485
aF-0.011837485246360302
aF-0.011416556313633919
aF-0.010878842324018478
aF-0.010228940285742283
aF-0.010855969041585922
aF-0.011646467261016369
aF-0.013188289478421211
aF-0.016672374680638313
aF-0.019776878878474236
aF-0.022502625361084938
aF-0.027732398360967636
aF-0.02742324210703373
aF-0.02918773889541626
aF-0.03053288161754608
aF-0.027907246723771095
aF-0.02956494875252247
aF-0.02453833818435669
aF-0.02205810509622097
aF-0.01936362497508526
aF-0.015995267778635025
aF-0.013074466027319431
aF-0.01111206877976656
aF-0.011238129809498787
aF-0.012514354661107063
aF-0.013883150182664394
aF-0.022158456966280937
aF-0.028433863073587418
aF-0.0385294109582901
aF-0.048866771161556244
aF-0.0575772188603878
aF-0.06577953696250916
aF-0.06563113629817963
aF-0.06543362140655518
aF-0.05947955697774887
aF-0.05521100386977196
aF-0.04790278896689415
aF-0.041574109345674515
aF-0.035556476563215256
aF-0.03156924247741699
aF-0.028907960280776024
aF-0.02692437544465065
aF-0.025177733972668648
aF-0.024163896217942238
aF-0.02240092307329178
aF-0.02285522222518921
aF-0.025247473269701004
aF-0.02806437946856022
aF-0.03054189495742321
aF-0.03148435428738594
aF-0.030302971601486206
aF-0.026489200070500374
aF-0.023797258734703064
aF-0.019332244992256165
aF-0.01631484366953373
aF-0.010487107560038567
aF-0.012475907802581787
aF-0.01857614517211914
aF-0.02583303488790989
aF-0.02914700284600258
aF-0.02670449949800968
aF-0.02560899406671524
aF-0.022663775831460953
aF-0.01999574340879917
aF-0.015832209959626198
aF-0.013403571210801601
aF-0.008869588375091553
aF-0.007603337522596121
aF-0.007878102362155914
aF-0.012458222918212414
aF-0.013036234304308891
aF-0.019928934052586555
aF-0.02093169093132019
aF-0.02310033142566681
aF-0.021910326555371284
aF-0.019538111984729767
aF-0.017435522750020027
aF-0.01550977025181055
aF-0.011775609105825424
aF-0.00990117434412241
aF-0.009546245448291302
aF-0.013363530859351158
aF-0.01707189343869686
aF-0.018584532663226128
a.